
MiniscopeUntethered.elf:     file format elf32-littlearm

Sections:
Idx Name          Size      VMA       LMA       File off  Algn
  0 .text         00002424  00400000  00400000  00010000  2**2
                  CONTENTS, ALLOC, LOAD, READONLY, CODE
  1 .relocate     00000440  20400000  00402424  00020000  2**3
                  CONTENTS, ALLOC, LOAD, CODE
  2 .bss          0003e0e4  20400440  00402868  00020440  2**3
                  ALLOC
  3 .stack        00002004  2043e524  0044094c  00020440  2**0
                  ALLOC
  4 .heap         00000200  20440528  00442950  00020440  2**0
                  ALLOC
  5 .ARM.attributes 0000002e  00000000  00000000  00020440  2**0
                  CONTENTS, READONLY
  6 .comment      00000059  00000000  00000000  0002046e  2**0
                  CONTENTS, READONLY
  7 .debug_frame  00000138  00000000  00000000  000204c8  2**2
                  CONTENTS, READONLY, DEBUGGING

Disassembly of section .text:

00400000 <_sfixed>:
  400000:	20440528 	.word	0x20440528
  400004:	0040147d 	.word	0x0040147d
  400008:	00401479 	.word	0x00401479
  40000c:	00401479 	.word	0x00401479
  400010:	00401479 	.word	0x00401479
  400014:	00401479 	.word	0x00401479
  400018:	00401479 	.word	0x00401479
	...
  40002c:	00401479 	.word	0x00401479
  400030:	00401479 	.word	0x00401479
  400034:	00000000 	.word	0x00000000
  400038:	00401479 	.word	0x00401479
  40003c:	00401179 	.word	0x00401179
  400040:	00401479 	.word	0x00401479
  400044:	00401479 	.word	0x00401479
  400048:	00401479 	.word	0x00401479
  40004c:	00401479 	.word	0x00401479
  400050:	00401479 	.word	0x00401479
  400054:	00401479 	.word	0x00401479
  400058:	00401479 	.word	0x00401479
  40005c:	00401479 	.word	0x00401479
  400060:	00401479 	.word	0x00401479
  400064:	00000000 	.word	0x00000000
  400068:	00401ba9 	.word	0x00401ba9
  40006c:	00401479 	.word	0x00401479
  400070:	00000000 	.word	0x00000000
  400074:	00401479 	.word	0x00401479
  400078:	00401479 	.word	0x00401479
  40007c:	00401479 	.word	0x00401479
  400080:	00401479 	.word	0x00401479
  400084:	00000000 	.word	0x00000000
  400088:	00401479 	.word	0x00401479
  40008c:	00401479 	.word	0x00401479
  400090:	00401479 	.word	0x00401479
  400094:	00401479 	.word	0x00401479
  400098:	00401479 	.word	0x00401479
  40009c:	00401479 	.word	0x00401479
  4000a0:	00401479 	.word	0x00401479
  4000a4:	00401479 	.word	0x00401479
	...
  4000b4:	00401479 	.word	0x00401479
  4000b8:	00401479 	.word	0x00401479
  4000bc:	00401479 	.word	0x00401479
  4000c0:	00401479 	.word	0x00401479
  4000c4:	00401479 	.word	0x00401479
  4000c8:	00401479 	.word	0x00401479
  4000cc:	00401479 	.word	0x00401479
  4000d0:	00000000 	.word	0x00000000
  4000d4:	00401479 	.word	0x00401479
  4000d8:	00000000 	.word	0x00000000
  4000dc:	00401479 	.word	0x00401479
  4000e0:	00401479 	.word	0x00401479
  4000e4:	00401479 	.word	0x00401479
  4000e8:	00401479 	.word	0x00401479
  4000ec:	00401479 	.word	0x00401479
  4000f0:	00401479 	.word	0x00401479
  4000f4:	00401479 	.word	0x00401479
  4000f8:	00401479 	.word	0x00401479
	...
  400108:	00401479 	.word	0x00401479
  40010c:	00401479 	.word	0x00401479
  400110:	00401479 	.word	0x00401479
	...
  400120:	00401479 	.word	0x00401479
  400124:	00401479 	.word	0x00401479
  400128:	00401be1 	.word	0x00401be1
  40012c:	00401479 	.word	0x00401479
  400130:	00401479 	.word	0x00401479
	...
  40013c:	00401479 	.word	0x00401479

00400140 <__do_global_dtors_aux>:
  400140:	b510      	push	{r4, lr}
  400142:	4c05      	ldr	r4, [pc, #20]	; (400158 <__do_global_dtors_aux+0x18>)
  400144:	7823      	ldrb	r3, [r4, #0]
  400146:	b933      	cbnz	r3, 400156 <__do_global_dtors_aux+0x16>
  400148:	4b04      	ldr	r3, [pc, #16]	; (40015c <__do_global_dtors_aux+0x1c>)
  40014a:	b113      	cbz	r3, 400152 <__do_global_dtors_aux+0x12>
  40014c:	4804      	ldr	r0, [pc, #16]	; (400160 <__do_global_dtors_aux+0x20>)
  40014e:	f3af 8000 	nop.w
  400152:	2301      	movs	r3, #1
  400154:	7023      	strb	r3, [r4, #0]
  400156:	bd10      	pop	{r4, pc}
  400158:	20400440 	.word	0x20400440
  40015c:	00000000 	.word	0x00000000
  400160:	00402424 	.word	0x00402424

00400164 <frame_dummy>:
  400164:	4b08      	ldr	r3, [pc, #32]	; (400188 <frame_dummy+0x24>)
  400166:	b510      	push	{r4, lr}
  400168:	b11b      	cbz	r3, 400172 <frame_dummy+0xe>
  40016a:	4908      	ldr	r1, [pc, #32]	; (40018c <frame_dummy+0x28>)
  40016c:	4808      	ldr	r0, [pc, #32]	; (400190 <frame_dummy+0x2c>)
  40016e:	f3af 8000 	nop.w
  400172:	4808      	ldr	r0, [pc, #32]	; (400194 <frame_dummy+0x30>)
  400174:	6803      	ldr	r3, [r0, #0]
  400176:	b903      	cbnz	r3, 40017a <frame_dummy+0x16>
  400178:	bd10      	pop	{r4, pc}
  40017a:	4b07      	ldr	r3, [pc, #28]	; (400198 <frame_dummy+0x34>)
  40017c:	2b00      	cmp	r3, #0
  40017e:	d0fb      	beq.n	400178 <frame_dummy+0x14>
  400180:	e8bd 4010 	ldmia.w	sp!, {r4, lr}
  400184:	4718      	bx	r3
  400186:	bf00      	nop
  400188:	00000000 	.word	0x00000000
  40018c:	20400444 	.word	0x20400444
  400190:	00402424 	.word	0x00402424
  400194:	00402424 	.word	0x00402424
  400198:	00000000 	.word	0x00000000

0040019c <SDMMC_UNSTUFF_BITS>:
  40019c:	1a89      	subs	r1, r1, r2
  40019e:	f002 0207 	and.w	r2, r2, #7
  4001a2:	b570      	push	{r4, r5, r6, lr}
  4001a4:	3107      	adds	r1, #7
  4001a6:	2408      	movs	r4, #8
  4001a8:	18d5      	adds	r5, r2, r3
  4001aa:	fb91 f1f4 	sdiv	r1, r1, r4
  4001ae:	4401      	add	r1, r0
  4001b0:	2d08      	cmp	r5, #8
  4001b2:	f811 4c01 	ldrb.w	r4, [r1, #-1]
  4001b6:	fa44 f402 	asr.w	r4, r4, r2
  4001ba:	dd12      	ble.n	4001e2 <SDMMC_UNSTUFF_BITS+0x46>
  4001bc:	2d10      	cmp	r5, #16
  4001be:	f1c2 0608 	rsb	r6, r2, #8
  4001c2:	f811 0c02 	ldrb.w	r0, [r1, #-2]
  4001c6:	bfc4      	itt	gt
  4001c8:	f1c2 0210 	rsbgt	r2, r2, #16
  4001cc:	f811 1c03 	ldrbgt.w	r1, [r1, #-3]
  4001d0:	fa00 f006 	lsl.w	r0, r0, r6
  4001d4:	bfc8      	it	gt
  4001d6:	fa01 f202 	lslgt.w	r2, r1, r2
  4001da:	ea44 0400 	orr.w	r4, r4, r0
  4001de:	bfc8      	it	gt
  4001e0:	4314      	orrgt	r4, r2
  4001e2:	2001      	movs	r0, #1
  4001e4:	4098      	lsls	r0, r3
  4001e6:	3801      	subs	r0, #1
  4001e8:	4020      	ands	r0, r4
  4001ea:	bd70      	pop	{r4, r5, r6, pc}

004001ec <sd_mmc_configure_slot>:
  4001ec:	4b07      	ldr	r3, [pc, #28]	; (40020c <sd_mmc_configure_slot+0x20>)
  4001ee:	4808      	ldr	r0, [pc, #32]	; (400210 <sd_mmc_configure_slot+0x24>)
  4001f0:	b410      	push	{r4}
  4001f2:	6819      	ldr	r1, [r3, #0]
  4001f4:	4c07      	ldr	r4, [pc, #28]	; (400214 <sd_mmc_configure_slot+0x28>)
  4001f6:	7f8b      	ldrb	r3, [r1, #30]
  4001f8:	7b4a      	ldrb	r2, [r1, #13]
  4001fa:	46a4      	mov	ip, r4
  4001fc:	3300      	adds	r3, #0
  4001fe:	6809      	ldr	r1, [r1, #0]
  400200:	7800      	ldrb	r0, [r0, #0]
  400202:	bf18      	it	ne
  400204:	2301      	movne	r3, #1
  400206:	f85d 4b04 	ldr.w	r4, [sp], #4
  40020a:	4760      	bx	ip
  40020c:	20400460 	.word	0x20400460
  400210:	20400466 	.word	0x20400466
  400214:	00400c15 	.word	0x00400c15

00400218 <sd_mmc_deselect_slot>:
  400218:	4b02      	ldr	r3, [pc, #8]	; (400224 <sd_mmc_deselect_slot+0xc>)
  40021a:	7818      	ldrb	r0, [r3, #0]
  40021c:	b908      	cbnz	r0, 400222 <sd_mmc_deselect_slot+0xa>
  40021e:	4b02      	ldr	r3, [pc, #8]	; (400228 <sd_mmc_deselect_slot+0x10>)
  400220:	4718      	bx	r3
  400222:	4770      	bx	lr
  400224:	20400466 	.word	0x20400466
  400228:	00400c81 	.word	0x00400c81

0040022c <sd_mmc_select_slot>:
  40022c:	b510      	push	{r4, lr}
  40022e:	b9b8      	cbnz	r0, 400260 <sd_mmc_select_slot+0x34>
  400230:	4c0c      	ldr	r4, [pc, #48]	; (400264 <sd_mmc_select_slot+0x38>)
  400232:	7aa3      	ldrb	r3, [r4, #10]
  400234:	3b03      	subs	r3, #3
  400236:	2b01      	cmp	r3, #1
  400238:	d806      	bhi.n	400248 <sd_mmc_select_slot+0x1c>
  40023a:	2302      	movs	r3, #2
  40023c:	77a0      	strb	r0, [r4, #30]
  40023e:	72a3      	strb	r3, [r4, #10]
  400240:	4b09      	ldr	r3, [pc, #36]	; (400268 <sd_mmc_select_slot+0x3c>)
  400242:	6023      	str	r3, [r4, #0]
  400244:	2301      	movs	r3, #1
  400246:	7363      	strb	r3, [r4, #13]
  400248:	2200      	movs	r2, #0
  40024a:	4b08      	ldr	r3, [pc, #32]	; (40026c <sd_mmc_select_slot+0x40>)
  40024c:	701a      	strb	r2, [r3, #0]
  40024e:	4b08      	ldr	r3, [pc, #32]	; (400270 <sd_mmc_select_slot+0x44>)
  400250:	601c      	str	r4, [r3, #0]
  400252:	4b08      	ldr	r3, [pc, #32]	; (400274 <sd_mmc_select_slot+0x48>)
  400254:	4798      	blx	r3
  400256:	7aa0      	ldrb	r0, [r4, #10]
  400258:	1e83      	subs	r3, r0, #2
  40025a:	4258      	negs	r0, r3
  40025c:	4158      	adcs	r0, r3
  40025e:	bd10      	pop	{r4, pc}
  400260:	2004      	movs	r0, #4
  400262:	bd10      	pop	{r4, pc}
  400264:	20400468 	.word	0x20400468
  400268:	00061a80 	.word	0x00061a80
  40026c:	20400466 	.word	0x20400466
  400270:	20400460 	.word	0x20400460
  400274:	004001ed 	.word	0x004001ed

00400278 <sd_mmc_cmd9_mci>:
  400278:	b538      	push	{r3, r4, r5, lr}
  40027a:	4d08      	ldr	r5, [pc, #32]	; (40029c <sd_mmc_cmd9_mci+0x24>)
  40027c:	f641 3009 	movw	r0, #6921	; 0x1b09
  400280:	682b      	ldr	r3, [r5, #0]
  400282:	8919      	ldrh	r1, [r3, #8]
  400284:	4b06      	ldr	r3, [pc, #24]	; (4002a0 <sd_mmc_cmd9_mci+0x28>)
  400286:	0409      	lsls	r1, r1, #16
  400288:	4798      	blx	r3
  40028a:	4604      	mov	r4, r0
  40028c:	b118      	cbz	r0, 400296 <sd_mmc_cmd9_mci+0x1e>
  40028e:	6828      	ldr	r0, [r5, #0]
  400290:	4b04      	ldr	r3, [pc, #16]	; (4002a4 <sd_mmc_cmd9_mci+0x2c>)
  400292:	300e      	adds	r0, #14
  400294:	4798      	blx	r3
  400296:	4620      	mov	r0, r4
  400298:	bd38      	pop	{r3, r4, r5, pc}
  40029a:	bf00      	nop
  40029c:	20400460 	.word	0x20400460
  4002a0:	00400ca1 	.word	0x00400ca1
  4002a4:	00400cd1 	.word	0x00400cd1

004002a8 <sd_mmc_init>:
  4002a8:	2204      	movs	r2, #4
  4002aa:	4b03      	ldr	r3, [pc, #12]	; (4002b8 <sd_mmc_init+0x10>)
  4002ac:	729a      	strb	r2, [r3, #10]
  4002ae:	22ff      	movs	r2, #255	; 0xff
  4002b0:	4b02      	ldr	r3, [pc, #8]	; (4002bc <sd_mmc_init+0x14>)
  4002b2:	701a      	strb	r2, [r3, #0]
  4002b4:	4b02      	ldr	r3, [pc, #8]	; (4002c0 <sd_mmc_init+0x18>)
  4002b6:	4718      	bx	r3
  4002b8:	20400468 	.word	0x20400468
  4002bc:	20400466 	.word	0x20400466
  4002c0:	00400bd9 	.word	0x00400bd9

004002c4 <sd_mmc_check>:
  4002c4:	e92d 4ff0 	stmdb	sp!, {r4, r5, r6, r7, r8, r9, sl, fp, lr}
  4002c8:	4b99      	ldr	r3, [pc, #612]	; (400530 <sd_mmc_check+0x26c>)
  4002ca:	b095      	sub	sp, #84	; 0x54
  4002cc:	4798      	blx	r3
  4002ce:	2801      	cmp	r0, #1
  4002d0:	4606      	mov	r6, r0
  4002d2:	f040 82e1 	bne.w	400898 <sd_mmc_check+0x5d4>
  4002d6:	4c97      	ldr	r4, [pc, #604]	; (400534 <sd_mmc_check+0x270>)
  4002d8:	2500      	movs	r5, #0
  4002da:	4f97      	ldr	r7, [pc, #604]	; (400538 <sd_mmc_check+0x274>)
  4002dc:	6823      	ldr	r3, [r4, #0]
  4002de:	46b9      	mov	r9, r7
  4002e0:	72d8      	strb	r0, [r3, #11]
  4002e2:	731d      	strb	r5, [r3, #12]
  4002e4:	811d      	strh	r5, [r3, #8]
  4002e6:	47b8      	blx	r7
  4002e8:	4629      	mov	r1, r5
  4002ea:	f44f 4080 	mov.w	r0, #16384	; 0x4000
  4002ee:	4d93      	ldr	r5, [pc, #588]	; (40053c <sd_mmc_check+0x278>)
  4002f0:	47a8      	blx	r5
  4002f2:	2800      	cmp	r0, #0
  4002f4:	f000 82cd 	beq.w	400892 <sd_mmc_check+0x5ce>
  4002f8:	f44f 71d5 	mov.w	r1, #426	; 0x1aa
  4002fc:	f245 5008 	movw	r0, #21768	; 0x5508
  400300:	47a8      	blx	r5
  400302:	b150      	cbz	r0, 40031a <sd_mmc_check+0x56>
  400304:	4b8e      	ldr	r3, [pc, #568]	; (400540 <sd_mmc_check+0x27c>)
  400306:	4798      	blx	r3
  400308:	1c47      	adds	r7, r0, #1
  40030a:	d006      	beq.n	40031a <sd_mmc_check+0x56>
  40030c:	f3c0 000b 	ubfx	r0, r0, #0, #12
  400310:	f5b0 7fd5 	cmp.w	r0, #426	; 0x1aa
  400314:	f040 82bd 	bne.w	400892 <sd_mmc_check+0x5ce>
  400318:	e000      	b.n	40031c <sd_mmc_check+0x58>
  40031a:	2600      	movs	r6, #0
  40031c:	6823      	ldr	r3, [r4, #0]
  40031e:	7adb      	ldrb	r3, [r3, #11]
  400320:	07da      	lsls	r2, r3, #31
  400322:	d549      	bpl.n	4003b8 <sd_mmc_check+0xf4>
  400324:	2e00      	cmp	r6, #0
  400326:	4f87      	ldr	r7, [pc, #540]	; (400544 <sd_mmc_check+0x280>)
  400328:	f640 0635 	movw	r6, #2101	; 0x835
  40032c:	f8df a20c 	ldr.w	sl, [pc, #524]	; 40053c <sd_mmc_check+0x278>
  400330:	bf08      	it	eq
  400332:	f44f 17fc 	moveq.w	r7, #2064384	; 0x1f8000
  400336:	f8df 8208 	ldr.w	r8, [pc, #520]	; 400540 <sd_mmc_check+0x27c>
  40033a:	2100      	movs	r1, #0
  40033c:	f241 1037 	movw	r0, #4407	; 0x1137
  400340:	47a8      	blx	r5
  400342:	b188      	cbz	r0, 400368 <sd_mmc_check+0xa4>
  400344:	4639      	mov	r1, r7
  400346:	f244 5029 	movw	r0, #17705	; 0x4529
  40034a:	47d0      	blx	sl
  40034c:	b160      	cbz	r0, 400368 <sd_mmc_check+0xa4>
  40034e:	47c0      	blx	r8
  400350:	2800      	cmp	r0, #0
  400352:	da07      	bge.n	400364 <sd_mmc_check+0xa0>
  400354:	0046      	lsls	r6, r0, #1
  400356:	d52f      	bpl.n	4003b8 <sd_mmc_check+0xf4>
  400358:	6822      	ldr	r2, [r4, #0]
  40035a:	7ad3      	ldrb	r3, [r2, #11]
  40035c:	f043 0308 	orr.w	r3, r3, #8
  400360:	72d3      	strb	r3, [r2, #11]
  400362:	e029      	b.n	4003b8 <sd_mmc_check+0xf4>
  400364:	3e01      	subs	r6, #1
  400366:	d1e8      	bne.n	40033a <sd_mmc_check+0x76>
  400368:	6823      	ldr	r3, [r4, #0]
  40036a:	2202      	movs	r2, #2
  40036c:	2100      	movs	r1, #0
  40036e:	f44f 4080 	mov.w	r0, #16384	; 0x4000
  400372:	72da      	strb	r2, [r3, #11]
  400374:	47a8      	blx	r5
  400376:	2800      	cmp	r0, #0
  400378:	f000 828b 	beq.w	400892 <sd_mmc_check+0x5ce>
  40037c:	f241 0669 	movw	r6, #4201	; 0x1069
  400380:	4f6f      	ldr	r7, [pc, #444]	; (400540 <sd_mmc_check+0x27c>)
  400382:	4970      	ldr	r1, [pc, #448]	; (400544 <sd_mmc_check+0x280>)
  400384:	f244 5001 	movw	r0, #17665	; 0x4501
  400388:	47a8      	blx	r5
  40038a:	2800      	cmp	r0, #0
  40038c:	f000 8281 	beq.w	400892 <sd_mmc_check+0x5ce>
  400390:	47b8      	blx	r7
  400392:	2800      	cmp	r0, #0
  400394:	f8df a1a8 	ldr.w	sl, [pc, #424]	; 400540 <sd_mmc_check+0x27c>
  400398:	da0b      	bge.n	4003b2 <sd_mmc_check+0xee>
  40039a:	f000 40c0 	and.w	r0, r0, #1610612736	; 0x60000000
  40039e:	f1b0 4f80 	cmp.w	r0, #1073741824	; 0x40000000
  4003a2:	f040 815c 	bne.w	40065e <sd_mmc_check+0x39a>
  4003a6:	6822      	ldr	r2, [r4, #0]
  4003a8:	7ad3      	ldrb	r3, [r2, #11]
  4003aa:	f043 0308 	orr.w	r3, r3, #8
  4003ae:	72d3      	strb	r3, [r2, #11]
  4003b0:	e155      	b.n	40065e <sd_mmc_check+0x39a>
  4003b2:	3e01      	subs	r6, #1
  4003b4:	d1e5      	bne.n	400382 <sd_mmc_check+0xbe>
  4003b6:	e26c      	b.n	400892 <sd_mmc_check+0x5ce>
  4003b8:	6823      	ldr	r3, [r4, #0]
  4003ba:	7adb      	ldrb	r3, [r3, #11]
  4003bc:	07db      	lsls	r3, r3, #31
  4003be:	d407      	bmi.n	4003d0 <sd_mmc_check+0x10c>
  4003c0:	2100      	movs	r1, #0
  4003c2:	f245 1003 	movw	r0, #20739	; 0x5103
  4003c6:	47a8      	blx	r5
  4003c8:	2800      	cmp	r0, #0
  4003ca:	f000 8262 	beq.w	400892 <sd_mmc_check+0x5ce>
  4003ce:	e006      	b.n	4003de <sd_mmc_check+0x11a>
  4003d0:	2100      	movs	r1, #0
  4003d2:	f645 3002 	movw	r0, #23298	; 0x5b02
  4003d6:	47a8      	blx	r5
  4003d8:	2800      	cmp	r0, #0
  4003da:	d1f1      	bne.n	4003c0 <sd_mmc_check+0xfc>
  4003dc:	e259      	b.n	400892 <sd_mmc_check+0x5ce>
  4003de:	4e58      	ldr	r6, [pc, #352]	; (400540 <sd_mmc_check+0x27c>)
  4003e0:	6827      	ldr	r7, [r4, #0]
  4003e2:	47b0      	blx	r6
  4003e4:	6823      	ldr	r3, [r4, #0]
  4003e6:	0c00      	lsrs	r0, r0, #16
  4003e8:	46b2      	mov	sl, r6
  4003ea:	8138      	strh	r0, [r7, #8]
  4003ec:	7adb      	ldrb	r3, [r3, #11]
  4003ee:	f013 0f01 	tst.w	r3, #1
  4003f2:	d045      	beq.n	400480 <sd_mmc_check+0x1bc>
  4003f4:	4b54      	ldr	r3, [pc, #336]	; (400548 <sd_mmc_check+0x284>)
  4003f6:	4798      	blx	r3
  4003f8:	2800      	cmp	r0, #0
  4003fa:	f000 824a 	beq.w	400892 <sd_mmc_check+0x5ce>
  4003fe:	4b4d      	ldr	r3, [pc, #308]	; (400534 <sd_mmc_check+0x270>)
  400400:	2260      	movs	r2, #96	; 0x60
  400402:	2180      	movs	r1, #128	; 0x80
  400404:	4f51      	ldr	r7, [pc, #324]	; (40054c <sd_mmc_check+0x288>)
  400406:	f8d3 b000 	ldr.w	fp, [r3]
  40040a:	2308      	movs	r3, #8
  40040c:	f10b 080e 	add.w	r8, fp, #14
  400410:	4640      	mov	r0, r8
  400412:	47b8      	blx	r7
  400414:	4b4e      	ldr	r3, [pc, #312]	; (400550 <sd_mmc_check+0x28c>)
  400416:	f000 0207 	and.w	r2, r0, #7
  40041a:	f3c0 00c3 	ubfx	r0, r0, #3, #4
  40041e:	2180      	movs	r1, #128	; 0x80
  400420:	f853 2022 	ldr.w	r2, [r3, r2, lsl #2]
  400424:	f44f 737a 	mov.w	r3, #1000	; 0x3e8
  400428:	435a      	muls	r2, r3
  40042a:	4b4a      	ldr	r3, [pc, #296]	; (400554 <sd_mmc_check+0x290>)
  40042c:	f853 3020 	ldr.w	r3, [r3, r0, lsl #2]
  400430:	4640      	mov	r0, r8
  400432:	4353      	muls	r3, r2
  400434:	227e      	movs	r2, #126	; 0x7e
  400436:	f8cb 3000 	str.w	r3, [fp]
  40043a:	2302      	movs	r3, #2
  40043c:	47b8      	blx	r7
  40043e:	b138      	cbz	r0, 400450 <sd_mmc_check+0x18c>
  400440:	2316      	movs	r3, #22
  400442:	2230      	movs	r2, #48	; 0x30
  400444:	2180      	movs	r1, #128	; 0x80
  400446:	4640      	mov	r0, r8
  400448:	47b8      	blx	r7
  40044a:	3001      	adds	r0, #1
  40044c:	0240      	lsls	r0, r0, #9
  40044e:	e015      	b.n	40047c <sd_mmc_check+0x1b8>
  400450:	230c      	movs	r3, #12
  400452:	223e      	movs	r2, #62	; 0x3e
  400454:	2180      	movs	r1, #128	; 0x80
  400456:	4640      	mov	r0, r8
  400458:	47b8      	blx	r7
  40045a:	4606      	mov	r6, r0
  40045c:	2303      	movs	r3, #3
  40045e:	222f      	movs	r2, #47	; 0x2f
  400460:	2180      	movs	r1, #128	; 0x80
  400462:	4640      	mov	r0, r8
  400464:	47b8      	blx	r7
  400466:	3601      	adds	r6, #1
  400468:	3002      	adds	r0, #2
  40046a:	2304      	movs	r3, #4
  40046c:	2250      	movs	r2, #80	; 0x50
  40046e:	2180      	movs	r1, #128	; 0x80
  400470:	4086      	lsls	r6, r0
  400472:	4640      	mov	r0, r8
  400474:	47b8      	blx	r7
  400476:	fa06 f000 	lsl.w	r0, r6, r0
  40047a:	0a80      	lsrs	r0, r0, #10
  40047c:	f8cb 0004 	str.w	r0, [fp, #4]
  400480:	6823      	ldr	r3, [r4, #0]
  400482:	f243 1007 	movw	r0, #12551	; 0x3107
  400486:	4e2b      	ldr	r6, [pc, #172]	; (400534 <sd_mmc_check+0x270>)
  400488:	8919      	ldrh	r1, [r3, #8]
  40048a:	0409      	lsls	r1, r1, #16
  40048c:	47a8      	blx	r5
  40048e:	2800      	cmp	r0, #0
  400490:	f000 81ff 	beq.w	400892 <sd_mmc_check+0x5ce>
  400494:	6833      	ldr	r3, [r6, #0]
  400496:	7ada      	ldrb	r2, [r3, #11]
  400498:	07d2      	lsls	r2, r2, #31
  40049a:	d406      	bmi.n	4004aa <sd_mmc_check+0x1e6>
  40049c:	4b2e      	ldr	r3, [pc, #184]	; (400558 <sd_mmc_check+0x294>)
  40049e:	7818      	ldrb	r0, [r3, #0]
  4004a0:	4b2e      	ldr	r3, [pc, #184]	; (40055c <sd_mmc_check+0x298>)
  4004a2:	4798      	blx	r3
  4004a4:	2803      	cmp	r0, #3
  4004a6:	d863      	bhi.n	400570 <sd_mmc_check+0x2ac>
  4004a8:	e07c      	b.n	4005a4 <sd_mmc_check+0x2e0>
  4004aa:	8919      	ldrh	r1, [r3, #8]
  4004ac:	f241 1037 	movw	r0, #4407	; 0x1137
  4004b0:	4b22      	ldr	r3, [pc, #136]	; (40053c <sd_mmc_check+0x278>)
  4004b2:	0409      	lsls	r1, r1, #16
  4004b4:	4798      	blx	r3
  4004b6:	2800      	cmp	r0, #0
  4004b8:	f000 81eb 	beq.w	400892 <sd_mmc_check+0x5ce>
  4004bc:	2701      	movs	r7, #1
  4004be:	2208      	movs	r2, #8
  4004c0:	2100      	movs	r1, #0
  4004c2:	4827      	ldr	r0, [pc, #156]	; (400560 <sd_mmc_check+0x29c>)
  4004c4:	9700      	str	r7, [sp, #0]
  4004c6:	463b      	mov	r3, r7
  4004c8:	f8df 80a0 	ldr.w	r8, [pc, #160]	; 40056c <sd_mmc_check+0x2a8>
  4004cc:	47c0      	blx	r8
  4004ce:	2800      	cmp	r0, #0
  4004d0:	f000 81df 	beq.w	400892 <sd_mmc_check+0x5ce>
  4004d4:	4639      	mov	r1, r7
  4004d6:	a804      	add	r0, sp, #16
  4004d8:	4b22      	ldr	r3, [pc, #136]	; (400564 <sd_mmc_check+0x2a0>)
  4004da:	4798      	blx	r3
  4004dc:	2800      	cmp	r0, #0
  4004de:	f000 81d8 	beq.w	400892 <sd_mmc_check+0x5ce>
  4004e2:	4b21      	ldr	r3, [pc, #132]	; (400568 <sd_mmc_check+0x2a4>)
  4004e4:	4798      	blx	r3
  4004e6:	4680      	mov	r8, r0
  4004e8:	2800      	cmp	r0, #0
  4004ea:	f000 81d2 	beq.w	400892 <sd_mmc_check+0x5ce>
  4004ee:	2304      	movs	r3, #4
  4004f0:	2238      	movs	r2, #56	; 0x38
  4004f2:	2140      	movs	r1, #64	; 0x40
  4004f4:	a804      	add	r0, sp, #16
  4004f6:	f8df b054 	ldr.w	fp, [pc, #84]	; 40054c <sd_mmc_check+0x288>
  4004fa:	47d8      	blx	fp
  4004fc:	42b8      	cmp	r0, r7
  4004fe:	d00d      	beq.n	40051c <sd_mmc_check+0x258>
  400500:	d30f      	bcc.n	400522 <sd_mmc_check+0x25e>
  400502:	2802      	cmp	r0, #2
  400504:	d10d      	bne.n	400522 <sd_mmc_check+0x25e>
  400506:	222f      	movs	r2, #47	; 0x2f
  400508:	463b      	mov	r3, r7
  40050a:	2140      	movs	r1, #64	; 0x40
  40050c:	a804      	add	r0, sp, #16
  40050e:	47d8      	blx	fp
  400510:	2801      	cmp	r0, #1
  400512:	6823      	ldr	r3, [r4, #0]
  400514:	bf0c      	ite	eq
  400516:	2230      	moveq	r2, #48	; 0x30
  400518:	2220      	movne	r2, #32
  40051a:	e004      	b.n	400526 <sd_mmc_check+0x262>
  40051c:	6833      	ldr	r3, [r6, #0]
  40051e:	221a      	movs	r2, #26
  400520:	e001      	b.n	400526 <sd_mmc_check+0x262>
  400522:	6833      	ldr	r3, [r6, #0]
  400524:	2210      	movs	r2, #16
  400526:	731a      	strb	r2, [r3, #12]
  400528:	f1b8 0f00 	cmp.w	r8, #0
  40052c:	d1b6      	bne.n	40049c <sd_mmc_check+0x1d8>
  40052e:	e1b0      	b.n	400892 <sd_mmc_check+0x5ce>
  400530:	0040022d 	.word	0x0040022d
  400534:	20400460 	.word	0x20400460
  400538:	00400c83 	.word	0x00400c83
  40053c:	00400ca1 	.word	0x00400ca1
  400540:	00400cc9 	.word	0x00400cc9
  400544:	401f8000 	.word	0x401f8000
  400548:	00400279 	.word	0x00400279
  40054c:	0040019d 	.word	0x0040019d
  400550:	004022dc 	.word	0x004022dc
  400554:	0040229c 	.word	0x0040229c
  400558:	20400466 	.word	0x20400466
  40055c:	00400c05 	.word	0x00400c05
  400560:	00081133 	.word	0x00081133
  400564:	00400e01 	.word	0x00400e01
  400568:	00400f21 	.word	0x00400f21
  40056c:	00400cfd 	.word	0x00400cfd
  400570:	6823      	ldr	r3, [r4, #0]
  400572:	7ada      	ldrb	r2, [r3, #11]
  400574:	07d7      	lsls	r7, r2, #31
  400576:	d513      	bpl.n	4005a0 <sd_mmc_check+0x2dc>
  400578:	8919      	ldrh	r1, [r3, #8]
  40057a:	f241 1037 	movw	r0, #4407	; 0x1137
  40057e:	0409      	lsls	r1, r1, #16
  400580:	47a8      	blx	r5
  400582:	2800      	cmp	r0, #0
  400584:	f000 8185 	beq.w	400892 <sd_mmc_check+0x5ce>
  400588:	2102      	movs	r1, #2
  40058a:	f241 1006 	movw	r0, #4358	; 0x1106
  40058e:	4b96      	ldr	r3, [pc, #600]	; (4007e8 <sd_mmc_check+0x524>)
  400590:	4798      	blx	r3
  400592:	2800      	cmp	r0, #0
  400594:	f000 817d 	beq.w	400892 <sd_mmc_check+0x5ce>
  400598:	4b94      	ldr	r3, [pc, #592]	; (4007ec <sd_mmc_check+0x528>)
  40059a:	2204      	movs	r2, #4
  40059c:	681b      	ldr	r3, [r3, #0]
  40059e:	735a      	strb	r2, [r3, #13]
  4005a0:	4b93      	ldr	r3, [pc, #588]	; (4007f0 <sd_mmc_check+0x52c>)
  4005a2:	4798      	blx	r3
  4005a4:	4b93      	ldr	r3, [pc, #588]	; (4007f4 <sd_mmc_check+0x530>)
  4005a6:	4798      	blx	r3
  4005a8:	2800      	cmp	r0, #0
  4005aa:	d04a      	beq.n	400642 <sd_mmc_check+0x37e>
  4005ac:	6823      	ldr	r3, [r4, #0]
  4005ae:	7ada      	ldrb	r2, [r3, #11]
  4005b0:	07d6      	lsls	r6, r2, #31
  4005b2:	d402      	bmi.n	4005ba <sd_mmc_check+0x2f6>
  4005b4:	4b8e      	ldr	r3, [pc, #568]	; (4007f0 <sd_mmc_check+0x52c>)
  4005b6:	4798      	blx	r3
  4005b8:	e043      	b.n	400642 <sd_mmc_check+0x37e>
  4005ba:	7b1b      	ldrb	r3, [r3, #12]
  4005bc:	2b10      	cmp	r3, #16
  4005be:	d9f9      	bls.n	4005b4 <sd_mmc_check+0x2f0>
  4005c0:	2601      	movs	r6, #1
  4005c2:	2240      	movs	r2, #64	; 0x40
  4005c4:	2100      	movs	r1, #0
  4005c6:	4b8c      	ldr	r3, [pc, #560]	; (4007f8 <sd_mmc_check+0x534>)
  4005c8:	a804      	add	r0, sp, #16
  4005ca:	4f8c      	ldr	r7, [pc, #560]	; (4007fc <sd_mmc_check+0x538>)
  4005cc:	4798      	blx	r3
  4005ce:	9600      	str	r6, [sp, #0]
  4005d0:	4633      	mov	r3, r6
  4005d2:	2240      	movs	r2, #64	; 0x40
  4005d4:	498a      	ldr	r1, [pc, #552]	; (400800 <sd_mmc_check+0x53c>)
  4005d6:	488b      	ldr	r0, [pc, #556]	; (400804 <sd_mmc_check+0x540>)
  4005d8:	47b8      	blx	r7
  4005da:	2800      	cmp	r0, #0
  4005dc:	f000 8159 	beq.w	400892 <sd_mmc_check+0x5ce>
  4005e0:	4631      	mov	r1, r6
  4005e2:	a804      	add	r0, sp, #16
  4005e4:	4b88      	ldr	r3, [pc, #544]	; (400808 <sd_mmc_check+0x544>)
  4005e6:	4798      	blx	r3
  4005e8:	2800      	cmp	r0, #0
  4005ea:	f000 8152 	beq.w	400892 <sd_mmc_check+0x5ce>
  4005ee:	4b87      	ldr	r3, [pc, #540]	; (40080c <sd_mmc_check+0x548>)
  4005f0:	4798      	blx	r3
  4005f2:	4607      	mov	r7, r0
  4005f4:	2800      	cmp	r0, #0
  4005f6:	f000 814c 	beq.w	400892 <sd_mmc_check+0x5ce>
  4005fa:	47d0      	blx	sl
  4005fc:	0600      	lsls	r0, r0, #24
  4005fe:	f100 8148 	bmi.w	400892 <sd_mmc_check+0x5ce>
  400602:	2304      	movs	r3, #4
  400604:	f44f 72bc 	mov.w	r2, #376	; 0x178
  400608:	f44f 7100 	mov.w	r1, #512	; 0x200
  40060c:	a804      	add	r0, sp, #16
  40060e:	f8df 8204 	ldr.w	r8, [pc, #516]	; 400814 <sd_mmc_check+0x550>
  400612:	47c0      	blx	r8
  400614:	280f      	cmp	r0, #15
  400616:	d011      	beq.n	40063c <sd_mmc_check+0x378>
  400618:	2310      	movs	r3, #16
  40061a:	f44f 7288 	mov.w	r2, #272	; 0x110
  40061e:	f44f 7100 	mov.w	r1, #512	; 0x200
  400622:	eb0d 0003 	add.w	r0, sp, r3
  400626:	47c0      	blx	r8
  400628:	2800      	cmp	r0, #0
  40062a:	f040 8132 	bne.w	400892 <sd_mmc_check+0x5ce>
  40062e:	47c8      	blx	r9
  400630:	4b6e      	ldr	r3, [pc, #440]	; (4007ec <sd_mmc_check+0x528>)
  400632:	681b      	ldr	r3, [r3, #0]
  400634:	681a      	ldr	r2, [r3, #0]
  400636:	779e      	strb	r6, [r3, #30]
  400638:	40b2      	lsls	r2, r6
  40063a:	601a      	str	r2, [r3, #0]
  40063c:	2f00      	cmp	r7, #0
  40063e:	d1b9      	bne.n	4005b4 <sd_mmc_check+0x2f0>
  400640:	e127      	b.n	400892 <sd_mmc_check+0x5ce>
  400642:	6823      	ldr	r3, [r4, #0]
  400644:	7adb      	ldrb	r3, [r3, #11]
  400646:	07d9      	lsls	r1, r3, #31
  400648:	f140 812a 	bpl.w	4008a0 <sd_mmc_check+0x5dc>
  40064c:	f44f 7100 	mov.w	r1, #512	; 0x200
  400650:	f241 1010 	movw	r0, #4368	; 0x1110
  400654:	47a8      	blx	r5
  400656:	2800      	cmp	r0, #0
  400658:	f040 8122 	bne.w	4008a0 <sd_mmc_check+0x5dc>
  40065c:	e119      	b.n	400892 <sd_mmc_check+0x5ce>
  40065e:	2100      	movs	r1, #0
  400660:	f645 3002 	movw	r0, #23298	; 0x5b02
  400664:	47a8      	blx	r5
  400666:	2800      	cmp	r0, #0
  400668:	f000 8113 	beq.w	400892 <sd_mmc_check+0x5ce>
  40066c:	6823      	ldr	r3, [r4, #0]
  40066e:	2201      	movs	r2, #1
  400670:	f44f 3180 	mov.w	r1, #65536	; 0x10000
  400674:	f241 1003 	movw	r0, #4355	; 0x1103
  400678:	811a      	strh	r2, [r3, #8]
  40067a:	4b5b      	ldr	r3, [pc, #364]	; (4007e8 <sd_mmc_check+0x524>)
  40067c:	4798      	blx	r3
  40067e:	2800      	cmp	r0, #0
  400680:	f000 8107 	beq.w	400892 <sd_mmc_check+0x5ce>
  400684:	4b62      	ldr	r3, [pc, #392]	; (400810 <sd_mmc_check+0x54c>)
  400686:	4798      	blx	r3
  400688:	2800      	cmp	r0, #0
  40068a:	f000 8102 	beq.w	400892 <sd_mmc_check+0x5ce>
  40068e:	4b57      	ldr	r3, [pc, #348]	; (4007ec <sd_mmc_check+0x528>)
  400690:	227a      	movs	r2, #122	; 0x7a
  400692:	4e60      	ldr	r6, [pc, #384]	; (400814 <sd_mmc_check+0x550>)
  400694:	2180      	movs	r1, #128	; 0x80
  400696:	681f      	ldr	r7, [r3, #0]
  400698:	2304      	movs	r3, #4
  40069a:	46b0      	mov	r8, r6
  40069c:	f107 090e 	add.w	r9, r7, #14
  4006a0:	4648      	mov	r0, r9
  4006a2:	47b0      	blx	r6
  4006a4:	3801      	subs	r0, #1
  4006a6:	2803      	cmp	r0, #3
  4006a8:	d803      	bhi.n	4006b2 <sd_mmc_check+0x3ee>
  4006aa:	e8df f000 	tbb	[pc, r0]
  4006ae:	0604      	.short	0x0604
  4006b0:	0a08      	.short	0x0a08
  4006b2:	2312      	movs	r3, #18
  4006b4:	e006      	b.n	4006c4 <sd_mmc_check+0x400>
  4006b6:	2314      	movs	r3, #20
  4006b8:	e004      	b.n	4006c4 <sd_mmc_check+0x400>
  4006ba:	2322      	movs	r3, #34	; 0x22
  4006bc:	e002      	b.n	4006c4 <sd_mmc_check+0x400>
  4006be:	2330      	movs	r3, #48	; 0x30
  4006c0:	e000      	b.n	4006c4 <sd_mmc_check+0x400>
  4006c2:	2340      	movs	r3, #64	; 0x40
  4006c4:	733b      	strb	r3, [r7, #12]
  4006c6:	2260      	movs	r2, #96	; 0x60
  4006c8:	2308      	movs	r3, #8
  4006ca:	2180      	movs	r1, #128	; 0x80
  4006cc:	4648      	mov	r0, r9
  4006ce:	f8df b144 	ldr.w	fp, [pc, #324]	; 400814 <sd_mmc_check+0x550>
  4006d2:	47c0      	blx	r8
  4006d4:	4b50      	ldr	r3, [pc, #320]	; (400818 <sd_mmc_check+0x554>)
  4006d6:	f3c0 01c3 	ubfx	r1, r0, #3, #4
  4006da:	f000 0007 	and.w	r0, r0, #7
  4006de:	f853 2020 	ldr.w	r2, [r3, r0, lsl #2]
  4006e2:	f44f 737a 	mov.w	r3, #1000	; 0x3e8
  4006e6:	4648      	mov	r0, r9
  4006e8:	4353      	muls	r3, r2
  4006ea:	4a4c      	ldr	r2, [pc, #304]	; (40081c <sd_mmc_check+0x558>)
  4006ec:	f852 2021 	ldr.w	r2, [r2, r1, lsl #2]
  4006f0:	2180      	movs	r1, #128	; 0x80
  4006f2:	4353      	muls	r3, r2
  4006f4:	223e      	movs	r2, #62	; 0x3e
  4006f6:	603b      	str	r3, [r7, #0]
  4006f8:	230c      	movs	r3, #12
  4006fa:	47c0      	blx	r8
  4006fc:	f640 73ff 	movw	r3, #4095	; 0xfff
  400700:	4606      	mov	r6, r0
  400702:	4298      	cmp	r0, r3
  400704:	d010      	beq.n	400728 <sd_mmc_check+0x464>
  400706:	2303      	movs	r3, #3
  400708:	222f      	movs	r2, #47	; 0x2f
  40070a:	2180      	movs	r1, #128	; 0x80
  40070c:	4648      	mov	r0, r9
  40070e:	47d8      	blx	fp
  400710:	3601      	adds	r6, #1
  400712:	3002      	adds	r0, #2
  400714:	2304      	movs	r3, #4
  400716:	2250      	movs	r2, #80	; 0x50
  400718:	2180      	movs	r1, #128	; 0x80
  40071a:	4086      	lsls	r6, r0
  40071c:	4648      	mov	r0, r9
  40071e:	47d8      	blx	fp
  400720:	fa06 f000 	lsl.w	r0, r6, r0
  400724:	0a86      	lsrs	r6, r0, #10
  400726:	607e      	str	r6, [r7, #4]
  400728:	8939      	ldrh	r1, [r7, #8]
  40072a:	f243 1007 	movw	r0, #12551	; 0x3107
  40072e:	0409      	lsls	r1, r1, #16
  400730:	47a8      	blx	r5
  400732:	2800      	cmp	r0, #0
  400734:	f000 80ad 	beq.w	400892 <sd_mmc_check+0x5ce>
  400738:	6823      	ldr	r3, [r4, #0]
  40073a:	7b1b      	ldrb	r3, [r3, #12]
  40073c:	2b3f      	cmp	r3, #63	; 0x3f
  40073e:	f240 8099 	bls.w	400874 <sd_mmc_check+0x5b0>
  400742:	2100      	movs	r1, #0
  400744:	2301      	movs	r3, #1
  400746:	f44f 7200 	mov.w	r2, #512	; 0x200
  40074a:	4835      	ldr	r0, [pc, #212]	; (400820 <sd_mmc_check+0x55c>)
  40074c:	9100      	str	r1, [sp, #0]
  40074e:	4e2b      	ldr	r6, [pc, #172]	; (4007fc <sd_mmc_check+0x538>)
  400750:	47b0      	blx	r6
  400752:	2800      	cmp	r0, #0
  400754:	f000 809d 	beq.w	400892 <sd_mmc_check+0x5ce>
  400758:	2632      	movs	r6, #50	; 0x32
  40075a:	4f32      	ldr	r7, [pc, #200]	; (400824 <sd_mmc_check+0x560>)
  40075c:	a803      	add	r0, sp, #12
  40075e:	f8df 90c4 	ldr.w	r9, [pc, #196]	; 400824 <sd_mmc_check+0x560>
  400762:	47b8      	blx	r7
  400764:	2800      	cmp	r0, #0
  400766:	f000 8094 	beq.w	400892 <sd_mmc_check+0x5ce>
  40076a:	3e01      	subs	r6, #1
  40076c:	b2b6      	uxth	r6, r6
  40076e:	2e00      	cmp	r6, #0
  400770:	d1f4      	bne.n	40075c <sd_mmc_check+0x498>
  400772:	6820      	ldr	r0, [r4, #0]
  400774:	230c      	movs	r3, #12
  400776:	223e      	movs	r2, #62	; 0x3e
  400778:	2180      	movs	r1, #128	; 0x80
  40077a:	300e      	adds	r0, #14
  40077c:	9f03      	ldr	r7, [sp, #12]
  40077e:	47c0      	blx	r8
  400780:	f640 73ff 	movw	r3, #4095	; 0xfff
  400784:	f007 0702 	and.w	r7, r7, #2
  400788:	4298      	cmp	r0, r3
  40078a:	b2ff      	uxtb	r7, r7
  40078c:	d10e      	bne.n	4007ac <sd_mmc_check+0x4e8>
  40078e:	2604      	movs	r6, #4
  400790:	a804      	add	r0, sp, #16
  400792:	47c8      	blx	r9
  400794:	2800      	cmp	r0, #0
  400796:	d07c      	beq.n	400892 <sd_mmc_check+0x5ce>
  400798:	3e01      	subs	r6, #1
  40079a:	b2b6      	uxth	r6, r6
  40079c:	2e00      	cmp	r6, #0
  40079e:	d1f7      	bne.n	400790 <sd_mmc_check+0x4cc>
  4007a0:	9b04      	ldr	r3, [sp, #16]
  4007a2:	2636      	movs	r6, #54	; 0x36
  4007a4:	6822      	ldr	r2, [r4, #0]
  4007a6:	085b      	lsrs	r3, r3, #1
  4007a8:	6053      	str	r3, [r2, #4]
  4007aa:	e000      	b.n	4007ae <sd_mmc_check+0x4ea>
  4007ac:	2632      	movs	r6, #50	; 0x32
  4007ae:	a804      	add	r0, sp, #16
  4007b0:	47c8      	blx	r9
  4007b2:	2800      	cmp	r0, #0
  4007b4:	d06d      	beq.n	400892 <sd_mmc_check+0x5ce>
  4007b6:	3601      	adds	r6, #1
  4007b8:	b2b6      	uxth	r6, r6
  4007ba:	2e80      	cmp	r6, #128	; 0x80
  4007bc:	d1f7      	bne.n	4007ae <sd_mmc_check+0x4ea>
  4007be:	f8df 8074 	ldr.w	r8, [pc, #116]	; 400834 <sd_mmc_check+0x570>
  4007c2:	4e19      	ldr	r6, [pc, #100]	; (400828 <sd_mmc_check+0x564>)
  4007c4:	f898 0000 	ldrb.w	r0, [r8]
  4007c8:	47b0      	blx	r6
  4007ca:	2803      	cmp	r0, #3
  4007cc:	d940      	bls.n	400850 <sd_mmc_check+0x58c>
  4007ce:	f898 0000 	ldrb.w	r0, [r8]
  4007d2:	47b0      	blx	r6
  4007d4:	2804      	cmp	r0, #4
  4007d6:	4606      	mov	r6, r0
  4007d8:	d02e      	beq.n	400838 <sd_mmc_check+0x574>
  4007da:	4914      	ldr	r1, [pc, #80]	; (40082c <sd_mmc_check+0x568>)
  4007dc:	4b14      	ldr	r3, [pc, #80]	; (400830 <sd_mmc_check+0x56c>)
  4007de:	2808      	cmp	r0, #8
  4007e0:	bf08      	it	eq
  4007e2:	4619      	moveq	r1, r3
  4007e4:	e029      	b.n	40083a <sd_mmc_check+0x576>
  4007e6:	bf00      	nop
  4007e8:	00400ca1 	.word	0x00400ca1
  4007ec:	20400460 	.word	0x20400460
  4007f0:	004001ed 	.word	0x004001ed
  4007f4:	00400c0f 	.word	0x00400c0f
  4007f8:	00402115 	.word	0x00402115
  4007fc:	00400cfd 	.word	0x00400cfd
  400800:	80ffff01 	.word	0x80ffff01
  400804:	00081106 	.word	0x00081106
  400808:	00400e01 	.word	0x00400e01
  40080c:	00400f21 	.word	0x00400f21
  400810:	00400279 	.word	0x00400279
  400814:	0040019d 	.word	0x0040019d
  400818:	004022dc 	.word	0x004022dc
  40081c:	004022f8 	.word	0x004022f8
  400820:	00081108 	.word	0x00081108
  400824:	00400da1 	.word	0x00400da1
  400828:	00400c05 	.word	0x00400c05
  40082c:	01b70000 	.word	0x01b70000
  400830:	01b70200 	.word	0x01b70200
  400834:	20400466 	.word	0x20400466
  400838:	491e      	ldr	r1, [pc, #120]	; (4008b4 <sd_mmc_check+0x5f0>)
  40083a:	f243 1006 	movw	r0, #12550	; 0x3106
  40083e:	47a8      	blx	r5
  400840:	b338      	cbz	r0, 400892 <sd_mmc_check+0x5ce>
  400842:	47d0      	blx	sl
  400844:	0600      	lsls	r0, r0, #24
  400846:	d424      	bmi.n	400892 <sd_mmc_check+0x5ce>
  400848:	6823      	ldr	r3, [r4, #0]
  40084a:	735e      	strb	r6, [r3, #13]
  40084c:	4b1a      	ldr	r3, [pc, #104]	; (4008b8 <sd_mmc_check+0x5f4>)
  40084e:	4798      	blx	r3
  400850:	4b1a      	ldr	r3, [pc, #104]	; (4008bc <sd_mmc_check+0x5f8>)
  400852:	4798      	blx	r3
  400854:	b180      	cbz	r0, 400878 <sd_mmc_check+0x5b4>
  400856:	b17f      	cbz	r7, 400878 <sd_mmc_check+0x5b4>
  400858:	4919      	ldr	r1, [pc, #100]	; (4008c0 <sd_mmc_check+0x5fc>)
  40085a:	f243 1006 	movw	r0, #12550	; 0x3106
  40085e:	47a8      	blx	r5
  400860:	b1b8      	cbz	r0, 400892 <sd_mmc_check+0x5ce>
  400862:	47d0      	blx	sl
  400864:	0601      	lsls	r1, r0, #24
  400866:	d414      	bmi.n	400892 <sd_mmc_check+0x5ce>
  400868:	4b16      	ldr	r3, [pc, #88]	; (4008c4 <sd_mmc_check+0x600>)
  40086a:	2201      	movs	r2, #1
  40086c:	681b      	ldr	r3, [r3, #0]
  40086e:	779a      	strb	r2, [r3, #30]
  400870:	4a15      	ldr	r2, [pc, #84]	; (4008c8 <sd_mmc_check+0x604>)
  400872:	601a      	str	r2, [r3, #0]
  400874:	4b10      	ldr	r3, [pc, #64]	; (4008b8 <sd_mmc_check+0x5f4>)
  400876:	4798      	blx	r3
  400878:	260b      	movs	r6, #11
  40087a:	3e01      	subs	r6, #1
  40087c:	f016 06ff 	ands.w	r6, r6, #255	; 0xff
  400880:	d007      	beq.n	400892 <sd_mmc_check+0x5ce>
  400882:	f44f 7100 	mov.w	r1, #512	; 0x200
  400886:	f241 1010 	movw	r0, #4368	; 0x1110
  40088a:	47a8      	blx	r5
  40088c:	2800      	cmp	r0, #0
  40088e:	d0f4      	beq.n	40087a <sd_mmc_check+0x5b6>
  400890:	e006      	b.n	4008a0 <sd_mmc_check+0x5dc>
  400892:	6823      	ldr	r3, [r4, #0]
  400894:	2603      	movs	r6, #3
  400896:	729e      	strb	r6, [r3, #10]
  400898:	4b0c      	ldr	r3, [pc, #48]	; (4008cc <sd_mmc_check+0x608>)
  40089a:	4798      	blx	r3
  40089c:	4630      	mov	r0, r6
  40089e:	e005      	b.n	4008ac <sd_mmc_check+0x5e8>
  4008a0:	6823      	ldr	r3, [r4, #0]
  4008a2:	2200      	movs	r2, #0
  4008a4:	729a      	strb	r2, [r3, #10]
  4008a6:	4b09      	ldr	r3, [pc, #36]	; (4008cc <sd_mmc_check+0x608>)
  4008a8:	4798      	blx	r3
  4008aa:	2001      	movs	r0, #1
  4008ac:	b015      	add	sp, #84	; 0x54
  4008ae:	e8bd 8ff0 	ldmia.w	sp!, {r4, r5, r6, r7, r8, r9, sl, fp, pc}
  4008b2:	bf00      	nop
  4008b4:	01b70100 	.word	0x01b70100
  4008b8:	004001ed 	.word	0x004001ed
  4008bc:	00400c0f 	.word	0x00400c0f
  4008c0:	03b90100 	.word	0x03b90100
  4008c4:	20400460 	.word	0x20400460
  4008c8:	03197500 	.word	0x03197500
  4008cc:	00400219 	.word	0x00400219

004008d0 <sd_mmc_get_type>:
  4008d0:	b508      	push	{r3, lr}
  4008d2:	4b05      	ldr	r3, [pc, #20]	; (4008e8 <sd_mmc_get_type+0x18>)
  4008d4:	4798      	blx	r3
  4008d6:	b928      	cbnz	r0, 4008e4 <sd_mmc_get_type+0x14>
  4008d8:	4b04      	ldr	r3, [pc, #16]	; (4008ec <sd_mmc_get_type+0x1c>)
  4008da:	4798      	blx	r3
  4008dc:	4b04      	ldr	r3, [pc, #16]	; (4008f0 <sd_mmc_get_type+0x20>)
  4008de:	681b      	ldr	r3, [r3, #0]
  4008e0:	7ad8      	ldrb	r0, [r3, #11]
  4008e2:	bd08      	pop	{r3, pc}
  4008e4:	2000      	movs	r0, #0
  4008e6:	bd08      	pop	{r3, pc}
  4008e8:	0040022d 	.word	0x0040022d
  4008ec:	00400219 	.word	0x00400219
  4008f0:	20400460 	.word	0x20400460

004008f4 <sd_mmc_get_capacity>:
  4008f4:	b508      	push	{r3, lr}
  4008f6:	4b05      	ldr	r3, [pc, #20]	; (40090c <sd_mmc_get_capacity+0x18>)
  4008f8:	4798      	blx	r3
  4008fa:	b928      	cbnz	r0, 400908 <sd_mmc_get_capacity+0x14>
  4008fc:	4b04      	ldr	r3, [pc, #16]	; (400910 <sd_mmc_get_capacity+0x1c>)
  4008fe:	4798      	blx	r3
  400900:	4b04      	ldr	r3, [pc, #16]	; (400914 <sd_mmc_get_capacity+0x20>)
  400902:	681b      	ldr	r3, [r3, #0]
  400904:	6858      	ldr	r0, [r3, #4]
  400906:	bd08      	pop	{r3, pc}
  400908:	2000      	movs	r0, #0
  40090a:	bd08      	pop	{r3, pc}
  40090c:	0040022d 	.word	0x0040022d
  400910:	00400219 	.word	0x00400219
  400914:	20400460 	.word	0x20400460

00400918 <sd_mmc_init_read_blocks>:
  400918:	e92d 43f7 	stmdb	sp!, {r0, r1, r2, r4, r5, r6, r7, r8, r9, lr}
  40091c:	4b1f      	ldr	r3, [pc, #124]	; (40099c <sd_mmc_init_read_blocks+0x84>)
  40091e:	460f      	mov	r7, r1
  400920:	4614      	mov	r4, r2
  400922:	4798      	blx	r3
  400924:	2800      	cmp	r0, #0
  400926:	d135      	bne.n	400994 <sd_mmc_init_read_blocks+0x7c>
  400928:	4d1d      	ldr	r5, [pc, #116]	; (4009a0 <sd_mmc_init_read_blocks+0x88>)
  40092a:	f8df 8084 	ldr.w	r8, [pc, #132]	; 4009b0 <sd_mmc_init_read_blocks+0x98>
  40092e:	f8df 9098 	ldr.w	r9, [pc, #152]	; 4009c8 <sd_mmc_init_read_blocks+0xb0>
  400932:	f8d8 3000 	ldr.w	r3, [r8]
  400936:	f241 100d 	movw	r0, #4365	; 0x110d
  40093a:	8919      	ldrh	r1, [r3, #8]
  40093c:	0409      	lsls	r1, r1, #16
  40093e:	47c8      	blx	r9
  400940:	b1d0      	cbz	r0, 400978 <sd_mmc_init_read_blocks+0x60>
  400942:	4e18      	ldr	r6, [pc, #96]	; (4009a4 <sd_mmc_init_read_blocks+0x8c>)
  400944:	47b0      	blx	r6
  400946:	05c2      	lsls	r2, r0, #23
  400948:	d402      	bmi.n	400950 <sd_mmc_init_read_blocks+0x38>
  40094a:	3d01      	subs	r5, #1
  40094c:	d1f1      	bne.n	400932 <sd_mmc_init_read_blocks+0x1a>
  40094e:	e013      	b.n	400978 <sd_mmc_init_read_blocks+0x60>
  400950:	4b15      	ldr	r3, [pc, #84]	; (4009a8 <sd_mmc_init_read_blocks+0x90>)
  400952:	4816      	ldr	r0, [pc, #88]	; (4009ac <sd_mmc_init_read_blocks+0x94>)
  400954:	2c01      	cmp	r4, #1
  400956:	bf88      	it	hi
  400958:	4618      	movhi	r0, r3
  40095a:	4b15      	ldr	r3, [pc, #84]	; (4009b0 <sd_mmc_init_read_blocks+0x98>)
  40095c:	681b      	ldr	r3, [r3, #0]
  40095e:	7adb      	ldrb	r3, [r3, #11]
  400960:	071b      	lsls	r3, r3, #28
  400962:	d400      	bmi.n	400966 <sd_mmc_init_read_blocks+0x4e>
  400964:	027f      	lsls	r7, r7, #9
  400966:	2301      	movs	r3, #1
  400968:	f44f 7200 	mov.w	r2, #512	; 0x200
  40096c:	4639      	mov	r1, r7
  40096e:	4d11      	ldr	r5, [pc, #68]	; (4009b4 <sd_mmc_init_read_blocks+0x9c>)
  400970:	9300      	str	r3, [sp, #0]
  400972:	4623      	mov	r3, r4
  400974:	47a8      	blx	r5
  400976:	b918      	cbnz	r0, 400980 <sd_mmc_init_read_blocks+0x68>
  400978:	4b0f      	ldr	r3, [pc, #60]	; (4009b8 <sd_mmc_init_read_blocks+0xa0>)
  40097a:	4798      	blx	r3
  40097c:	2005      	movs	r0, #5
  40097e:	e009      	b.n	400994 <sd_mmc_init_read_blocks+0x7c>
  400980:	47b0      	blx	r6
  400982:	4b0e      	ldr	r3, [pc, #56]	; (4009bc <sd_mmc_init_read_blocks+0xa4>)
  400984:	4003      	ands	r3, r0
  400986:	2b00      	cmp	r3, #0
  400988:	d1f6      	bne.n	400978 <sd_mmc_init_read_blocks+0x60>
  40098a:	4a0d      	ldr	r2, [pc, #52]	; (4009c0 <sd_mmc_init_read_blocks+0xa8>)
  40098c:	4618      	mov	r0, r3
  40098e:	8014      	strh	r4, [r2, #0]
  400990:	4a0c      	ldr	r2, [pc, #48]	; (4009c4 <sd_mmc_init_read_blocks+0xac>)
  400992:	8014      	strh	r4, [r2, #0]
  400994:	b003      	add	sp, #12
  400996:	e8bd 83f0 	ldmia.w	sp!, {r4, r5, r6, r7, r8, r9, pc}
  40099a:	bf00      	nop
  40099c:	0040022d 	.word	0x0040022d
  4009a0:	00030d41 	.word	0x00030d41
  4009a4:	00400cc9 	.word	0x00400cc9
  4009a8:	00101112 	.word	0x00101112
  4009ac:	00081111 	.word	0x00081111
  4009b0:	20400460 	.word	0x20400460
  4009b4:	00400cfd 	.word	0x00400cfd
  4009b8:	00400219 	.word	0x00400219
  4009bc:	e4580000 	.word	0xe4580000
  4009c0:	20400464 	.word	0x20400464
  4009c4:	2040045c 	.word	0x2040045c
  4009c8:	00400ca1 	.word	0x00400ca1

004009cc <sd_mmc_start_read_blocks>:
  4009cc:	b510      	push	{r4, lr}
  4009ce:	4b06      	ldr	r3, [pc, #24]	; (4009e8 <sd_mmc_start_read_blocks+0x1c>)
  4009d0:	460c      	mov	r4, r1
  4009d2:	4798      	blx	r3
  4009d4:	4b05      	ldr	r3, [pc, #20]	; (4009ec <sd_mmc_start_read_blocks+0x20>)
  4009d6:	b910      	cbnz	r0, 4009de <sd_mmc_start_read_blocks+0x12>
  4009d8:	8018      	strh	r0, [r3, #0]
  4009da:	2005      	movs	r0, #5
  4009dc:	bd10      	pop	{r4, pc}
  4009de:	8819      	ldrh	r1, [r3, #0]
  4009e0:	2000      	movs	r0, #0
  4009e2:	1b09      	subs	r1, r1, r4
  4009e4:	8019      	strh	r1, [r3, #0]
  4009e6:	bd10      	pop	{r4, pc}
  4009e8:	00400e01 	.word	0x00400e01
  4009ec:	20400464 	.word	0x20400464

004009f0 <sd_mmc_wait_end_of_read_blocks>:
  4009f0:	b510      	push	{r4, lr}
  4009f2:	4b10      	ldr	r3, [pc, #64]	; (400a34 <sd_mmc_wait_end_of_read_blocks+0x44>)
  4009f4:	4604      	mov	r4, r0
  4009f6:	4798      	blx	r3
  4009f8:	b1d0      	cbz	r0, 400a30 <sd_mmc_wait_end_of_read_blocks+0x40>
  4009fa:	4b0f      	ldr	r3, [pc, #60]	; (400a38 <sd_mmc_wait_end_of_read_blocks+0x48>)
  4009fc:	b114      	cbz	r4, 400a04 <sd_mmc_wait_end_of_read_blocks+0x14>
  4009fe:	2200      	movs	r2, #0
  400a00:	801a      	strh	r2, [r3, #0]
  400a02:	e001      	b.n	400a08 <sd_mmc_wait_end_of_read_blocks+0x18>
  400a04:	881b      	ldrh	r3, [r3, #0]
  400a06:	b92b      	cbnz	r3, 400a14 <sd_mmc_wait_end_of_read_blocks+0x24>
  400a08:	4b0c      	ldr	r3, [pc, #48]	; (400a3c <sd_mmc_wait_end_of_read_blocks+0x4c>)
  400a0a:	881b      	ldrh	r3, [r3, #0]
  400a0c:	2b01      	cmp	r3, #1
  400a0e:	d103      	bne.n	400a18 <sd_mmc_wait_end_of_read_blocks+0x28>
  400a10:	4b0b      	ldr	r3, [pc, #44]	; (400a40 <sd_mmc_wait_end_of_read_blocks+0x50>)
  400a12:	4798      	blx	r3
  400a14:	2000      	movs	r0, #0
  400a16:	bd10      	pop	{r4, pc}
  400a18:	2100      	movs	r1, #0
  400a1a:	f243 100c 	movw	r0, #12556	; 0x310c
  400a1e:	4c09      	ldr	r4, [pc, #36]	; (400a44 <sd_mmc_wait_end_of_read_blocks+0x54>)
  400a20:	47a0      	blx	r4
  400a22:	4601      	mov	r1, r0
  400a24:	2800      	cmp	r0, #0
  400a26:	d1f3      	bne.n	400a10 <sd_mmc_wait_end_of_read_blocks+0x20>
  400a28:	f243 100c 	movw	r0, #12556	; 0x310c
  400a2c:	47a0      	blx	r4
  400a2e:	e7ef      	b.n	400a10 <sd_mmc_wait_end_of_read_blocks+0x20>
  400a30:	2005      	movs	r0, #5
  400a32:	bd10      	pop	{r4, pc}
  400a34:	00400f21 	.word	0x00400f21
  400a38:	20400464 	.word	0x20400464
  400a3c:	2040045c 	.word	0x2040045c
  400a40:	00400219 	.word	0x00400219
  400a44:	00400ca1 	.word	0x00400ca1

00400a48 <sd_mmc_init_write_blocks>:
  400a48:	b537      	push	{r0, r1, r2, r4, r5, lr}
  400a4a:	4b15      	ldr	r3, [pc, #84]	; (400aa0 <sd_mmc_init_write_blocks+0x58>)
  400a4c:	460d      	mov	r5, r1
  400a4e:	4614      	mov	r4, r2
  400a50:	4798      	blx	r3
  400a52:	bb18      	cbnz	r0, 400a9c <sd_mmc_init_write_blocks+0x54>
  400a54:	4b13      	ldr	r3, [pc, #76]	; (400aa4 <sd_mmc_init_write_blocks+0x5c>)
  400a56:	f44f 7200 	mov.w	r2, #512	; 0x200
  400a5a:	4813      	ldr	r0, [pc, #76]	; (400aa8 <sd_mmc_init_write_blocks+0x60>)
  400a5c:	2c01      	cmp	r4, #1
  400a5e:	bf88      	it	hi
  400a60:	4618      	movhi	r0, r3
  400a62:	4b12      	ldr	r3, [pc, #72]	; (400aac <sd_mmc_init_write_blocks+0x64>)
  400a64:	681b      	ldr	r3, [r3, #0]
  400a66:	7adb      	ldrb	r3, [r3, #11]
  400a68:	071b      	lsls	r3, r3, #28
  400a6a:	f04f 0301 	mov.w	r3, #1
  400a6e:	bf58      	it	pl
  400a70:	026d      	lslpl	r5, r5, #9
  400a72:	9300      	str	r3, [sp, #0]
  400a74:	4623      	mov	r3, r4
  400a76:	4629      	mov	r1, r5
  400a78:	4d0d      	ldr	r5, [pc, #52]	; (400ab0 <sd_mmc_init_write_blocks+0x68>)
  400a7a:	47a8      	blx	r5
  400a7c:	b918      	cbnz	r0, 400a86 <sd_mmc_init_write_blocks+0x3e>
  400a7e:	4b0d      	ldr	r3, [pc, #52]	; (400ab4 <sd_mmc_init_write_blocks+0x6c>)
  400a80:	4798      	blx	r3
  400a82:	2005      	movs	r0, #5
  400a84:	e00a      	b.n	400a9c <sd_mmc_init_write_blocks+0x54>
  400a86:	4b0c      	ldr	r3, [pc, #48]	; (400ab8 <sd_mmc_init_write_blocks+0x70>)
  400a88:	4798      	blx	r3
  400a8a:	4b0c      	ldr	r3, [pc, #48]	; (400abc <sd_mmc_init_write_blocks+0x74>)
  400a8c:	4003      	ands	r3, r0
  400a8e:	2b00      	cmp	r3, #0
  400a90:	d1f5      	bne.n	400a7e <sd_mmc_init_write_blocks+0x36>
  400a92:	4a0b      	ldr	r2, [pc, #44]	; (400ac0 <sd_mmc_init_write_blocks+0x78>)
  400a94:	4618      	mov	r0, r3
  400a96:	8014      	strh	r4, [r2, #0]
  400a98:	4a0a      	ldr	r2, [pc, #40]	; (400ac4 <sd_mmc_init_write_blocks+0x7c>)
  400a9a:	8014      	strh	r4, [r2, #0]
  400a9c:	b003      	add	sp, #12
  400a9e:	bd30      	pop	{r4, r5, pc}
  400aa0:	0040022d 	.word	0x0040022d
  400aa4:	00109119 	.word	0x00109119
  400aa8:	00089118 	.word	0x00089118
  400aac:	20400460 	.word	0x20400460
  400ab0:	00400cfd 	.word	0x00400cfd
  400ab4:	00400219 	.word	0x00400219
  400ab8:	00400cc9 	.word	0x00400cc9
  400abc:	e4580000 	.word	0xe4580000
  400ac0:	20400464 	.word	0x20400464
  400ac4:	2040045c 	.word	0x2040045c

00400ac8 <sd_mmc_start_write_blocks>:
  400ac8:	b510      	push	{r4, lr}
  400aca:	4b06      	ldr	r3, [pc, #24]	; (400ae4 <sd_mmc_start_write_blocks+0x1c>)
  400acc:	460c      	mov	r4, r1
  400ace:	4798      	blx	r3
  400ad0:	4b05      	ldr	r3, [pc, #20]	; (400ae8 <sd_mmc_start_write_blocks+0x20>)
  400ad2:	b910      	cbnz	r0, 400ada <sd_mmc_start_write_blocks+0x12>
  400ad4:	8018      	strh	r0, [r3, #0]
  400ad6:	2005      	movs	r0, #5
  400ad8:	bd10      	pop	{r4, pc}
  400ada:	8819      	ldrh	r1, [r3, #0]
  400adc:	2000      	movs	r0, #0
  400ade:	1b09      	subs	r1, r1, r4
  400ae0:	8019      	strh	r1, [r3, #0]
  400ae2:	bd10      	pop	{r4, pc}
  400ae4:	00400e65 	.word	0x00400e65
  400ae8:	20400464 	.word	0x20400464

00400aec <sd_mmc_wait_end_of_write_blocks>:
  400aec:	b510      	push	{r4, lr}
  400aee:	4b0e      	ldr	r3, [pc, #56]	; (400b28 <sd_mmc_wait_end_of_write_blocks+0x3c>)
  400af0:	4604      	mov	r4, r0
  400af2:	4798      	blx	r3
  400af4:	b1b0      	cbz	r0, 400b24 <sd_mmc_wait_end_of_write_blocks+0x38>
  400af6:	4b0d      	ldr	r3, [pc, #52]	; (400b2c <sd_mmc_wait_end_of_write_blocks+0x40>)
  400af8:	b114      	cbz	r4, 400b00 <sd_mmc_wait_end_of_write_blocks+0x14>
  400afa:	2200      	movs	r2, #0
  400afc:	801a      	strh	r2, [r3, #0]
  400afe:	e001      	b.n	400b04 <sd_mmc_wait_end_of_write_blocks+0x18>
  400b00:	881b      	ldrh	r3, [r3, #0]
  400b02:	b92b      	cbnz	r3, 400b10 <sd_mmc_wait_end_of_write_blocks+0x24>
  400b04:	4b0a      	ldr	r3, [pc, #40]	; (400b30 <sd_mmc_wait_end_of_write_blocks+0x44>)
  400b06:	4c0b      	ldr	r4, [pc, #44]	; (400b34 <sd_mmc_wait_end_of_write_blocks+0x48>)
  400b08:	881b      	ldrh	r3, [r3, #0]
  400b0a:	2b01      	cmp	r3, #1
  400b0c:	d102      	bne.n	400b14 <sd_mmc_wait_end_of_write_blocks+0x28>
  400b0e:	47a0      	blx	r4
  400b10:	2000      	movs	r0, #0
  400b12:	bd10      	pop	{r4, pc}
  400b14:	2100      	movs	r1, #0
  400b16:	f243 100c 	movw	r0, #12556	; 0x310c
  400b1a:	4b07      	ldr	r3, [pc, #28]	; (400b38 <sd_mmc_wait_end_of_write_blocks+0x4c>)
  400b1c:	4798      	blx	r3
  400b1e:	2800      	cmp	r0, #0
  400b20:	d1f5      	bne.n	400b0e <sd_mmc_wait_end_of_write_blocks+0x22>
  400b22:	47a0      	blx	r4
  400b24:	2005      	movs	r0, #5
  400b26:	bd10      	pop	{r4, pc}
  400b28:	00400ec9 	.word	0x00400ec9
  400b2c:	20400464 	.word	0x20400464
  400b30:	2040045c 	.word	0x2040045c
  400b34:	00400219 	.word	0x00400219
  400b38:	00400ca1 	.word	0x00400ca1

00400b3c <hsmci_reset>:
  400b3c:	f04f 4380 	mov.w	r3, #1073741824	; 0x40000000
  400b40:	b570      	push	{r4, r5, r6, lr}
  400b42:	2680      	movs	r6, #128	; 0x80
  400b44:	685d      	ldr	r5, [r3, #4]
  400b46:	689c      	ldr	r4, [r3, #8]
  400b48:	68d8      	ldr	r0, [r3, #12]
  400b4a:	69d9      	ldr	r1, [r3, #28]
  400b4c:	6d5a      	ldr	r2, [r3, #84]	; 0x54
  400b4e:	601e      	str	r6, [r3, #0]
  400b50:	605d      	str	r5, [r3, #4]
  400b52:	609c      	str	r4, [r3, #8]
  400b54:	60d8      	str	r0, [r3, #12]
  400b56:	61d9      	str	r1, [r3, #28]
  400b58:	655a      	str	r2, [r3, #84]	; 0x54
  400b5a:	2200      	movs	r2, #0
  400b5c:	651a      	str	r2, [r3, #80]	; 0x50
  400b5e:	2205      	movs	r2, #5
  400b60:	601a      	str	r2, [r3, #0]
  400b62:	bd70      	pop	{r4, r5, r6, pc}

00400b64 <hsmci_send_cmd_execute>:
  400b64:	b508      	push	{r3, lr}
  400b66:	f001 033f 	and.w	r3, r1, #63	; 0x3f
  400b6a:	4318      	orrs	r0, r3
  400b6c:	05cb      	lsls	r3, r1, #23
  400b6e:	d50a      	bpl.n	400b86 <hsmci_send_cmd_execute+0x22>
  400b70:	050b      	lsls	r3, r1, #20
  400b72:	d502      	bpl.n	400b7a <hsmci_send_cmd_execute+0x16>
  400b74:	f440 5084 	orr.w	r0, r0, #4224	; 0x1080
  400b78:	e005      	b.n	400b86 <hsmci_send_cmd_execute+0x22>
  400b7a:	048b      	lsls	r3, r1, #18
  400b7c:	bf4c      	ite	mi
  400b7e:	f440 5086 	orrmi.w	r0, r0, #4288	; 0x10c0
  400b82:	f440 5082 	orrpl.w	r0, r0, #4160	; 0x1040
  400b86:	044b      	lsls	r3, r1, #17
  400b88:	f04f 4380 	mov.w	r3, #1073741824	; 0x40000000
  400b8c:	bf48      	it	mi
  400b8e:	f440 6000 	orrmi.w	r0, r0, #2048	; 0x800
  400b92:	611a      	str	r2, [r3, #16]
  400b94:	6158      	str	r0, [r3, #20]
  400b96:	f401 5080 	and.w	r0, r1, #4096	; 0x1000
  400b9a:	6c1a      	ldr	r2, [r3, #64]	; 0x40
  400b9c:	b130      	cbz	r0, 400bac <hsmci_send_cmd_execute+0x48>
  400b9e:	f412 0f1f 	tst.w	r2, #10420224	; 0x9f0000
  400ba2:	d006      	beq.n	400bb2 <hsmci_send_cmd_execute+0x4e>
  400ba4:	4b0b      	ldr	r3, [pc, #44]	; (400bd4 <hsmci_send_cmd_execute+0x70>)
  400ba6:	4798      	blx	r3
  400ba8:	2000      	movs	r0, #0
  400baa:	bd08      	pop	{r3, pc}
  400bac:	f412 0f1b 	tst.w	r2, #10158080	; 0x9b0000
  400bb0:	e7f7      	b.n	400ba2 <hsmci_send_cmd_execute+0x3e>
  400bb2:	07d2      	lsls	r2, r2, #31
  400bb4:	d5f1      	bpl.n	400b9a <hsmci_send_cmd_execute+0x36>
  400bb6:	048b      	lsls	r3, r1, #18
  400bb8:	d50a      	bpl.n	400bd0 <hsmci_send_cmd_execute+0x6c>
  400bba:	2200      	movs	r2, #0
  400bbc:	f04f 4180 	mov.w	r1, #1073741824	; 0x40000000
  400bc0:	1c50      	adds	r0, r2, #1
  400bc2:	6c0b      	ldr	r3, [r1, #64]	; 0x40
  400bc4:	d0ee      	beq.n	400ba4 <hsmci_send_cmd_execute+0x40>
  400bc6:	f003 0330 	and.w	r3, r3, #48	; 0x30
  400bca:	3201      	adds	r2, #1
  400bcc:	2b20      	cmp	r3, #32
  400bce:	d1f7      	bne.n	400bc0 <hsmci_send_cmd_execute+0x5c>
  400bd0:	2001      	movs	r0, #1
  400bd2:	bd08      	pop	{r3, pc}
  400bd4:	00400b3d 	.word	0x00400b3d

00400bd8 <hsmci_init>:
  400bd8:	b510      	push	{r4, lr}
  400bda:	2012      	movs	r0, #18
  400bdc:	4c08      	ldr	r4, [pc, #32]	; (400c00 <hsmci_init+0x28>)
  400bde:	47a0      	blx	r4
  400be0:	203a      	movs	r0, #58	; 0x3a
  400be2:	47a0      	blx	r4
  400be4:	f04f 4380 	mov.w	r3, #1073741824	; 0x40000000
  400be8:	2272      	movs	r2, #114	; 0x72
  400bea:	609a      	str	r2, [r3, #8]
  400bec:	61da      	str	r2, [r3, #28]
  400bee:	2211      	movs	r2, #17
  400bf0:	655a      	str	r2, [r3, #84]	; 0x54
  400bf2:	f44f 62e0 	mov.w	r2, #1792	; 0x700
  400bf6:	605a      	str	r2, [r3, #4]
  400bf8:	2205      	movs	r2, #5
  400bfa:	601a      	str	r2, [r3, #0]
  400bfc:	bd10      	pop	{r4, pc}
  400bfe:	bf00      	nop
  400c00:	00401335 	.word	0x00401335

00400c04 <hsmci_get_bus_width>:
  400c04:	2800      	cmp	r0, #0
  400c06:	bf0c      	ite	eq
  400c08:	2004      	moveq	r0, #4
  400c0a:	2000      	movne	r0, #0
  400c0c:	4770      	bx	lr

00400c0e <hsmci_is_high_speed_capable>:
  400c0e:	2001      	movs	r0, #1
  400c10:	4770      	bx	lr
	...

00400c14 <hsmci_select_device>:
  400c14:	f04f 4080 	mov.w	r0, #1073741824	; 0x40000000
  400c18:	b11b      	cbz	r3, 400c22 <hsmci_select_device+0xe>
  400c1a:	6d43      	ldr	r3, [r0, #84]	; 0x54
  400c1c:	f443 7380 	orr.w	r3, r3, #256	; 0x100
  400c20:	e002      	b.n	400c28 <hsmci_select_device+0x14>
  400c22:	6d43      	ldr	r3, [r0, #84]	; 0x54
  400c24:	f423 7380 	bic.w	r3, r3, #256	; 0x100
  400c28:	6543      	str	r3, [r0, #84]	; 0x54
  400c2a:	0049      	lsls	r1, r1, #1
  400c2c:	4b12      	ldr	r3, [pc, #72]	; (400c78 <hsmci_select_device+0x64>)
  400c2e:	4299      	cmp	r1, r3
  400c30:	d80b      	bhi.n	400c4a <hsmci_select_device+0x36>
  400c32:	3301      	adds	r3, #1
  400c34:	4811      	ldr	r0, [pc, #68]	; (400c7c <hsmci_select_device+0x68>)
  400c36:	fbb3 f3f1 	udiv	r3, r3, r1
  400c3a:	4359      	muls	r1, r3
  400c3c:	1a40      	subs	r0, r0, r1
  400c3e:	b108      	cbz	r0, 400c44 <hsmci_select_device+0x30>
  400c40:	3301      	adds	r3, #1
  400c42:	e000      	b.n	400c46 <hsmci_select_device+0x32>
  400c44:	b113      	cbz	r3, 400c4c <hsmci_select_device+0x38>
  400c46:	3b01      	subs	r3, #1
  400c48:	e000      	b.n	400c4c <hsmci_select_device+0x38>
  400c4a:	2300      	movs	r3, #0
  400c4c:	f04f 4180 	mov.w	r1, #1073741824	; 0x40000000
  400c50:	b2db      	uxtb	r3, r3
  400c52:	2a04      	cmp	r2, #4
  400c54:	6848      	ldr	r0, [r1, #4]
  400c56:	f020 00ff 	bic.w	r0, r0, #255	; 0xff
  400c5a:	6048      	str	r0, [r1, #4]
  400c5c:	6848      	ldr	r0, [r1, #4]
  400c5e:	ea43 0300 	orr.w	r3, r3, r0
  400c62:	604b      	str	r3, [r1, #4]
  400c64:	d004      	beq.n	400c70 <hsmci_select_device+0x5c>
  400c66:	2a08      	cmp	r2, #8
  400c68:	bf0c      	ite	eq
  400c6a:	23c0      	moveq	r3, #192	; 0xc0
  400c6c:	2300      	movne	r3, #0
  400c6e:	e000      	b.n	400c72 <hsmci_select_device+0x5e>
  400c70:	2380      	movs	r3, #128	; 0x80
  400c72:	60cb      	str	r3, [r1, #12]
  400c74:	4770      	bx	lr
  400c76:	bf00      	nop
  400c78:	089543ff 	.word	0x089543ff
  400c7c:	08954400 	.word	0x08954400

00400c80 <hsmci_deselect_device>:
  400c80:	4770      	bx	lr

00400c82 <hsmci_send_clock>:
  400c82:	f04f 4380 	mov.w	r3, #1073741824	; 0x40000000
  400c86:	685a      	ldr	r2, [r3, #4]
  400c88:	f422 5260 	bic.w	r2, r2, #14336	; 0x3800
  400c8c:	605a      	str	r2, [r3, #4]
  400c8e:	2200      	movs	r2, #0
  400c90:	611a      	str	r2, [r3, #16]
  400c92:	f44f 6210 	mov.w	r2, #2304	; 0x900
  400c96:	615a      	str	r2, [r3, #20]
  400c98:	6c1a      	ldr	r2, [r3, #64]	; 0x40
  400c9a:	07d2      	lsls	r2, r2, #31
  400c9c:	d5fc      	bpl.n	400c98 <hsmci_send_clock+0x16>
  400c9e:	4770      	bx	lr

00400ca0 <hsmci_send_cmd>:
  400ca0:	f04f 4380 	mov.w	r3, #1073741824	; 0x40000000
  400ca4:	b410      	push	{r4}
  400ca6:	685a      	ldr	r2, [r3, #4]
  400ca8:	2400      	movs	r4, #0
  400caa:	f422 5260 	bic.w	r2, r2, #14336	; 0x3800
  400cae:	605a      	str	r2, [r3, #4]
  400cb0:	460a      	mov	r2, r1
  400cb2:	651c      	str	r4, [r3, #80]	; 0x50
  400cb4:	4601      	mov	r1, r0
  400cb6:	619c      	str	r4, [r3, #24]
  400cb8:	4620      	mov	r0, r4
  400cba:	4b02      	ldr	r3, [pc, #8]	; (400cc4 <hsmci_send_cmd+0x24>)
  400cbc:	f85d 4b04 	ldr.w	r4, [sp], #4
  400cc0:	4718      	bx	r3
  400cc2:	bf00      	nop
  400cc4:	00400b65 	.word	0x00400b65

00400cc8 <hsmci_get_response>:
  400cc8:	f04f 4380 	mov.w	r3, #1073741824	; 0x40000000
  400ccc:	6a18      	ldr	r0, [r3, #32]
  400cce:	4770      	bx	lr

00400cd0 <hsmci_get_response_128>:
  400cd0:	b510      	push	{r4, lr}
  400cd2:	1d03      	adds	r3, r0, #4
  400cd4:	f04f 4480 	mov.w	r4, #1073741824	; 0x40000000
  400cd8:	3014      	adds	r0, #20
  400cda:	6a22      	ldr	r2, [r4, #32]
  400cdc:	3304      	adds	r3, #4
  400cde:	0e11      	lsrs	r1, r2, #24
  400ce0:	f803 2c05 	strb.w	r2, [r3, #-5]
  400ce4:	f803 1c08 	strb.w	r1, [r3, #-8]
  400ce8:	0c11      	lsrs	r1, r2, #16
  400cea:	f803 1c07 	strb.w	r1, [r3, #-7]
  400cee:	0a11      	lsrs	r1, r2, #8
  400cf0:	f803 1c06 	strb.w	r1, [r3, #-6]
  400cf4:	4283      	cmp	r3, r0
  400cf6:	d1f0      	bne.n	400cda <hsmci_get_response_128+0xa>
  400cf8:	bd10      	pop	{r4, pc}
	...

00400cfc <hsmci_adtc_start>:
  400cfc:	b470      	push	{r4, r5, r6}
  400cfe:	4604      	mov	r4, r0
  400d00:	f89d 000c 	ldrb.w	r0, [sp, #12]
  400d04:	f04f 4580 	mov.w	r5, #1073741824	; 0x40000000
  400d08:	b108      	cbz	r0, 400d0e <hsmci_adtc_start+0x12>
  400d0a:	f44f 7080 	mov.w	r0, #256	; 0x100
  400d0e:	6528      	str	r0, [r5, #80]	; 0x50
  400d10:	f04f 4080 	mov.w	r0, #1073741824	; 0x40000000
  400d14:	686e      	ldr	r6, [r5, #4]
  400d16:	f446 56c0 	orr.w	r6, r6, #6144	; 0x1800
  400d1a:	606e      	str	r6, [r5, #4]
  400d1c:	0796      	lsls	r6, r2, #30
  400d1e:	6845      	ldr	r5, [r0, #4]
  400d20:	bf14      	ite	ne
  400d22:	f445 5500 	orrne.w	r5, r5, #8192	; 0x2000
  400d26:	f425 5500 	biceq.w	r5, r5, #8192	; 0x2000
  400d2a:	f414 4f00 	tst.w	r4, #32768	; 0x8000
  400d2e:	6045      	str	r5, [r0, #4]
  400d30:	f04f 4580 	mov.w	r5, #1073741824	; 0x40000000
  400d34:	bf14      	ite	ne
  400d36:	f44f 3080 	movne.w	r0, #65536	; 0x10000
  400d3a:	f44f 20a0 	moveq.w	r0, #327680	; 0x50000
  400d3e:	f414 3f80 	tst.w	r4, #65536	; 0x10000
  400d42:	d005      	beq.n	400d50 <hsmci_adtc_start+0x54>
  400d44:	f3c2 0608 	ubfx	r6, r2, #0, #9
  400d48:	f440 1000 	orr.w	r0, r0, #2097152	; 0x200000
  400d4c:	61ae      	str	r6, [r5, #24]
  400d4e:	e012      	b.n	400d76 <hsmci_adtc_start+0x7a>
  400d50:	ea43 4602 	orr.w	r6, r3, r2, lsl #16
  400d54:	61ae      	str	r6, [r5, #24]
  400d56:	03a6      	lsls	r6, r4, #14
  400d58:	d502      	bpl.n	400d60 <hsmci_adtc_start+0x64>
  400d5a:	f440 1020 	orr.w	r0, r0, #2621440	; 0x280000
  400d5e:	e00a      	b.n	400d76 <hsmci_adtc_start+0x7a>
  400d60:	0365      	lsls	r5, r4, #13
  400d62:	d502      	bpl.n	400d6a <hsmci_adtc_start+0x6e>
  400d64:	f440 1080 	orr.w	r0, r0, #1048576	; 0x100000
  400d68:	e005      	b.n	400d76 <hsmci_adtc_start+0x7a>
  400d6a:	0326      	lsls	r6, r4, #12
  400d6c:	d403      	bmi.n	400d76 <hsmci_adtc_start+0x7a>
  400d6e:	02e5      	lsls	r5, r4, #11
  400d70:	bf48      	it	mi
  400d72:	f440 2000 	orrmi.w	r0, r0, #524288	; 0x80000
  400d76:	2600      	movs	r6, #0
  400d78:	4d05      	ldr	r5, [pc, #20]	; (400d90 <hsmci_adtc_start+0x94>)
  400d7a:	602e      	str	r6, [r5, #0]
  400d7c:	4d05      	ldr	r5, [pc, #20]	; (400d94 <hsmci_adtc_start+0x98>)
  400d7e:	802a      	strh	r2, [r5, #0]
  400d80:	4a05      	ldr	r2, [pc, #20]	; (400d98 <hsmci_adtc_start+0x9c>)
  400d82:	8013      	strh	r3, [r2, #0]
  400d84:	460a      	mov	r2, r1
  400d86:	4b05      	ldr	r3, [pc, #20]	; (400d9c <hsmci_adtc_start+0xa0>)
  400d88:	4621      	mov	r1, r4
  400d8a:	bc70      	pop	{r4, r5, r6}
  400d8c:	4718      	bx	r3
  400d8e:	bf00      	nop
  400d90:	2040048c 	.word	0x2040048c
  400d94:	20400488 	.word	0x20400488
  400d98:	2040048a 	.word	0x2040048a
  400d9c:	00400b65 	.word	0x00400b65

00400da0 <hsmci_read_word>:
  400da0:	b510      	push	{r4, lr}
  400da2:	f04f 4480 	mov.w	r4, #1073741824	; 0x40000000
  400da6:	6c21      	ldr	r1, [r4, #64]	; 0x40
  400da8:	f04f 4380 	mov.w	r3, #1073741824	; 0x40000000
  400dac:	4a0f      	ldr	r2, [pc, #60]	; (400dec <hsmci_read_word+0x4c>)
  400dae:	400a      	ands	r2, r1
  400db0:	b11a      	cbz	r2, 400dba <hsmci_read_word+0x1a>
  400db2:	4b0f      	ldr	r3, [pc, #60]	; (400df0 <hsmci_read_word+0x50>)
  400db4:	4798      	blx	r3
  400db6:	2000      	movs	r0, #0
  400db8:	bd10      	pop	{r4, pc}
  400dba:	0789      	lsls	r1, r1, #30
  400dbc:	d5f3      	bpl.n	400da6 <hsmci_read_word+0x6>
  400dbe:	6b1a      	ldr	r2, [r3, #48]	; 0x30
  400dc0:	490c      	ldr	r1, [pc, #48]	; (400df4 <hsmci_read_word+0x54>)
  400dc2:	6002      	str	r2, [r0, #0]
  400dc4:	680a      	ldr	r2, [r1, #0]
  400dc6:	3204      	adds	r2, #4
  400dc8:	600a      	str	r2, [r1, #0]
  400dca:	490b      	ldr	r1, [pc, #44]	; (400df8 <hsmci_read_word+0x58>)
  400dcc:	8808      	ldrh	r0, [r1, #0]
  400dce:	490b      	ldr	r1, [pc, #44]	; (400dfc <hsmci_read_word+0x5c>)
  400dd0:	8809      	ldrh	r1, [r1, #0]
  400dd2:	4341      	muls	r1, r0
  400dd4:	428a      	cmp	r2, r1
  400dd6:	d306      	bcc.n	400de6 <hsmci_read_word+0x46>
  400dd8:	6c19      	ldr	r1, [r3, #64]	; 0x40
  400dda:	4a04      	ldr	r2, [pc, #16]	; (400dec <hsmci_read_word+0x4c>)
  400ddc:	400a      	ands	r2, r1
  400dde:	2a00      	cmp	r2, #0
  400de0:	d1e7      	bne.n	400db2 <hsmci_read_word+0x12>
  400de2:	010a      	lsls	r2, r1, #4
  400de4:	d5f8      	bpl.n	400dd8 <hsmci_read_word+0x38>
  400de6:	2001      	movs	r0, #1
  400de8:	bd10      	pop	{r4, pc}
  400dea:	bf00      	nop
  400dec:	c0600000 	.word	0xc0600000
  400df0:	00400b3d 	.word	0x00400b3d
  400df4:	2040048c 	.word	0x2040048c
  400df8:	20400488 	.word	0x20400488
  400dfc:	2040048a 	.word	0x2040048a

00400e00 <hsmci_start_read_blocks>:
  400e00:	b5f0      	push	{r4, r5, r6, r7, lr}
  400e02:	b089      	sub	sp, #36	; 0x24
  400e04:	4607      	mov	r7, r0
  400e06:	460c      	mov	r4, r1
  400e08:	2220      	movs	r2, #32
  400e0a:	2100      	movs	r1, #0
  400e0c:	4668      	mov	r0, sp
  400e0e:	4b0e      	ldr	r3, [pc, #56]	; (400e48 <hsmci_start_read_blocks+0x48>)
  400e10:	2501      	movs	r5, #1
  400e12:	4798      	blx	r3
  400e14:	4e0d      	ldr	r6, [pc, #52]	; (400e4c <hsmci_start_read_blocks+0x4c>)
  400e16:	4b0e      	ldr	r3, [pc, #56]	; (400e50 <hsmci_start_read_blocks+0x50>)
  400e18:	466a      	mov	r2, sp
  400e1a:	6235      	str	r5, [r6, #32]
  400e1c:	4630      	mov	r0, r6
  400e1e:	881b      	ldrh	r3, [r3, #0]
  400e20:	2100      	movs	r1, #0
  400e22:	9702      	str	r7, [sp, #8]
  400e24:	435c      	muls	r4, r3
  400e26:	4b0b      	ldr	r3, [pc, #44]	; (400e54 <hsmci_start_read_blocks+0x54>)
  400e28:	9303      	str	r3, [sp, #12]
  400e2a:	08a3      	lsrs	r3, r4, #2
  400e2c:	9300      	str	r3, [sp, #0]
  400e2e:	4b0a      	ldr	r3, [pc, #40]	; (400e58 <hsmci_start_read_blocks+0x58>)
  400e30:	9301      	str	r3, [sp, #4]
  400e32:	4b0a      	ldr	r3, [pc, #40]	; (400e5c <hsmci_start_read_blocks+0x5c>)
  400e34:	4798      	blx	r3
  400e36:	4b0a      	ldr	r3, [pc, #40]	; (400e60 <hsmci_start_read_blocks+0x60>)
  400e38:	61f5      	str	r5, [r6, #28]
  400e3a:	4628      	mov	r0, r5
  400e3c:	681a      	ldr	r2, [r3, #0]
  400e3e:	4414      	add	r4, r2
  400e40:	601c      	str	r4, [r3, #0]
  400e42:	b009      	add	sp, #36	; 0x24
  400e44:	bdf0      	pop	{r4, r5, r6, r7, pc}
  400e46:	bf00      	nop
  400e48:	00402115 	.word	0x00402115
  400e4c:	40078000 	.word	0x40078000
  400e50:	20400488 	.word	0x20400488
  400e54:	00043001 	.word	0x00043001
  400e58:	40000200 	.word	0x40000200
  400e5c:	00401375 	.word	0x00401375
  400e60:	2040048c 	.word	0x2040048c

00400e64 <hsmci_start_write_blocks>:
  400e64:	b5f0      	push	{r4, r5, r6, r7, lr}
  400e66:	b089      	sub	sp, #36	; 0x24
  400e68:	4607      	mov	r7, r0
  400e6a:	460c      	mov	r4, r1
  400e6c:	2220      	movs	r2, #32
  400e6e:	2100      	movs	r1, #0
  400e70:	4668      	mov	r0, sp
  400e72:	4b0e      	ldr	r3, [pc, #56]	; (400eac <hsmci_start_write_blocks+0x48>)
  400e74:	2501      	movs	r5, #1
  400e76:	4798      	blx	r3
  400e78:	4e0d      	ldr	r6, [pc, #52]	; (400eb0 <hsmci_start_write_blocks+0x4c>)
  400e7a:	4b0e      	ldr	r3, [pc, #56]	; (400eb4 <hsmci_start_write_blocks+0x50>)
  400e7c:	466a      	mov	r2, sp
  400e7e:	6235      	str	r5, [r6, #32]
  400e80:	4630      	mov	r0, r6
  400e82:	881b      	ldrh	r3, [r3, #0]
  400e84:	2100      	movs	r1, #0
  400e86:	435c      	muls	r4, r3
  400e88:	4b0b      	ldr	r3, [pc, #44]	; (400eb8 <hsmci_start_write_blocks+0x54>)
  400e8a:	9303      	str	r3, [sp, #12]
  400e8c:	08a3      	lsrs	r3, r4, #2
  400e8e:	e88d 0088 	stmia.w	sp, {r3, r7}
  400e92:	4b0a      	ldr	r3, [pc, #40]	; (400ebc <hsmci_start_write_blocks+0x58>)
  400e94:	9302      	str	r3, [sp, #8]
  400e96:	4b0a      	ldr	r3, [pc, #40]	; (400ec0 <hsmci_start_write_blocks+0x5c>)
  400e98:	4798      	blx	r3
  400e9a:	4b0a      	ldr	r3, [pc, #40]	; (400ec4 <hsmci_start_write_blocks+0x60>)
  400e9c:	61f5      	str	r5, [r6, #28]
  400e9e:	4628      	mov	r0, r5
  400ea0:	681a      	ldr	r2, [r3, #0]
  400ea2:	4414      	add	r4, r2
  400ea4:	601c      	str	r4, [r3, #0]
  400ea6:	b009      	add	sp, #36	; 0x24
  400ea8:	bdf0      	pop	{r4, r5, r6, r7, pc}
  400eaa:	bf00      	nop
  400eac:	00402115 	.word	0x00402115
  400eb0:	40078000 	.word	0x40078000
  400eb4:	20400488 	.word	0x20400488
  400eb8:	00015011 	.word	0x00015011
  400ebc:	40000200 	.word	0x40000200
  400ec0:	00401375 	.word	0x00401375
  400ec4:	2040048c 	.word	0x2040048c

00400ec8 <hsmci_wait_end_of_write_blocks>:
  400ec8:	b538      	push	{r3, r4, r5, lr}
  400eca:	4b0f      	ldr	r3, [pc, #60]	; (400f08 <hsmci_wait_end_of_write_blocks+0x40>)
  400ecc:	f04f 4480 	mov.w	r4, #1073741824	; 0x40000000
  400ed0:	4d0e      	ldr	r5, [pc, #56]	; (400f0c <hsmci_wait_end_of_write_blocks+0x44>)
  400ed2:	881a      	ldrh	r2, [r3, #0]
  400ed4:	4b0e      	ldr	r3, [pc, #56]	; (400f10 <hsmci_wait_end_of_write_blocks+0x48>)
  400ed6:	881b      	ldrh	r3, [r3, #0]
  400ed8:	4353      	muls	r3, r2
  400eda:	4a0e      	ldr	r2, [pc, #56]	; (400f14 <hsmci_wait_end_of_write_blocks+0x4c>)
  400edc:	6810      	ldr	r0, [r2, #0]
  400ede:	6c21      	ldr	r1, [r4, #64]	; 0x40
  400ee0:	4a0d      	ldr	r2, [pc, #52]	; (400f18 <hsmci_wait_end_of_write_blocks+0x50>)
  400ee2:	400a      	ands	r2, r1
  400ee4:	b132      	cbz	r2, 400ef4 <hsmci_wait_end_of_write_blocks+0x2c>
  400ee6:	4b0d      	ldr	r3, [pc, #52]	; (400f1c <hsmci_wait_end_of_write_blocks+0x54>)
  400ee8:	4798      	blx	r3
  400eea:	2201      	movs	r2, #1
  400eec:	4b07      	ldr	r3, [pc, #28]	; (400f0c <hsmci_wait_end_of_write_blocks+0x44>)
  400eee:	2000      	movs	r0, #0
  400ef0:	621a      	str	r2, [r3, #32]
  400ef2:	bd38      	pop	{r3, r4, r5, pc}
  400ef4:	4283      	cmp	r3, r0
  400ef6:	d902      	bls.n	400efe <hsmci_wait_end_of_write_blocks+0x36>
  400ef8:	6dea      	ldr	r2, [r5, #92]	; 0x5c
  400efa:	07d2      	lsls	r2, r2, #31
  400efc:	d401      	bmi.n	400f02 <hsmci_wait_end_of_write_blocks+0x3a>
  400efe:	010a      	lsls	r2, r1, #4
  400f00:	d5ed      	bpl.n	400ede <hsmci_wait_end_of_write_blocks+0x16>
  400f02:	2001      	movs	r0, #1
  400f04:	bd38      	pop	{r3, r4, r5, pc}
  400f06:	bf00      	nop
  400f08:	20400488 	.word	0x20400488
  400f0c:	40078000 	.word	0x40078000
  400f10:	2040048a 	.word	0x2040048a
  400f14:	2040048c 	.word	0x2040048c
  400f18:	c0600000 	.word	0xc0600000
  400f1c:	00400b3d 	.word	0x00400b3d

00400f20 <hsmci_wait_end_of_read_blocks>:
  400f20:	4b00      	ldr	r3, [pc, #0]	; (400f24 <hsmci_wait_end_of_read_blocks+0x4>)
  400f22:	4718      	bx	r3
  400f24:	00400ec9 	.word	0x00400ec9

00400f28 <matrix_set_system_io>:
  400f28:	4a06      	ldr	r2, [pc, #24]	; (400f44 <matrix_set_system_io+0x1c>)
  400f2a:	b280      	uxth	r0, r0
  400f2c:	f8d2 3114 	ldr.w	r3, [r2, #276]	; 0x114
  400f30:	0c1b      	lsrs	r3, r3, #16
  400f32:	041b      	lsls	r3, r3, #16
  400f34:	f8c2 3114 	str.w	r3, [r2, #276]	; 0x114
  400f38:	f8d2 3114 	ldr.w	r3, [r2, #276]	; 0x114
  400f3c:	4303      	orrs	r3, r0
  400f3e:	f8c2 3114 	str.w	r3, [r2, #276]	; 0x114
  400f42:	4770      	bx	lr
  400f44:	40088000 	.word	0x40088000

00400f48 <matrix_get_system_io>:
  400f48:	4b02      	ldr	r3, [pc, #8]	; (400f54 <matrix_get_system_io+0xc>)
  400f4a:	f8d3 0114 	ldr.w	r0, [r3, #276]	; 0x114
  400f4e:	b280      	uxth	r0, r0
  400f50:	4770      	bx	lr
  400f52:	bf00      	nop
  400f54:	40088000 	.word	0x40088000

00400f58 <pwm_clocks_generate>:
  400f58:	b5f0      	push	{r4, r5, r6, r7, lr}
  400f5a:	4d11      	ldr	r5, [pc, #68]	; (400fa0 <pwm_clocks_generate+0x48>)
  400f5c:	b08d      	sub	sp, #52	; 0x34
  400f5e:	4606      	mov	r6, r0
  400f60:	460f      	mov	r7, r1
  400f62:	ac01      	add	r4, sp, #4
  400f64:	cd0f      	ldmia	r5!, {r0, r1, r2, r3}
  400f66:	c40f      	stmia	r4!, {r0, r1, r2, r3}
  400f68:	cd0f      	ldmia	r5!, {r0, r1, r2, r3}
  400f6a:	c40f      	stmia	r4!, {r0, r1, r2, r3}
  400f6c:	e895 0007 	ldmia.w	r5, {r0, r1, r2}
  400f70:	e884 0007 	stmia.w	r4, {r0, r1, r2}
  400f74:	2200      	movs	r2, #0
  400f76:	a901      	add	r1, sp, #4
  400f78:	f851 3022 	ldr.w	r3, [r1, r2, lsl #2]
  400f7c:	fbb7 f0f3 	udiv	r0, r7, r3
  400f80:	fbb0 f0f6 	udiv	r0, r0, r6
  400f84:	f5b0 7f80 	cmp.w	r0, #256	; 0x100
  400f88:	d905      	bls.n	400f96 <pwm_clocks_generate+0x3e>
  400f8a:	3201      	adds	r2, #1
  400f8c:	2a0b      	cmp	r2, #11
  400f8e:	d1f3      	bne.n	400f78 <pwm_clocks_generate+0x20>
  400f90:	f64f 70ff 	movw	r0, #65535	; 0xffff
  400f94:	e001      	b.n	400f9a <pwm_clocks_generate+0x42>
  400f96:	ea40 2002 	orr.w	r0, r0, r2, lsl #8
  400f9a:	b00d      	add	sp, #52	; 0x34
  400f9c:	bdf0      	pop	{r4, r5, r6, r7, pc}
  400f9e:	bf00      	nop
  400fa0:	00402338 	.word	0x00402338

00400fa4 <pwm_init>:
  400fa4:	b570      	push	{r4, r5, r6, lr}
  400fa6:	4606      	mov	r6, r0
  400fa8:	6808      	ldr	r0, [r1, #0]
  400faa:	460d      	mov	r5, r1
  400fac:	b140      	cbz	r0, 400fc0 <pwm_init+0x1c>
  400fae:	4b0c      	ldr	r3, [pc, #48]	; (400fe0 <pwm_init+0x3c>)
  400fb0:	6889      	ldr	r1, [r1, #8]
  400fb2:	4798      	blx	r3
  400fb4:	f64f 73ff 	movw	r3, #65535	; 0xffff
  400fb8:	4604      	mov	r4, r0
  400fba:	4298      	cmp	r0, r3
  400fbc:	d101      	bne.n	400fc2 <pwm_init+0x1e>
  400fbe:	e00e      	b.n	400fde <pwm_init+0x3a>
  400fc0:	4604      	mov	r4, r0
  400fc2:	6868      	ldr	r0, [r5, #4]
  400fc4:	b140      	cbz	r0, 400fd8 <pwm_init+0x34>
  400fc6:	4b06      	ldr	r3, [pc, #24]	; (400fe0 <pwm_init+0x3c>)
  400fc8:	68a9      	ldr	r1, [r5, #8]
  400fca:	4798      	blx	r3
  400fcc:	f64f 73ff 	movw	r3, #65535	; 0xffff
  400fd0:	4298      	cmp	r0, r3
  400fd2:	d004      	beq.n	400fde <pwm_init+0x3a>
  400fd4:	ea44 4400 	orr.w	r4, r4, r0, lsl #16
  400fd8:	6034      	str	r4, [r6, #0]
  400fda:	2000      	movs	r0, #0
  400fdc:	bd70      	pop	{r4, r5, r6, pc}
  400fde:	bd70      	pop	{r4, r5, r6, pc}
  400fe0:	00400f59 	.word	0x00400f59

00400fe4 <pwm_channel_init>:
  400fe4:	684a      	ldr	r2, [r1, #4]
  400fe6:	680b      	ldr	r3, [r1, #0]
  400fe8:	f002 020f 	and.w	r2, r2, #15
  400fec:	b570      	push	{r4, r5, r6, lr}
  400fee:	8a8c      	ldrh	r4, [r1, #20]
  400ff0:	4322      	orrs	r2, r4
  400ff2:	890c      	ldrh	r4, [r1, #8]
  400ff4:	4322      	orrs	r2, r4
  400ff6:	7a8c      	ldrb	r4, [r1, #10]
  400ff8:	ea42 2244 	orr.w	r2, r2, r4, lsl #9
  400ffc:	7d8c      	ldrb	r4, [r1, #22]
  400ffe:	ea42 4204 	orr.w	r2, r2, r4, lsl #16
  401002:	7dcc      	ldrb	r4, [r1, #23]
  401004:	ea42 4244 	orr.w	r2, r2, r4, lsl #17
  401008:	7e0c      	ldrb	r4, [r1, #24]
  40100a:	ea42 4284 	orr.w	r2, r2, r4, lsl #18
  40100e:	eb00 1443 	add.w	r4, r0, r3, lsl #5
  401012:	f8c4 2200 	str.w	r2, [r4, #512]	; 0x200
  401016:	68ca      	ldr	r2, [r1, #12]
  401018:	f8c4 2204 	str.w	r2, [r4, #516]	; 0x204
  40101c:	690a      	ldr	r2, [r1, #16]
  40101e:	f8c4 220c 	str.w	r2, [r4, #524]	; 0x20c
  401022:	7d8a      	ldrb	r2, [r1, #22]
  401024:	b11a      	cbz	r2, 40102e <pwm_channel_init+0x4a>
  401026:	f8d1 201a 	ldr.w	r2, [r1, #26]
  40102a:	f8c4 2218 	str.w	r2, [r4, #536]	; 0x218
  40102e:	f04f 1201 	mov.w	r2, #65537	; 0x10001
  401032:	6c84      	ldr	r4, [r0, #72]	; 0x48
  401034:	409a      	lsls	r2, r3
  401036:	43d2      	mvns	r2, r2
  401038:	ea04 0502 	and.w	r5, r4, r2
  40103c:	7fcc      	ldrb	r4, [r1, #31]
  40103e:	fa04 f603 	lsl.w	r6, r4, r3
  401042:	7f8c      	ldrb	r4, [r1, #30]
  401044:	409c      	lsls	r4, r3
  401046:	ea44 4406 	orr.w	r4, r4, r6, lsl #16
  40104a:	432c      	orrs	r4, r5
  40104c:	6484      	str	r4, [r0, #72]	; 0x48
  40104e:	6c44      	ldr	r4, [r0, #68]	; 0x44
  401050:	4022      	ands	r2, r4
  401052:	f891 4021 	ldrb.w	r4, [r1, #33]	; 0x21
  401056:	fa04 f503 	lsl.w	r5, r4, r3
  40105a:	f891 4020 	ldrb.w	r4, [r1, #32]
  40105e:	409c      	lsls	r4, r3
  401060:	ea44 4405 	orr.w	r4, r4, r5, lsl #16
  401064:	4322      	orrs	r2, r4
  401066:	6442      	str	r2, [r0, #68]	; 0x44
  401068:	2201      	movs	r2, #1
  40106a:	f891 4022 	ldrb.w	r4, [r1, #34]	; 0x22
  40106e:	409a      	lsls	r2, r3
  401070:	b114      	cbz	r4, 401078 <pwm_channel_init+0x94>
  401072:	6a04      	ldr	r4, [r0, #32]
  401074:	4314      	orrs	r4, r2
  401076:	e002      	b.n	40107e <pwm_channel_init+0x9a>
  401078:	6a04      	ldr	r4, [r0, #32]
  40107a:	ea24 0402 	bic.w	r4, r4, r2
  40107e:	6204      	str	r4, [r0, #32]
  401080:	f891 4024 	ldrb.w	r4, [r1, #36]	; 0x24
  401084:	2c02      	cmp	r4, #2
  401086:	d105      	bne.n	401094 <pwm_channel_init+0xb0>
  401088:	f8d0 40c0 	ldr.w	r4, [r0, #192]	; 0xc0
  40108c:	4314      	orrs	r4, r2
  40108e:	f8c0 40c0 	str.w	r4, [r0, #192]	; 0xc0
  401092:	e00d      	b.n	4010b0 <pwm_channel_init+0xcc>
  401094:	f8d0 50c0 	ldr.w	r5, [r0, #192]	; 0xc0
  401098:	43d6      	mvns	r6, r2
  40109a:	4035      	ands	r5, r6
  40109c:	f8c0 50c0 	str.w	r5, [r0, #192]	; 0xc0
  4010a0:	f891 4024 	ldrb.w	r4, [r1, #36]	; 0x24
  4010a4:	2c01      	cmp	r4, #1
  4010a6:	6e84      	ldr	r4, [r0, #104]	; 0x68
  4010a8:	bf0c      	ite	eq
  4010aa:	4314      	orreq	r4, r2
  4010ac:	4034      	andne	r4, r6
  4010ae:	6684      	str	r4, [r0, #104]	; 0x68
  4010b0:	f891 4025 	ldrb.w	r4, [r1, #37]	; 0x25
  4010b4:	0412      	lsls	r2, r2, #16
  4010b6:	2c02      	cmp	r4, #2
  4010b8:	f8d0 40c0 	ldr.w	r4, [r0, #192]	; 0xc0
  4010bc:	d103      	bne.n	4010c6 <pwm_channel_init+0xe2>
  4010be:	4322      	orrs	r2, r4
  4010c0:	f8c0 20c0 	str.w	r2, [r0, #192]	; 0xc0
  4010c4:	e00d      	b.n	4010e2 <pwm_channel_init+0xfe>
  4010c6:	43d5      	mvns	r5, r2
  4010c8:	402c      	ands	r4, r5
  4010ca:	f8c0 40c0 	str.w	r4, [r0, #192]	; 0xc0
  4010ce:	f891 4025 	ldrb.w	r4, [r1, #37]	; 0x25
  4010d2:	2c01      	cmp	r4, #1
  4010d4:	d102      	bne.n	4010dc <pwm_channel_init+0xf8>
  4010d6:	6e84      	ldr	r4, [r0, #104]	; 0x68
  4010d8:	4322      	orrs	r2, r4
  4010da:	e001      	b.n	4010e0 <pwm_channel_init+0xfc>
  4010dc:	6e82      	ldr	r2, [r0, #104]	; 0x68
  4010de:	402a      	ands	r2, r5
  4010e0:	6682      	str	r2, [r0, #104]	; 0x68
  4010e2:	00db      	lsls	r3, r3, #3
  4010e4:	22ff      	movs	r2, #255	; 0xff
  4010e6:	6ec5      	ldr	r5, [r0, #108]	; 0x6c
  4010e8:	409a      	lsls	r2, r3
  4010ea:	ea25 0402 	bic.w	r4, r5, r2
  4010ee:	f891 2023 	ldrb.w	r2, [r1, #35]	; 0x23
  4010f2:	409a      	lsls	r2, r3
  4010f4:	4322      	orrs	r2, r4
  4010f6:	66c2      	str	r2, [r0, #108]	; 0x6c
  4010f8:	b953      	cbnz	r3, 401110 <pwm_channel_init+0x12c>
  4010fa:	f891 202c 	ldrb.w	r2, [r1, #44]	; 0x2c
  4010fe:	2a01      	cmp	r2, #1
  401100:	6a8a      	ldr	r2, [r1, #40]	; 0x28
  401102:	f022 427f 	bic.w	r2, r2, #4278190080	; 0xff000000
  401106:	bf08      	it	eq
  401108:	f042 7280 	orreq.w	r2, r2, #16777216	; 0x1000000
  40110c:	f8c0 20a0 	str.w	r2, [r0, #160]	; 0xa0
  401110:	eb00 1043 	add.w	r0, r0, r3, lsl #5
  401114:	f8d0 3200 	ldr.w	r3, [r0, #512]	; 0x200
  401118:	f423 2300 	bic.w	r3, r3, #524288	; 0x80000
  40111c:	f8c0 3200 	str.w	r3, [r0, #512]	; 0x200
  401120:	6b8b      	ldr	r3, [r1, #56]	; 0x38
  401122:	f8d0 2200 	ldr.w	r2, [r0, #512]	; 0x200
  401126:	f403 2300 	and.w	r3, r3, #524288	; 0x80000
  40112a:	4313      	orrs	r3, r2
  40112c:	f8c0 3200 	str.w	r3, [r0, #512]	; 0x200
  401130:	2000      	movs	r0, #0
  401132:	bd70      	pop	{r4, r5, r6, pc}

00401134 <pwm_channel_update_duty>:
  401134:	690b      	ldr	r3, [r1, #16]
  401136:	4293      	cmp	r3, r2
  401138:	d307      	bcc.n	40114a <pwm_channel_update_duty+0x16>
  40113a:	680b      	ldr	r3, [r1, #0]
  40113c:	60ca      	str	r2, [r1, #12]
  40113e:	eb00 1043 	add.w	r0, r0, r3, lsl #5
  401142:	f8c0 2208 	str.w	r2, [r0, #520]	; 0x208
  401146:	2000      	movs	r0, #0
  401148:	4770      	bx	lr
  40114a:	f64f 70ff 	movw	r0, #65535	; 0xffff
  40114e:	4770      	bx	lr

00401150 <pwm_channel_enable>:
  401150:	2301      	movs	r3, #1
  401152:	fa03 f101 	lsl.w	r1, r3, r1
  401156:	6041      	str	r1, [r0, #4]
  401158:	4770      	bx	lr

0040115a <pwm_channel_disable>:
  40115a:	2301      	movs	r3, #1
  40115c:	fa03 f101 	lsl.w	r1, r3, r1
  401160:	6081      	str	r1, [r0, #8]
  401162:	4770      	bx	lr

00401164 <pwm_channel_disable_interrupt>:
  401164:	2301      	movs	r3, #1
  401166:	3210      	adds	r2, #16
  401168:	fa03 f101 	lsl.w	r1, r3, r1
  40116c:	fa03 f202 	lsl.w	r2, r3, r2
  401170:	4311      	orrs	r1, r2
  401172:	6141      	str	r1, [r0, #20]
  401174:	4770      	bx	lr
	...

00401178 <SysTick_Handler>:
  401178:	4a02      	ldr	r2, [pc, #8]	; (401184 <SysTick_Handler+0xc>)
  40117a:	6813      	ldr	r3, [r2, #0]
  40117c:	3301      	adds	r3, #1
  40117e:	6013      	str	r3, [r2, #0]
  401180:	4770      	bx	lr
  401182:	bf00      	nop
  401184:	20400490 	.word	0x20400490

00401188 <time_tick_init>:
  401188:	2200      	movs	r2, #0
  40118a:	4b06      	ldr	r3, [pc, #24]	; (4011a4 <time_tick_init+0x1c>)
  40118c:	4906      	ldr	r1, [pc, #24]	; (4011a8 <time_tick_init+0x20>)
  40118e:	20e0      	movs	r0, #224	; 0xe0
  401190:	601a      	str	r2, [r3, #0]
  401192:	4b06      	ldr	r3, [pc, #24]	; (4011ac <time_tick_init+0x24>)
  401194:	6059      	str	r1, [r3, #4]
  401196:	4906      	ldr	r1, [pc, #24]	; (4011b0 <time_tick_init+0x28>)
  401198:	f881 0023 	strb.w	r0, [r1, #35]	; 0x23
  40119c:	609a      	str	r2, [r3, #8]
  40119e:	2207      	movs	r2, #7
  4011a0:	601a      	str	r2, [r3, #0]
  4011a2:	4770      	bx	lr
  4011a4:	20400490 	.word	0x20400490
  4011a8:	0002327f 	.word	0x0002327f
  4011ac:	e000e010 	.word	0xe000e010
  4011b0:	e000ed00 	.word	0xe000ed00

004011b4 <time_tick_get>:
  4011b4:	4b01      	ldr	r3, [pc, #4]	; (4011bc <time_tick_get+0x8>)
  4011b6:	6818      	ldr	r0, [r3, #0]
  4011b8:	4770      	bx	lr
  4011ba:	bf00      	nop
  4011bc:	20400490 	.word	0x20400490

004011c0 <time_tick_calc_delay>:
  4011c0:	4281      	cmp	r1, r0
  4011c2:	eba1 0000 	sub.w	r0, r1, r0
  4011c6:	bf38      	it	cc
  4011c8:	f100 30ff 	addcc.w	r0, r0, #4294967295
  4011cc:	4770      	bx	lr
	...

004011d0 <sysclk_init>:
  4011d0:	b570      	push	{r4, r5, r6, lr}
  4011d2:	4810      	ldr	r0, [pc, #64]	; (401214 <sysclk_init+0x44>)
  4011d4:	4c10      	ldr	r4, [pc, #64]	; (401218 <sysclk_init+0x48>)
  4011d6:	4d11      	ldr	r5, [pc, #68]	; (40121c <sysclk_init+0x4c>)
  4011d8:	47a0      	blx	r4
  4011da:	213e      	movs	r1, #62	; 0x3e
  4011dc:	2000      	movs	r0, #0
  4011de:	4b10      	ldr	r3, [pc, #64]	; (401220 <sysclk_init+0x50>)
  4011e0:	4798      	blx	r3
  4011e2:	47a8      	blx	r5
  4011e4:	2800      	cmp	r0, #0
  4011e6:	d0fc      	beq.n	4011e2 <sysclk_init+0x12>
  4011e8:	4b0e      	ldr	r3, [pc, #56]	; (401224 <sysclk_init+0x54>)
  4011ea:	4798      	blx	r3
  4011ec:	4d0e      	ldr	r5, [pc, #56]	; (401228 <sysclk_init+0x58>)
  4011ee:	4a0f      	ldr	r2, [pc, #60]	; (40122c <sysclk_init+0x5c>)
  4011f0:	4b0f      	ldr	r3, [pc, #60]	; (401230 <sysclk_init+0x60>)
  4011f2:	629a      	str	r2, [r3, #40]	; 0x28
  4011f4:	47a8      	blx	r5
  4011f6:	2800      	cmp	r0, #0
  4011f8:	d0fc      	beq.n	4011f4 <sysclk_init+0x24>
  4011fa:	2002      	movs	r0, #2
  4011fc:	4b0d      	ldr	r3, [pc, #52]	; (401234 <sysclk_init+0x64>)
  4011fe:	4798      	blx	r3
  401200:	4b0d      	ldr	r3, [pc, #52]	; (401238 <sysclk_init+0x68>)
  401202:	2000      	movs	r0, #0
  401204:	4798      	blx	r3
  401206:	4b0d      	ldr	r3, [pc, #52]	; (40123c <sysclk_init+0x6c>)
  401208:	4798      	blx	r3
  40120a:	4623      	mov	r3, r4
  40120c:	480c      	ldr	r0, [pc, #48]	; (401240 <sysclk_init+0x70>)
  40120e:	e8bd 4070 	ldmia.w	sp!, {r4, r5, r6, lr}
  401212:	4718      	bx	r3
  401214:	11e1a300 	.word	0x11e1a300
  401218:	004015e9 	.word	0x004015e9
  40121c:	00401305 	.word	0x00401305
  401220:	004012b5 	.word	0x004012b5
  401224:	00401315 	.word	0x00401315
  401228:	00401325 	.word	0x00401325
  40122c:	200b3f01 	.word	0x200b3f01
  401230:	400e0600 	.word	0x400e0600
  401234:	00401245 	.word	0x00401245
  401238:	00401271 	.word	0x00401271
  40123c:	0040151d 	.word	0x0040151d
  401240:	08954400 	.word	0x08954400

00401244 <pmc_mck_set_division>:
  401244:	3802      	subs	r0, #2
  401246:	2802      	cmp	r0, #2
  401248:	bf96      	itet	ls
  40124a:	4b07      	ldrls	r3, [pc, #28]	; (401268 <pmc_mck_set_division+0x24>)
  40124c:	2200      	movhi	r2, #0
  40124e:	f833 2010 	ldrhls.w	r2, [r3, r0, lsl #1]
  401252:	4b06      	ldr	r3, [pc, #24]	; (40126c <pmc_mck_set_division+0x28>)
  401254:	6b19      	ldr	r1, [r3, #48]	; 0x30
  401256:	f421 7140 	bic.w	r1, r1, #768	; 0x300
  40125a:	430a      	orrs	r2, r1
  40125c:	631a      	str	r2, [r3, #48]	; 0x30
  40125e:	6e9a      	ldr	r2, [r3, #104]	; 0x68
  401260:	0712      	lsls	r2, r2, #28
  401262:	d5fc      	bpl.n	40125e <pmc_mck_set_division+0x1a>
  401264:	4770      	bx	lr
  401266:	bf00      	nop
  401268:	00402364 	.word	0x00402364
  40126c:	400e0600 	.word	0x400e0600

00401270 <pmc_switch_mck_to_pllack>:
  401270:	4b0f      	ldr	r3, [pc, #60]	; (4012b0 <pmc_switch_mck_to_pllack+0x40>)
  401272:	6b1a      	ldr	r2, [r3, #48]	; 0x30
  401274:	f022 0270 	bic.w	r2, r2, #112	; 0x70
  401278:	4310      	orrs	r0, r2
  40127a:	f241 0201 	movw	r2, #4097	; 0x1001
  40127e:	6318      	str	r0, [r3, #48]	; 0x30
  401280:	6e98      	ldr	r0, [r3, #104]	; 0x68
  401282:	490b      	ldr	r1, [pc, #44]	; (4012b0 <pmc_switch_mck_to_pllack+0x40>)
  401284:	0700      	lsls	r0, r0, #28
  401286:	d403      	bmi.n	401290 <pmc_switch_mck_to_pllack+0x20>
  401288:	3a01      	subs	r2, #1
  40128a:	d1f9      	bne.n	401280 <pmc_switch_mck_to_pllack+0x10>
  40128c:	2001      	movs	r0, #1
  40128e:	4770      	bx	lr
  401290:	6b0a      	ldr	r2, [r1, #48]	; 0x30
  401292:	f022 0203 	bic.w	r2, r2, #3
  401296:	f042 0202 	orr.w	r2, r2, #2
  40129a:	630a      	str	r2, [r1, #48]	; 0x30
  40129c:	f241 0201 	movw	r2, #4097	; 0x1001
  4012a0:	6e99      	ldr	r1, [r3, #104]	; 0x68
  4012a2:	0709      	lsls	r1, r1, #28
  4012a4:	d402      	bmi.n	4012ac <pmc_switch_mck_to_pllack+0x3c>
  4012a6:	3a01      	subs	r2, #1
  4012a8:	d1fa      	bne.n	4012a0 <pmc_switch_mck_to_pllack+0x30>
  4012aa:	e7ef      	b.n	40128c <pmc_switch_mck_to_pllack+0x1c>
  4012ac:	2000      	movs	r0, #0
  4012ae:	4770      	bx	lr
  4012b0:	400e0600 	.word	0x400e0600

004012b4 <pmc_switch_mainck_to_xtal>:
  4012b4:	b510      	push	{r4, lr}
  4012b6:	4c10      	ldr	r4, [pc, #64]	; (4012f8 <pmc_switch_mainck_to_xtal+0x44>)
  4012b8:	b130      	cbz	r0, 4012c8 <pmc_switch_mainck_to_xtal+0x14>
  4012ba:	6a23      	ldr	r3, [r4, #32]
  4012bc:	4a0f      	ldr	r2, [pc, #60]	; (4012fc <pmc_switch_mainck_to_xtal+0x48>)
  4012be:	401a      	ands	r2, r3
  4012c0:	4b0f      	ldr	r3, [pc, #60]	; (401300 <pmc_switch_mainck_to_xtal+0x4c>)
  4012c2:	4313      	orrs	r3, r2
  4012c4:	6223      	str	r3, [r4, #32]
  4012c6:	bd10      	pop	{r4, pc}
  4012c8:	6a22      	ldr	r2, [r4, #32]
  4012ca:	0209      	lsls	r1, r1, #8
  4012cc:	f422 135c 	bic.w	r3, r2, #3604480	; 0x370000
  4012d0:	b289      	uxth	r1, r1
  4012d2:	f023 0303 	bic.w	r3, r3, #3
  4012d6:	f443 135c 	orr.w	r3, r3, #3604480	; 0x370000
  4012da:	f043 0301 	orr.w	r3, r3, #1
  4012de:	430b      	orrs	r3, r1
  4012e0:	6223      	str	r3, [r4, #32]
  4012e2:	6ea3      	ldr	r3, [r4, #104]	; 0x68
  4012e4:	4a04      	ldr	r2, [pc, #16]	; (4012f8 <pmc_switch_mainck_to_xtal+0x44>)
  4012e6:	07db      	lsls	r3, r3, #31
  4012e8:	d5fb      	bpl.n	4012e2 <pmc_switch_mainck_to_xtal+0x2e>
  4012ea:	6a13      	ldr	r3, [r2, #32]
  4012ec:	f043 739b 	orr.w	r3, r3, #20316160	; 0x1360000
  4012f0:	f443 3380 	orr.w	r3, r3, #65536	; 0x10000
  4012f4:	6213      	str	r3, [r2, #32]
  4012f6:	bd10      	pop	{r4, pc}
  4012f8:	400e0600 	.word	0x400e0600
  4012fc:	fec8fffc 	.word	0xfec8fffc
  401300:	01370002 	.word	0x01370002

00401304 <pmc_osc_is_ready_mainck>:
  401304:	4b02      	ldr	r3, [pc, #8]	; (401310 <pmc_osc_is_ready_mainck+0xc>)
  401306:	6e98      	ldr	r0, [r3, #104]	; 0x68
  401308:	f400 3080 	and.w	r0, r0, #65536	; 0x10000
  40130c:	4770      	bx	lr
  40130e:	bf00      	nop
  401310:	400e0600 	.word	0x400e0600

00401314 <pmc_disable_pllack>:
  401314:	f04f 5200 	mov.w	r2, #536870912	; 0x20000000
  401318:	4b01      	ldr	r3, [pc, #4]	; (401320 <pmc_disable_pllack+0xc>)
  40131a:	629a      	str	r2, [r3, #40]	; 0x28
  40131c:	4770      	bx	lr
  40131e:	bf00      	nop
  401320:	400e0600 	.word	0x400e0600

00401324 <pmc_is_locked_pllack>:
  401324:	4b02      	ldr	r3, [pc, #8]	; (401330 <pmc_is_locked_pllack+0xc>)
  401326:	6e98      	ldr	r0, [r3, #104]	; 0x68
  401328:	f000 0002 	and.w	r0, r0, #2
  40132c:	4770      	bx	lr
  40132e:	bf00      	nop
  401330:	400e0600 	.word	0x400e0600

00401334 <pmc_enable_periph_clk>:
  401334:	283f      	cmp	r0, #63	; 0x3f
  401336:	d817      	bhi.n	401368 <pmc_enable_periph_clk+0x34>
  401338:	281f      	cmp	r0, #31
  40133a:	4a0d      	ldr	r2, [pc, #52]	; (401370 <pmc_enable_periph_clk+0x3c>)
  40133c:	f04f 0301 	mov.w	r3, #1
  401340:	d807      	bhi.n	401352 <pmc_enable_periph_clk+0x1e>
  401342:	6991      	ldr	r1, [r2, #24]
  401344:	fa03 f000 	lsl.w	r0, r3, r0
  401348:	ea30 0301 	bics.w	r3, r0, r1
  40134c:	d00e      	beq.n	40136c <pmc_enable_periph_clk+0x38>
  40134e:	6110      	str	r0, [r2, #16]
  401350:	e00c      	b.n	40136c <pmc_enable_periph_clk+0x38>
  401352:	3820      	subs	r0, #32
  401354:	f8d2 1108 	ldr.w	r1, [r2, #264]	; 0x108
  401358:	fa03 f000 	lsl.w	r0, r3, r0
  40135c:	ea30 0301 	bics.w	r3, r0, r1
  401360:	d004      	beq.n	40136c <pmc_enable_periph_clk+0x38>
  401362:	f8c2 0100 	str.w	r0, [r2, #256]	; 0x100
  401366:	e001      	b.n	40136c <pmc_enable_periph_clk+0x38>
  401368:	2001      	movs	r0, #1
  40136a:	4770      	bx	lr
  40136c:	2000      	movs	r0, #0
  40136e:	4770      	bx	lr
  401370:	400e0600 	.word	0x400e0600

00401374 <xdmac_configure_transfer>:
  401374:	eb00 1181 	add.w	r1, r0, r1, lsl #6
  401378:	6dcb      	ldr	r3, [r1, #92]	; 0x5c
  40137a:	6853      	ldr	r3, [r2, #4]
  40137c:	660b      	str	r3, [r1, #96]	; 0x60
  40137e:	6893      	ldr	r3, [r2, #8]
  401380:	664b      	str	r3, [r1, #100]	; 0x64
  401382:	6813      	ldr	r3, [r2, #0]
  401384:	f023 437f 	bic.w	r3, r3, #4278190080	; 0xff000000
  401388:	670b      	str	r3, [r1, #112]	; 0x70
  40138a:	6913      	ldr	r3, [r2, #16]
  40138c:	f3c3 030b 	ubfx	r3, r3, #0, #12
  401390:	674b      	str	r3, [r1, #116]	; 0x74
  401392:	6953      	ldr	r3, [r2, #20]
  401394:	67cb      	str	r3, [r1, #124]	; 0x7c
  401396:	6993      	ldr	r3, [r2, #24]
  401398:	f023 437f 	bic.w	r3, r3, #4278190080	; 0xff000000
  40139c:	f8c1 3080 	str.w	r3, [r1, #128]	; 0x80
  4013a0:	69d3      	ldr	r3, [r2, #28]
  4013a2:	f023 437f 	bic.w	r3, r3, #4278190080	; 0xff000000
  4013a6:	f8c1 3084 	str.w	r3, [r1, #132]	; 0x84
  4013aa:	68d3      	ldr	r3, [r2, #12]
  4013ac:	678b      	str	r3, [r1, #120]	; 0x78
  4013ae:	4770      	bx	lr

004013b0 <ioport_set_pin_mode>:
  4013b0:	f000 021f 	and.w	r2, r0, #31
  4013b4:	0940      	lsrs	r0, r0, #5
  4013b6:	2301      	movs	r3, #1
  4013b8:	f500 1000 	add.w	r0, r0, #2097152	; 0x200000
  4013bc:	4093      	lsls	r3, r2
  4013be:	070a      	lsls	r2, r1, #28
  4013c0:	f200 7007 	addw	r0, r0, #1799	; 0x707
  4013c4:	ea4f 2040 	mov.w	r0, r0, lsl #9
  4013c8:	d501      	bpl.n	4013ce <ioport_set_pin_mode+0x1e>
  4013ca:	6643      	str	r3, [r0, #100]	; 0x64
  4013cc:	e000      	b.n	4013d0 <ioport_set_pin_mode+0x20>
  4013ce:	6603      	str	r3, [r0, #96]	; 0x60
  4013d0:	06ca      	lsls	r2, r1, #27
  4013d2:	d502      	bpl.n	4013da <ioport_set_pin_mode+0x2a>
  4013d4:	f8c0 3094 	str.w	r3, [r0, #148]	; 0x94
  4013d8:	e001      	b.n	4013de <ioport_set_pin_mode+0x2e>
  4013da:	f8c0 3090 	str.w	r3, [r0, #144]	; 0x90
  4013de:	068a      	lsls	r2, r1, #26
  4013e0:	d501      	bpl.n	4013e6 <ioport_set_pin_mode+0x36>
  4013e2:	6503      	str	r3, [r0, #80]	; 0x50
  4013e4:	e000      	b.n	4013e8 <ioport_set_pin_mode+0x38>
  4013e6:	6543      	str	r3, [r0, #84]	; 0x54
  4013e8:	f011 0fc0 	tst.w	r1, #192	; 0xc0
  4013ec:	d001      	beq.n	4013f2 <ioport_set_pin_mode+0x42>
  4013ee:	6203      	str	r3, [r0, #32]
  4013f0:	e000      	b.n	4013f4 <ioport_set_pin_mode+0x44>
  4013f2:	6243      	str	r3, [r0, #36]	; 0x24
  4013f4:	060a      	lsls	r2, r1, #24
  4013f6:	d502      	bpl.n	4013fe <ioport_set_pin_mode+0x4e>
  4013f8:	f8c0 3084 	str.w	r3, [r0, #132]	; 0x84
  4013fc:	e001      	b.n	401402 <ioport_set_pin_mode+0x52>
  4013fe:	f8c0 3080 	str.w	r3, [r0, #128]	; 0x80
  401402:	6f02      	ldr	r2, [r0, #112]	; 0x70
  401404:	f011 0f01 	tst.w	r1, #1
  401408:	bf14      	ite	ne
  40140a:	431a      	orrne	r2, r3
  40140c:	439a      	biceq	r2, r3
  40140e:	0789      	lsls	r1, r1, #30
  401410:	6702      	str	r2, [r0, #112]	; 0x70
  401412:	6f42      	ldr	r2, [r0, #116]	; 0x74
  401414:	bf4c      	ite	mi
  401416:	4313      	orrmi	r3, r2
  401418:	ea22 0303 	bicpl.w	r3, r2, r3
  40141c:	6743      	str	r3, [r0, #116]	; 0x74
  40141e:	4770      	bx	lr

00401420 <board_init>:
  401420:	b538      	push	{r3, r4, r5, lr}
  401422:	2102      	movs	r1, #2
  401424:	4d12      	ldr	r5, [pc, #72]	; (401470 <board_init+0x50>)
  401426:	201c      	movs	r0, #28
  401428:	4c12      	ldr	r4, [pc, #72]	; (401474 <board_init+0x54>)
  40142a:	47a8      	blx	r5
  40142c:	f04f 5380 	mov.w	r3, #268435456	; 0x10000000
  401430:	2103      	movs	r1, #3
  401432:	2019      	movs	r0, #25
  401434:	6063      	str	r3, [r4, #4]
  401436:	47a8      	blx	r5
  401438:	f04f 7300 	mov.w	r3, #33554432	; 0x2000000
  40143c:	2102      	movs	r1, #2
  40143e:	201e      	movs	r0, #30
  401440:	6063      	str	r3, [r4, #4]
  401442:	47a8      	blx	r5
  401444:	f04f 4380 	mov.w	r3, #1073741824	; 0x40000000
  401448:	2102      	movs	r1, #2
  40144a:	201f      	movs	r0, #31
  40144c:	6063      	str	r3, [r4, #4]
  40144e:	47a8      	blx	r5
  401450:	f04f 4300 	mov.w	r3, #2147483648	; 0x80000000
  401454:	2102      	movs	r1, #2
  401456:	201a      	movs	r0, #26
  401458:	6063      	str	r3, [r4, #4]
  40145a:	47a8      	blx	r5
  40145c:	f04f 6380 	mov.w	r3, #67108864	; 0x4000000
  401460:	2102      	movs	r1, #2
  401462:	201b      	movs	r0, #27
  401464:	6063      	str	r3, [r4, #4]
  401466:	47a8      	blx	r5
  401468:	f04f 6300 	mov.w	r3, #134217728	; 0x8000000
  40146c:	6063      	str	r3, [r4, #4]
  40146e:	bd38      	pop	{r3, r4, r5, pc}
  401470:	004013b1 	.word	0x004013b1
  401474:	400e0e00 	.word	0x400e0e00

00401478 <Dummy_Handler>:
  401478:	e7fe      	b.n	401478 <Dummy_Handler>
	...

0040147c <Reset_Handler>:
  40147c:	b508      	push	{r3, lr}
  40147e:	4a1c      	ldr	r2, [pc, #112]	; (4014f0 <Reset_Handler+0x74>)
  401480:	4b1c      	ldr	r3, [pc, #112]	; (4014f4 <Reset_Handler+0x78>)
  401482:	429a      	cmp	r2, r3
  401484:	d002      	beq.n	40148c <Reset_Handler+0x10>
  401486:	3a04      	subs	r2, #4
  401488:	491b      	ldr	r1, [pc, #108]	; (4014f8 <Reset_Handler+0x7c>)
  40148a:	e003      	b.n	401494 <Reset_Handler+0x18>
  40148c:	4b1b      	ldr	r3, [pc, #108]	; (4014fc <Reset_Handler+0x80>)
  40148e:	2100      	movs	r1, #0
  401490:	4a1b      	ldr	r2, [pc, #108]	; (401500 <Reset_Handler+0x84>)
  401492:	e006      	b.n	4014a2 <Reset_Handler+0x26>
  401494:	428b      	cmp	r3, r1
  401496:	d2f9      	bcs.n	40148c <Reset_Handler+0x10>
  401498:	f852 0f04 	ldr.w	r0, [r2, #4]!
  40149c:	f843 0b04 	str.w	r0, [r3], #4
  4014a0:	e7f8      	b.n	401494 <Reset_Handler+0x18>
  4014a2:	4293      	cmp	r3, r2
  4014a4:	d202      	bcs.n	4014ac <Reset_Handler+0x30>
  4014a6:	f843 1b04 	str.w	r1, [r3], #4
  4014aa:	e7fa      	b.n	4014a2 <Reset_Handler+0x26>
  4014ac:	4b15      	ldr	r3, [pc, #84]	; (401504 <Reset_Handler+0x88>)
  4014ae:	4a16      	ldr	r2, [pc, #88]	; (401508 <Reset_Handler+0x8c>)
  4014b0:	f023 037f 	bic.w	r3, r3, #127	; 0x7f
  4014b4:	6093      	str	r3, [r2, #8]
  4014b6:	f3ef 8310 	mrs	r3, PRIMASK
  4014ba:	b672      	cpsid	i
  4014bc:	f3bf 8f5f 	dmb	sy
  4014c0:	4812      	ldr	r0, [pc, #72]	; (40150c <Reset_Handler+0x90>)
  4014c2:	2200      	movs	r2, #0
  4014c4:	4912      	ldr	r1, [pc, #72]	; (401510 <Reset_Handler+0x94>)
  4014c6:	700a      	strb	r2, [r1, #0]
  4014c8:	6802      	ldr	r2, [r0, #0]
  4014ca:	f442 0270 	orr.w	r2, r2, #15728640	; 0xf00000
  4014ce:	6002      	str	r2, [r0, #0]
  4014d0:	f3bf 8f4f 	dsb	sy
  4014d4:	f3bf 8f6f 	isb	sy
  4014d8:	b923      	cbnz	r3, 4014e4 <Reset_Handler+0x68>
  4014da:	2301      	movs	r3, #1
  4014dc:	700b      	strb	r3, [r1, #0]
  4014de:	f3bf 8f5f 	dmb	sy
  4014e2:	b662      	cpsie	i
  4014e4:	4b0b      	ldr	r3, [pc, #44]	; (401514 <Reset_Handler+0x98>)
  4014e6:	4798      	blx	r3
  4014e8:	4b0b      	ldr	r3, [pc, #44]	; (401518 <Reset_Handler+0x9c>)
  4014ea:	4798      	blx	r3
  4014ec:	e7fe      	b.n	4014ec <Reset_Handler+0x70>
  4014ee:	bf00      	nop
  4014f0:	00402424 	.word	0x00402424
  4014f4:	20400000 	.word	0x20400000
  4014f8:	20400440 	.word	0x20400440
  4014fc:	20400440 	.word	0x20400440
  401500:	2043e524 	.word	0x2043e524
  401504:	00400000 	.word	0x00400000
  401508:	e000ed00 	.word	0xe000ed00
  40150c:	e000ed88 	.word	0xe000ed88
  401510:	2040000a 	.word	0x2040000a
  401514:	00401f91 	.word	0x00401f91
  401518:	00401ce1 	.word	0x00401ce1

0040151c <SystemCoreClockUpdate>:
  40151c:	4a2c      	ldr	r2, [pc, #176]	; (4015d0 <SystemCoreClockUpdate+0xb4>)
  40151e:	4b2d      	ldr	r3, [pc, #180]	; (4015d4 <SystemCoreClockUpdate+0xb8>)
  401520:	b510      	push	{r4, lr}
  401522:	6b11      	ldr	r1, [r2, #48]	; 0x30
  401524:	f001 0103 	and.w	r1, r1, #3
  401528:	2901      	cmp	r1, #1
  40152a:	d00c      	beq.n	401546 <SystemCoreClockUpdate+0x2a>
  40152c:	d302      	bcc.n	401534 <SystemCoreClockUpdate+0x18>
  40152e:	2902      	cmp	r1, #2
  401530:	d01a      	beq.n	401568 <SystemCoreClockUpdate+0x4c>
  401532:	e03b      	b.n	4015ac <SystemCoreClockUpdate+0x90>
  401534:	4928      	ldr	r1, [pc, #160]	; (4015d8 <SystemCoreClockUpdate+0xbc>)
  401536:	6949      	ldr	r1, [r1, #20]
  401538:	060c      	lsls	r4, r1, #24
  40153a:	bf4c      	ite	mi
  40153c:	f44f 4100 	movmi.w	r1, #32768	; 0x8000
  401540:	f44f 41fa 	movpl.w	r1, #32000	; 0x7d00
  401544:	e031      	b.n	4015aa <SystemCoreClockUpdate+0x8e>
  401546:	6a11      	ldr	r1, [r2, #32]
  401548:	01c8      	lsls	r0, r1, #7
  40154a:	d40b      	bmi.n	401564 <SystemCoreClockUpdate+0x48>
  40154c:	4923      	ldr	r1, [pc, #140]	; (4015dc <SystemCoreClockUpdate+0xc0>)
  40154e:	6019      	str	r1, [r3, #0]
  401550:	6a11      	ldr	r1, [r2, #32]
  401552:	f001 0170 	and.w	r1, r1, #112	; 0x70
  401556:	2910      	cmp	r1, #16
  401558:	d002      	beq.n	401560 <SystemCoreClockUpdate+0x44>
  40155a:	2920      	cmp	r1, #32
  40155c:	d002      	beq.n	401564 <SystemCoreClockUpdate+0x48>
  40155e:	e025      	b.n	4015ac <SystemCoreClockUpdate+0x90>
  401560:	491f      	ldr	r1, [pc, #124]	; (4015e0 <SystemCoreClockUpdate+0xc4>)
  401562:	e022      	b.n	4015aa <SystemCoreClockUpdate+0x8e>
  401564:	491f      	ldr	r1, [pc, #124]	; (4015e4 <SystemCoreClockUpdate+0xc8>)
  401566:	e020      	b.n	4015aa <SystemCoreClockUpdate+0x8e>
  401568:	6a11      	ldr	r1, [r2, #32]
  40156a:	01c9      	lsls	r1, r1, #7
  40156c:	d40b      	bmi.n	401586 <SystemCoreClockUpdate+0x6a>
  40156e:	491b      	ldr	r1, [pc, #108]	; (4015dc <SystemCoreClockUpdate+0xc0>)
  401570:	6019      	str	r1, [r3, #0]
  401572:	6a11      	ldr	r1, [r2, #32]
  401574:	f001 0170 	and.w	r1, r1, #112	; 0x70
  401578:	2910      	cmp	r1, #16
  40157a:	d002      	beq.n	401582 <SystemCoreClockUpdate+0x66>
  40157c:	2920      	cmp	r1, #32
  40157e:	d002      	beq.n	401586 <SystemCoreClockUpdate+0x6a>
  401580:	e003      	b.n	40158a <SystemCoreClockUpdate+0x6e>
  401582:	4917      	ldr	r1, [pc, #92]	; (4015e0 <SystemCoreClockUpdate+0xc4>)
  401584:	e000      	b.n	401588 <SystemCoreClockUpdate+0x6c>
  401586:	4917      	ldr	r1, [pc, #92]	; (4015e4 <SystemCoreClockUpdate+0xc8>)
  401588:	6019      	str	r1, [r3, #0]
  40158a:	6b11      	ldr	r1, [r2, #48]	; 0x30
  40158c:	4810      	ldr	r0, [pc, #64]	; (4015d0 <SystemCoreClockUpdate+0xb4>)
  40158e:	f001 0103 	and.w	r1, r1, #3
  401592:	2902      	cmp	r1, #2
  401594:	d10a      	bne.n	4015ac <SystemCoreClockUpdate+0x90>
  401596:	6a81      	ldr	r1, [r0, #40]	; 0x28
  401598:	6a80      	ldr	r0, [r0, #40]	; 0x28
  40159a:	f3c1 440a 	ubfx	r4, r1, #16, #11
  40159e:	6819      	ldr	r1, [r3, #0]
  4015a0:	b2c0      	uxtb	r0, r0
  4015a2:	fb04 1101 	mla	r1, r4, r1, r1
  4015a6:	fbb1 f1f0 	udiv	r1, r1, r0
  4015aa:	6019      	str	r1, [r3, #0]
  4015ac:	6b12      	ldr	r2, [r2, #48]	; 0x30
  4015ae:	f002 0270 	and.w	r2, r2, #112	; 0x70
  4015b2:	2a70      	cmp	r2, #112	; 0x70
  4015b4:	d104      	bne.n	4015c0 <SystemCoreClockUpdate+0xa4>
  4015b6:	681a      	ldr	r2, [r3, #0]
  4015b8:	2103      	movs	r1, #3
  4015ba:	fbb2 f2f1 	udiv	r2, r2, r1
  4015be:	e005      	b.n	4015cc <SystemCoreClockUpdate+0xb0>
  4015c0:	4a03      	ldr	r2, [pc, #12]	; (4015d0 <SystemCoreClockUpdate+0xb4>)
  4015c2:	6b12      	ldr	r2, [r2, #48]	; 0x30
  4015c4:	f3c2 1102 	ubfx	r1, r2, #4, #3
  4015c8:	681a      	ldr	r2, [r3, #0]
  4015ca:	40ca      	lsrs	r2, r1
  4015cc:	601a      	str	r2, [r3, #0]
  4015ce:	bd10      	pop	{r4, pc}
  4015d0:	400e0600 	.word	0x400e0600
  4015d4:	2040000c 	.word	0x2040000c
  4015d8:	400e1810 	.word	0x400e1810
  4015dc:	003d0900 	.word	0x003d0900
  4015e0:	007a1200 	.word	0x007a1200
  4015e4:	00b71b00 	.word	0x00b71b00

004015e8 <system_init_flash>:
  4015e8:	4b0e      	ldr	r3, [pc, #56]	; (401624 <system_init_flash+0x3c>)
  4015ea:	4298      	cmp	r0, r3
  4015ec:	4b0e      	ldr	r3, [pc, #56]	; (401628 <system_init_flash+0x40>)
  4015ee:	d802      	bhi.n	4015f6 <system_init_flash+0xe>
  4015f0:	f04f 6280 	mov.w	r2, #67108864	; 0x4000000
  4015f4:	e014      	b.n	401620 <system_init_flash+0x38>
  4015f6:	4a0d      	ldr	r2, [pc, #52]	; (40162c <system_init_flash+0x44>)
  4015f8:	4290      	cmp	r0, r2
  4015fa:	d801      	bhi.n	401600 <system_init_flash+0x18>
  4015fc:	4a0c      	ldr	r2, [pc, #48]	; (401630 <system_init_flash+0x48>)
  4015fe:	e00f      	b.n	401620 <system_init_flash+0x38>
  401600:	4a0c      	ldr	r2, [pc, #48]	; (401634 <system_init_flash+0x4c>)
  401602:	4290      	cmp	r0, r2
  401604:	d801      	bhi.n	40160a <system_init_flash+0x22>
  401606:	4a0c      	ldr	r2, [pc, #48]	; (401638 <system_init_flash+0x50>)
  401608:	e00a      	b.n	401620 <system_init_flash+0x38>
  40160a:	4a0c      	ldr	r2, [pc, #48]	; (40163c <system_init_flash+0x54>)
  40160c:	4290      	cmp	r0, r2
  40160e:	d801      	bhi.n	401614 <system_init_flash+0x2c>
  401610:	4a0b      	ldr	r2, [pc, #44]	; (401640 <system_init_flash+0x58>)
  401612:	e005      	b.n	401620 <system_init_flash+0x38>
  401614:	4a0b      	ldr	r2, [pc, #44]	; (401644 <system_init_flash+0x5c>)
  401616:	4290      	cmp	r0, r2
  401618:	bf94      	ite	ls
  40161a:	f04f 2204 	movls.w	r2, #67109888	; 0x4000400
  40161e:	4a0a      	ldrhi	r2, [pc, #40]	; (401648 <system_init_flash+0x60>)
  401620:	601a      	str	r2, [r3, #0]
  401622:	4770      	bx	lr
  401624:	01312cff 	.word	0x01312cff
  401628:	400e0c00 	.word	0x400e0c00
  40162c:	026259ff 	.word	0x026259ff
  401630:	04000100 	.word	0x04000100
  401634:	039386ff 	.word	0x039386ff
  401638:	04000200 	.word	0x04000200
  40163c:	04c4b3ff 	.word	0x04c4b3ff
  401640:	04000300 	.word	0x04000300
  401644:	05f5e0ff 	.word	0x05f5e0ff
  401648:	04000500 	.word	0x04000500

0040164c <ioport_set_pin_mode>:
  40164c:	f000 021f 	and.w	r2, r0, #31
  401650:	0940      	lsrs	r0, r0, #5
  401652:	2301      	movs	r3, #1
  401654:	f500 1000 	add.w	r0, r0, #2097152	; 0x200000
  401658:	4093      	lsls	r3, r2
  40165a:	070a      	lsls	r2, r1, #28
  40165c:	f200 7007 	addw	r0, r0, #1799	; 0x707
  401660:	ea4f 2040 	mov.w	r0, r0, lsl #9
  401664:	d501      	bpl.n	40166a <ioport_set_pin_mode+0x1e>
  401666:	6643      	str	r3, [r0, #100]	; 0x64
  401668:	e000      	b.n	40166c <ioport_set_pin_mode+0x20>
  40166a:	6603      	str	r3, [r0, #96]	; 0x60
  40166c:	06ca      	lsls	r2, r1, #27
  40166e:	d502      	bpl.n	401676 <ioport_set_pin_mode+0x2a>
  401670:	f8c0 3094 	str.w	r3, [r0, #148]	; 0x94
  401674:	e001      	b.n	40167a <ioport_set_pin_mode+0x2e>
  401676:	f8c0 3090 	str.w	r3, [r0, #144]	; 0x90
  40167a:	068a      	lsls	r2, r1, #26
  40167c:	d501      	bpl.n	401682 <ioport_set_pin_mode+0x36>
  40167e:	6503      	str	r3, [r0, #80]	; 0x50
  401680:	e000      	b.n	401684 <ioport_set_pin_mode+0x38>
  401682:	6543      	str	r3, [r0, #84]	; 0x54
  401684:	f011 0fc0 	tst.w	r1, #192	; 0xc0
  401688:	d001      	beq.n	40168e <ioport_set_pin_mode+0x42>
  40168a:	6203      	str	r3, [r0, #32]
  40168c:	e000      	b.n	401690 <ioport_set_pin_mode+0x44>
  40168e:	6243      	str	r3, [r0, #36]	; 0x24
  401690:	060a      	lsls	r2, r1, #24
  401692:	d502      	bpl.n	40169a <ioport_set_pin_mode+0x4e>
  401694:	f8c0 3084 	str.w	r3, [r0, #132]	; 0x84
  401698:	e001      	b.n	40169e <ioport_set_pin_mode+0x52>
  40169a:	f8c0 3080 	str.w	r3, [r0, #128]	; 0x80
  40169e:	6f02      	ldr	r2, [r0, #112]	; 0x70
  4016a0:	f011 0f01 	tst.w	r1, #1
  4016a4:	bf14      	ite	ne
  4016a6:	431a      	orrne	r2, r3
  4016a8:	439a      	biceq	r2, r3
  4016aa:	0789      	lsls	r1, r1, #30
  4016ac:	6702      	str	r2, [r0, #112]	; 0x70
  4016ae:	6f42      	ldr	r2, [r0, #116]	; 0x74
  4016b0:	bf4c      	ite	mi
  4016b2:	4313      	orrmi	r3, r2
  4016b4:	ea22 0303 	bicpl.w	r3, r2, r3
  4016b8:	6743      	str	r3, [r0, #116]	; 0x74
  4016ba:	4770      	bx	lr

004016bc <enableSourceClk>:
  4016bc:	b508      	push	{r3, lr}
  4016be:	2101      	movs	r1, #1
  4016c0:	4b08      	ldr	r3, [pc, #32]	; (4016e4 <enableSourceClk+0x28>)
  4016c2:	2011      	movs	r0, #17
  4016c4:	4798      	blx	r3
  4016c6:	f44f 3200 	mov.w	r2, #131072	; 0x20000
  4016ca:	4b07      	ldr	r3, [pc, #28]	; (4016e8 <enableSourceClk+0x2c>)
  4016cc:	605a      	str	r2, [r3, #4]
  4016ce:	f44f 7300 	mov.w	r3, #512	; 0x200
  4016d2:	4a06      	ldr	r2, [pc, #24]	; (4016ec <enableSourceClk+0x30>)
  4016d4:	6013      	str	r3, [r2, #0]
  4016d6:	6c53      	ldr	r3, [r2, #68]	; 0x44
  4016d8:	f023 0357 	bic.w	r3, r3, #87	; 0x57
  4016dc:	f043 0352 	orr.w	r3, r3, #82	; 0x52
  4016e0:	6453      	str	r3, [r2, #68]	; 0x44
  4016e2:	bd08      	pop	{r3, pc}
  4016e4:	0040164d 	.word	0x0040164d
  4016e8:	400e0e00 	.word	0x400e0e00
  4016ec:	400e0600 	.word	0x400e0600

004016f0 <spiWrite>:
  4016f0:	e92d 47f0 	stmdb	sp!, {r4, r5, r6, r7, r8, r9, sl, lr}
  4016f4:	2701      	movs	r7, #1
  4016f6:	4d27      	ldr	r5, [pc, #156]	; (401794 <spiWrite+0xa4>)
  4016f8:	4c27      	ldr	r4, [pc, #156]	; (401798 <spiWrite+0xa8>)
  4016fa:	f040 0880 	orr.w	r8, r0, #128	; 0x80
  4016fe:	632f      	str	r7, [r5, #48]	; 0x30
  401700:	20f3      	movs	r0, #243	; 0xf3
  401702:	460e      	mov	r6, r1
  401704:	f04f 0a10 	mov.w	sl, #16
  401708:	47a0      	blx	r4
  40170a:	636f      	str	r7, [r5, #52]	; 0x34
  40170c:	2708      	movs	r7, #8
  40170e:	20f3      	movs	r0, #243	; 0xf3
  401710:	47a0      	blx	r4
  401712:	f018 0f80 	tst.w	r8, #128	; 0x80
  401716:	d002      	beq.n	40171e <spiWrite+0x2e>
  401718:	f8c5 a030 	str.w	sl, [r5, #48]	; 0x30
  40171c:	e001      	b.n	401722 <spiWrite+0x32>
  40171e:	f8c5 a034 	str.w	sl, [r5, #52]	; 0x34
  401722:	f04f 0920 	mov.w	r9, #32
  401726:	20f3      	movs	r0, #243	; 0xf3
  401728:	3f01      	subs	r7, #1
  40172a:	47a0      	blx	r4
  40172c:	f8c5 9030 	str.w	r9, [r5, #48]	; 0x30
  401730:	20f3      	movs	r0, #243	; 0xf3
  401732:	47a0      	blx	r4
  401734:	f017 07ff 	ands.w	r7, r7, #255	; 0xff
  401738:	ea4f 0848 	mov.w	r8, r8, lsl #1
  40173c:	f8c5 9034 	str.w	r9, [r5, #52]	; 0x34
  401740:	fa5f f888 	uxtb.w	r8, r8
  401744:	d1e5      	bne.n	401712 <spiWrite+0x22>
  401746:	2510      	movs	r5, #16
  401748:	4f12      	ldr	r7, [pc, #72]	; (401794 <spiWrite+0xa4>)
  40174a:	f416 4f00 	tst.w	r6, #32768	; 0x8000
  40174e:	f04f 0310 	mov.w	r3, #16
  401752:	d001      	beq.n	401758 <spiWrite+0x68>
  401754:	633b      	str	r3, [r7, #48]	; 0x30
  401756:	e000      	b.n	40175a <spiWrite+0x6a>
  401758:	637b      	str	r3, [r7, #52]	; 0x34
  40175a:	f04f 0920 	mov.w	r9, #32
  40175e:	20f3      	movs	r0, #243	; 0xf3
  401760:	3d01      	subs	r5, #1
  401762:	47a0      	blx	r4
  401764:	f8c7 9030 	str.w	r9, [r7, #48]	; 0x30
  401768:	20f3      	movs	r0, #243	; 0xf3
  40176a:	47a0      	blx	r4
  40176c:	f015 05ff 	ands.w	r5, r5, #255	; 0xff
  401770:	ea4f 0646 	mov.w	r6, r6, lsl #1
  401774:	f8df 8020 	ldr.w	r8, [pc, #32]	; 401798 <spiWrite+0xa8>
  401778:	f8c7 9034 	str.w	r9, [r7, #52]	; 0x34
  40177c:	b2b6      	uxth	r6, r6
  40177e:	d1e4      	bne.n	40174a <spiWrite+0x5a>
  401780:	20f3      	movs	r0, #243	; 0xf3
  401782:	47c0      	blx	r8
  401784:	4b03      	ldr	r3, [pc, #12]	; (401794 <spiWrite+0xa4>)
  401786:	2201      	movs	r2, #1
  401788:	20f3      	movs	r0, #243	; 0xf3
  40178a:	631a      	str	r2, [r3, #48]	; 0x30
  40178c:	4643      	mov	r3, r8
  40178e:	e8bd 47f0 	ldmia.w	sp!, {r4, r5, r6, r7, r8, r9, sl, lr}
  401792:	4718      	bx	r3
  401794:	400e1000 	.word	0x400e1000
  401798:	20400001 	.word	0x20400001

0040179c <imagingSensorConfigureEV76C541>:
  40179c:	e92d 41f0 	stmdb	sp!, {r4, r5, r6, r7, r8, lr}
  4017a0:	4b28      	ldr	r3, [pc, #160]	; (401844 <imagingSensorConfigureEV76C541+0xa8>)
  4017a2:	b0a0      	sub	sp, #128	; 0x80
  4017a4:	f103 0528 	add.w	r5, r3, #40	; 0x28
  4017a8:	466a      	mov	r2, sp
  4017aa:	46e8      	mov	r8, sp
  4017ac:	6818      	ldr	r0, [r3, #0]
  4017ae:	3308      	adds	r3, #8
  4017b0:	f853 1c04 	ldr.w	r1, [r3, #-4]
  4017b4:	4614      	mov	r4, r2
  4017b6:	42ab      	cmp	r3, r5
  4017b8:	c403      	stmia	r4!, {r0, r1}
  4017ba:	4622      	mov	r2, r4
  4017bc:	d1f6      	bne.n	4017ac <imagingSensorConfigureEV76C541+0x10>
  4017be:	881b      	ldrh	r3, [r3, #0]
  4017c0:	ae0b      	add	r6, sp, #44	; 0x2c
  4017c2:	2500      	movs	r5, #0
  4017c4:	4f20      	ldr	r7, [pc, #128]	; (401848 <imagingSensorConfigureEV76C541+0xac>)
  4017c6:	8023      	strh	r3, [r4, #0]
  4017c8:	2254      	movs	r2, #84	; 0x54
  4017ca:	4920      	ldr	r1, [pc, #128]	; (40184c <imagingSensorConfigureEV76C541+0xb0>)
  4017cc:	4630      	mov	r0, r6
  4017ce:	4b20      	ldr	r3, [pc, #128]	; (401850 <imagingSensorConfigureEV76C541+0xb4>)
  4017d0:	4798      	blx	r3
  4017d2:	f836 1015 	ldrh.w	r1, [r6, r5, lsl #1]
  4017d6:	f818 0005 	ldrb.w	r0, [r8, r5]
  4017da:	3501      	adds	r5, #1
  4017dc:	47b8      	blx	r7
  4017de:	4c1a      	ldr	r4, [pc, #104]	; (401848 <imagingSensorConfigureEV76C541+0xac>)
  4017e0:	2d2a      	cmp	r5, #42	; 0x2a
  4017e2:	d1f6      	bne.n	4017d2 <imagingSensorConfigureEV76C541+0x36>
  4017e4:	f44f 5150 	mov.w	r1, #13312	; 0x3400
  4017e8:	2006      	movs	r0, #6
  4017ea:	47a0      	blx	r4
  4017ec:	f643 2106 	movw	r1, #14854	; 0x3a06
  4017f0:	2007      	movs	r0, #7
  4017f2:	47a0      	blx	r4
  4017f4:	f24d 5122 	movw	r1, #54562	; 0xd522
  4017f8:	2008      	movs	r0, #8
  4017fa:	47a0      	blx	r4
  4017fc:	f44f 7104 	mov.w	r1, #528	; 0x210
  401800:	200a      	movs	r0, #10
  401802:	47a0      	blx	r4
  401804:	f44f 7182 	mov.w	r1, #260	; 0x104
  401808:	200b      	movs	r0, #11
  40180a:	47a0      	blx	r4
  40180c:	f240 21aa 	movw	r1, #682	; 0x2aa
  401810:	200e      	movs	r0, #14
  401812:	47a0      	blx	r4
  401814:	4b0f      	ldr	r3, [pc, #60]	; (401854 <imagingSensorConfigureEV76C541+0xb8>)
  401816:	2011      	movs	r0, #17
  401818:	681b      	ldr	r3, [r3, #0]
  40181a:	3b02      	subs	r3, #2
  40181c:	2b06      	cmp	r3, #6
  40181e:	bf96      	itet	ls
  401820:	4a0d      	ldrls	r2, [pc, #52]	; (401858 <imagingSensorConfigureEV76C541+0xbc>)
  401822:	2100      	movhi	r1, #0
  401824:	f832 1013 	ldrhls.w	r1, [r2, r3, lsl #1]
  401828:	47a0      	blx	r4
  40182a:	f44f 7130 	mov.w	r1, #704	; 0x2c0
  40182e:	2015      	movs	r0, #21
  401830:	47a0      	blx	r4
  401832:	f640 0108 	movw	r1, #2056	; 0x808
  401836:	201a      	movs	r0, #26
  401838:	4623      	mov	r3, r4
  40183a:	b020      	add	sp, #128	; 0x80
  40183c:	e8bd 41f0 	ldmia.w	sp!, {r4, r5, r6, r7, r8, lr}
  401840:	4718      	bx	r3
  401842:	bf00      	nop
  401844:	0040236a 	.word	0x0040236a
  401848:	004016f1 	.word	0x004016f1
  40184c:	00402394 	.word	0x00402394
  401850:	00401fe1 	.word	0x00401fe1
  401854:	20400010 	.word	0x20400010
  401858:	004023e8 	.word	0x004023e8

0040185c <imagingSensorParamInit>:
  40185c:	4a03      	ldr	r2, [pc, #12]	; (40186c <imagingSensorParamInit+0x10>)
  40185e:	f8d2 3150 	ldr.w	r3, [r2, #336]	; 0x150
  401862:	f043 0320 	orr.w	r3, r3, #32
  401866:	f8c2 3150 	str.w	r3, [r2, #336]	; 0x150
  40186a:	4770      	bx	lr
  40186c:	400e0e00 	.word	0x400e0e00

00401870 <imagingSensorDMAInit>:
  401870:	b508      	push	{r3, lr}
  401872:	203a      	movs	r0, #58	; 0x3a
  401874:	4b05      	ldr	r3, [pc, #20]	; (40188c <imagingSensorDMAInit+0x1c>)
  401876:	4798      	blx	r3
  401878:	4b05      	ldr	r3, [pc, #20]	; (401890 <imagingSensorDMAInit+0x20>)
  40187a:	f04f 6280 	mov.w	r2, #67108864	; 0x4000000
  40187e:	2120      	movs	r1, #32
  401880:	f8c3 2184 	str.w	r2, [r3, #388]	; 0x184
  401884:	f883 133a 	strb.w	r1, [r3, #826]	; 0x33a
  401888:	605a      	str	r2, [r3, #4]
  40188a:	bd08      	pop	{r3, pc}
  40188c:	00401335 	.word	0x00401335
  401890:	e000e100 	.word	0xe000e100

00401894 <imagingSensorStartDMA>:
  401894:	4b1e      	ldr	r3, [pc, #120]	; (401910 <imagingSensorStartDMA+0x7c>)
  401896:	2202      	movs	r2, #2
  401898:	621a      	str	r2, [r3, #32]
  40189a:	6a5a      	ldr	r2, [r3, #36]	; 0x24
  40189c:	f8d3 209c 	ldr.w	r2, [r3, #156]	; 0x9c
  4018a0:	4a1c      	ldr	r2, [pc, #112]	; (401914 <imagingSensorStartDMA+0x80>)
  4018a2:	f8c3 20a0 	str.w	r2, [r3, #160]	; 0xa0
  4018a6:	4a1c      	ldr	r2, [pc, #112]	; (401918 <imagingSensorStartDMA+0x84>)
  4018a8:	6811      	ldr	r1, [r2, #0]
  4018aa:	2203      	movs	r2, #3
  4018ac:	fbb1 f2f2 	udiv	r2, r1, r2
  4018b0:	eb02 0242 	add.w	r2, r2, r2, lsl #1
  4018b4:	1a8a      	subs	r2, r1, r2
  4018b6:	2a01      	cmp	r2, #1
  4018b8:	d003      	beq.n	4018c2 <imagingSensorStartDMA+0x2e>
  4018ba:	2a02      	cmp	r2, #2
  4018bc:	d003      	beq.n	4018c6 <imagingSensorStartDMA+0x32>
  4018be:	4a17      	ldr	r2, [pc, #92]	; (40191c <imagingSensorStartDMA+0x88>)
  4018c0:	e002      	b.n	4018c8 <imagingSensorStartDMA+0x34>
  4018c2:	4a17      	ldr	r2, [pc, #92]	; (401920 <imagingSensorStartDMA+0x8c>)
  4018c4:	e000      	b.n	4018c8 <imagingSensorStartDMA+0x34>
  4018c6:	4a17      	ldr	r2, [pc, #92]	; (401924 <imagingSensorStartDMA+0x90>)
  4018c8:	f8c3 20a4 	str.w	r2, [r3, #164]	; 0xa4
  4018cc:	f44f 42a5 	mov.w	r2, #21120	; 0x5280
  4018d0:	f8c3 20b0 	str.w	r2, [r3, #176]	; 0xb0
  4018d4:	4a14      	ldr	r2, [pc, #80]	; (401928 <imagingSensorStartDMA+0x94>)
  4018d6:	f8c3 20b8 	str.w	r2, [r3, #184]	; 0xb8
  4018da:	2200      	movs	r2, #0
  4018dc:	f8c3 20ac 	str.w	r2, [r3, #172]	; 0xac
  4018e0:	f8c3 20b4 	str.w	r2, [r3, #180]	; 0xb4
  4018e4:	f8c3 20bc 	str.w	r2, [r3, #188]	; 0xbc
  4018e8:	f8c3 20c0 	str.w	r2, [r3, #192]	; 0xc0
  4018ec:	f8c3 20c4 	str.w	r2, [r3, #196]	; 0xc4
  4018f0:	f8d3 2090 	ldr.w	r2, [r3, #144]	; 0x90
  4018f4:	f042 0201 	orr.w	r2, r2, #1
  4018f8:	f8c3 2090 	str.w	r2, [r3, #144]	; 0x90
  4018fc:	68da      	ldr	r2, [r3, #12]
  4018fe:	f042 0202 	orr.w	r2, r2, #2
  401902:	60da      	str	r2, [r3, #12]
  401904:	69da      	ldr	r2, [r3, #28]
  401906:	f042 0202 	orr.w	r2, r2, #2
  40190a:	61da      	str	r2, [r3, #28]
  40190c:	4770      	bx	lr
  40190e:	bf00      	nop
  401910:	40078000 	.word	0x40078000
  401914:	400e0f64 	.word	0x400e0f64
  401918:	20400498 	.word	0x20400498
  40191c:	204004a8 	.word	0x204004a8
  401920:	20414ea8 	.word	0x20414ea8
  401924:	204298a8 	.word	0x204298a8
  401928:	22043001 	.word	0x22043001

0040192c <imagingSensorItInit>:
  40192c:	4a03      	ldr	r2, [pc, #12]	; (40193c <imagingSensorItInit+0x10>)
  40192e:	f8d2 3158 	ldr.w	r3, [r2, #344]	; 0x158
  401932:	f043 030f 	orr.w	r3, r3, #15
  401936:	f8c2 3158 	str.w	r3, [r2, #344]	; 0x158
  40193a:	4770      	bx	lr
  40193c:	400e0e00 	.word	0x400e0e00

00401940 <imageSensorVSyncItInit>:
  401940:	4b12      	ldr	r3, [pc, #72]	; (40198c <imageSensorVSyncItInit+0x4c>)
  401942:	681a      	ldr	r2, [r3, #0]
  401944:	f442 4280 	orr.w	r2, r2, #16384	; 0x4000
  401948:	601a      	str	r2, [r3, #0]
  40194a:	695a      	ldr	r2, [r3, #20]
  40194c:	f442 4280 	orr.w	r2, r2, #16384	; 0x4000
  401950:	615a      	str	r2, [r3, #20]
  401952:	f8d3 2094 	ldr.w	r2, [r3, #148]	; 0x94
  401956:	f442 4280 	orr.w	r2, r2, #16384	; 0x4000
  40195a:	f8c3 2094 	str.w	r2, [r3, #148]	; 0x94
  40195e:	6c1a      	ldr	r2, [r3, #64]	; 0x40
  401960:	f442 4280 	orr.w	r2, r2, #16384	; 0x4000
  401964:	641a      	str	r2, [r3, #64]	; 0x40
  401966:	f8d3 20b0 	ldr.w	r2, [r3, #176]	; 0xb0
  40196a:	f442 4280 	orr.w	r2, r2, #16384	; 0x4000
  40196e:	f8c3 20b0 	str.w	r2, [r3, #176]	; 0xb0
  401972:	f8d3 20c0 	ldr.w	r2, [r3, #192]	; 0xc0
  401976:	f442 4280 	orr.w	r2, r2, #16384	; 0x4000
  40197a:	f8c3 20c0 	str.w	r2, [r3, #192]	; 0xc0
  40197e:	f8d3 20d0 	ldr.w	r2, [r3, #208]	; 0xd0
  401982:	f442 4280 	orr.w	r2, r2, #16384	; 0x4000
  401986:	f8c3 20d0 	str.w	r2, [r3, #208]	; 0xd0
  40198a:	4770      	bx	lr
  40198c:	400e0e00 	.word	0x400e0e00

00401990 <imageSensorHSyncItInit>:
  401990:	4b12      	ldr	r3, [pc, #72]	; (4019dc <imageSensorHSyncItInit+0x4c>)
  401992:	681a      	ldr	r2, [r3, #0]
  401994:	f442 1200 	orr.w	r2, r2, #2097152	; 0x200000
  401998:	601a      	str	r2, [r3, #0]
  40199a:	695a      	ldr	r2, [r3, #20]
  40199c:	f442 1200 	orr.w	r2, r2, #2097152	; 0x200000
  4019a0:	615a      	str	r2, [r3, #20]
  4019a2:	f8d3 2094 	ldr.w	r2, [r3, #148]	; 0x94
  4019a6:	f442 1200 	orr.w	r2, r2, #2097152	; 0x200000
  4019aa:	f8c3 2094 	str.w	r2, [r3, #148]	; 0x94
  4019ae:	6c1a      	ldr	r2, [r3, #64]	; 0x40
  4019b0:	f442 1200 	orr.w	r2, r2, #2097152	; 0x200000
  4019b4:	641a      	str	r2, [r3, #64]	; 0x40
  4019b6:	f8d3 20b0 	ldr.w	r2, [r3, #176]	; 0xb0
  4019ba:	f442 1200 	orr.w	r2, r2, #2097152	; 0x200000
  4019be:	f8c3 20b0 	str.w	r2, [r3, #176]	; 0xb0
  4019c2:	f8d3 20c0 	ldr.w	r2, [r3, #192]	; 0xc0
  4019c6:	f442 1200 	orr.w	r2, r2, #2097152	; 0x200000
  4019ca:	f8c3 20c0 	str.w	r2, [r3, #192]	; 0xc0
  4019ce:	f8d3 20d0 	ldr.w	r2, [r3, #208]	; 0xd0
  4019d2:	f442 1200 	orr.w	r2, r2, #2097152	; 0x200000
  4019d6:	f8c3 20d0 	str.w	r2, [r3, #208]	; 0xd0
  4019da:	4770      	bx	lr
  4019dc:	400e0e00 	.word	0x400e0e00

004019e0 <imagingSensorLoadHeader>:
  4019e0:	b500      	push	{lr}
  4019e2:	f5ad 7d01 	sub.w	sp, sp, #516	; 0x204
  4019e6:	f44f 7200 	mov.w	r2, #512	; 0x200
  4019ea:	2100      	movs	r1, #0
  4019ec:	4b0e      	ldr	r3, [pc, #56]	; (401a28 <imagingSensorLoadHeader+0x48>)
  4019ee:	4668      	mov	r0, sp
  4019f0:	4798      	blx	r3
  4019f2:	2201      	movs	r2, #1
  4019f4:	f240 31ff 	movw	r1, #1023	; 0x3ff
  4019f8:	4b0c      	ldr	r3, [pc, #48]	; (401a2c <imagingSensorLoadHeader+0x4c>)
  4019fa:	2000      	movs	r0, #0
  4019fc:	4798      	blx	r3
  4019fe:	2101      	movs	r1, #1
  401a00:	4668      	mov	r0, sp
  401a02:	4b0b      	ldr	r3, [pc, #44]	; (401a30 <imagingSensorLoadHeader+0x50>)
  401a04:	4798      	blx	r3
  401a06:	4b0b      	ldr	r3, [pc, #44]	; (401a34 <imagingSensorLoadHeader+0x54>)
  401a08:	2000      	movs	r0, #0
  401a0a:	4798      	blx	r3
  401a0c:	9a04      	ldr	r2, [sp, #16]
  401a0e:	4b0a      	ldr	r3, [pc, #40]	; (401a38 <imagingSensorLoadHeader+0x58>)
  401a10:	601a      	str	r2, [r3, #0]
  401a12:	9a05      	ldr	r2, [sp, #20]
  401a14:	4b09      	ldr	r3, [pc, #36]	; (401a3c <imagingSensorLoadHeader+0x5c>)
  401a16:	601a      	str	r2, [r3, #0]
  401a18:	9a06      	ldr	r2, [sp, #24]
  401a1a:	4b09      	ldr	r3, [pc, #36]	; (401a40 <imagingSensorLoadHeader+0x60>)
  401a1c:	601a      	str	r2, [r3, #0]
  401a1e:	f50d 7d01 	add.w	sp, sp, #516	; 0x204
  401a22:	f85d fb04 	ldr.w	pc, [sp], #4
  401a26:	bf00      	nop
  401a28:	00402115 	.word	0x00402115
  401a2c:	00400919 	.word	0x00400919
  401a30:	004009cd 	.word	0x004009cd
  401a34:	004009f1 	.word	0x004009f1
  401a38:	20400010 	.word	0x20400010
  401a3c:	204004a0 	.word	0x204004a0
  401a40:	2043e2b8 	.word	0x2043e2b8

00401a44 <imagingSensorCaptureEnable>:
  401a44:	4a03      	ldr	r2, [pc, #12]	; (401a54 <imagingSensorCaptureEnable+0x10>)
  401a46:	f8d2 3150 	ldr.w	r3, [r2, #336]	; 0x150
  401a4a:	f043 0301 	orr.w	r3, r3, #1
  401a4e:	f8c2 3150 	str.w	r3, [r2, #336]	; 0x150
  401a52:	4770      	bx	lr
  401a54:	400e0e00 	.word	0x400e0e00

00401a58 <imagingSensorCaptureDisable>:
  401a58:	4a03      	ldr	r2, [pc, #12]	; (401a68 <imagingSensorCaptureDisable+0x10>)
  401a5a:	f8d2 3150 	ldr.w	r3, [r2, #336]	; 0x150
  401a5e:	f023 0301 	bic.w	r3, r3, #1
  401a62:	f8c2 3150 	str.w	r3, [r2, #336]	; 0x150
  401a66:	4770      	bx	lr
  401a68:	400e0e00 	.word	0x400e0e00

00401a6c <imagingSensorSetup>:
  401a6c:	b508      	push	{r3, lr}
  401a6e:	4b0f      	ldr	r3, [pc, #60]	; (401aac <imagingSensorSetup+0x40>)
  401a70:	4798      	blx	r3
  401a72:	4b0f      	ldr	r3, [pc, #60]	; (401ab0 <imagingSensorSetup+0x44>)
  401a74:	200a      	movs	r0, #10
  401a76:	4798      	blx	r3
  401a78:	f44f 6280 	mov.w	r2, #1024	; 0x400
  401a7c:	2140      	movs	r1, #64	; 0x40
  401a7e:	4b0d      	ldr	r3, [pc, #52]	; (401ab4 <imagingSensorSetup+0x48>)
  401a80:	f8c3 2180 	str.w	r2, [r3, #384]	; 0x180
  401a84:	f883 130a 	strb.w	r1, [r3, #778]	; 0x30a
  401a88:	601a      	str	r2, [r3, #0]
  401a8a:	4b0b      	ldr	r3, [pc, #44]	; (401ab8 <imagingSensorSetup+0x4c>)
  401a8c:	4798      	blx	r3
  401a8e:	4b0b      	ldr	r3, [pc, #44]	; (401abc <imagingSensorSetup+0x50>)
  401a90:	4798      	blx	r3
  401a92:	4b0b      	ldr	r3, [pc, #44]	; (401ac0 <imagingSensorSetup+0x54>)
  401a94:	4798      	blx	r3
  401a96:	4b0b      	ldr	r3, [pc, #44]	; (401ac4 <imagingSensorSetup+0x58>)
  401a98:	4798      	blx	r3
  401a9a:	4b0b      	ldr	r3, [pc, #44]	; (401ac8 <imagingSensorSetup+0x5c>)
  401a9c:	4798      	blx	r3
  401a9e:	4b0b      	ldr	r3, [pc, #44]	; (401acc <imagingSensorSetup+0x60>)
  401aa0:	2200      	movs	r2, #0
  401aa2:	741a      	strb	r2, [r3, #16]
  401aa4:	2201      	movs	r2, #1
  401aa6:	605a      	str	r2, [r3, #4]
  401aa8:	bd08      	pop	{r3, pc}
  401aaa:	bf00      	nop
  401aac:	00401a59 	.word	0x00401a59
  401ab0:	00401335 	.word	0x00401335
  401ab4:	e000e100 	.word	0xe000e100
  401ab8:	0040192d 	.word	0x0040192d
  401abc:	00401871 	.word	0x00401871
  401ac0:	0040185d 	.word	0x0040185d
  401ac4:	00401941 	.word	0x00401941
  401ac8:	00401991 	.word	0x00401991
  401acc:	2043e300 	.word	0x2043e300

00401ad0 <checkVSync>:
  401ad0:	4b27      	ldr	r3, [pc, #156]	; (401b70 <checkVSync+0xa0>)
  401ad2:	b570      	push	{r4, r5, r6, lr}
  401ad4:	681b      	ldr	r3, [r3, #0]
  401ad6:	045b      	lsls	r3, r3, #17
  401ad8:	d549      	bpl.n	401b6e <checkVSync+0x9e>
  401ada:	4926      	ldr	r1, [pc, #152]	; (401b74 <checkVSync+0xa4>)
  401adc:	4c26      	ldr	r4, [pc, #152]	; (401b78 <checkVSync+0xa8>)
  401ade:	780b      	ldrb	r3, [r1, #0]
  401ae0:	2b00      	cmp	r3, #0
  401ae2:	d035      	beq.n	401b50 <checkVSync+0x80>
  401ae4:	7823      	ldrb	r3, [r4, #0]
  401ae6:	2b00      	cmp	r3, #0
  401ae8:	d032      	beq.n	401b50 <checkVSync+0x80>
  401aea:	2300      	movs	r3, #0
  401aec:	4d23      	ldr	r5, [pc, #140]	; (401b7c <checkVSync+0xac>)
  401aee:	700b      	strb	r3, [r1, #0]
  401af0:	7023      	strb	r3, [r4, #0]
  401af2:	4b23      	ldr	r3, [pc, #140]	; (401b80 <checkVSync+0xb0>)
  401af4:	4798      	blx	r3
  401af6:	4b23      	ldr	r3, [pc, #140]	; (401b84 <checkVSync+0xb4>)
  401af8:	2203      	movs	r2, #3
  401afa:	6818      	ldr	r0, [r3, #0]
  401afc:	681e      	ldr	r6, [r3, #0]
  401afe:	fbb0 f2f2 	udiv	r2, r0, r2
  401b02:	eb02 0242 	add.w	r2, r2, r2, lsl #1
  401b06:	1a82      	subs	r2, r0, r2
  401b08:	481f      	ldr	r0, [pc, #124]	; (401b88 <checkVSync+0xb8>)
  401b0a:	2a01      	cmp	r2, #1
  401b0c:	d003      	beq.n	401b16 <checkVSync+0x46>
  401b0e:	2a02      	cmp	r2, #2
  401b10:	d003      	beq.n	401b1a <checkVSync+0x4a>
  401b12:	4a1e      	ldr	r2, [pc, #120]	; (401b8c <checkVSync+0xbc>)
  401b14:	e002      	b.n	401b1c <checkVSync+0x4c>
  401b16:	4a1e      	ldr	r2, [pc, #120]	; (401b90 <checkVSync+0xc0>)
  401b18:	e000      	b.n	401b1c <checkVSync+0x4c>
  401b1a:	4a1e      	ldr	r2, [pc, #120]	; (401b94 <checkVSync+0xc4>)
  401b1c:	f8c2 61fc 	str.w	r6, [r2, #508]	; 0x1fc
  401b20:	682e      	ldr	r6, [r5, #0]
  401b22:	f8c2 61f4 	str.w	r6, [r2, #500]	; 0x1f4
  401b26:	6806      	ldr	r6, [r0, #0]
  401b28:	f8c2 61f0 	str.w	r6, [r2, #496]	; 0x1f0
  401b2c:	2200      	movs	r2, #0
  401b2e:	602a      	str	r2, [r5, #0]
  401b30:	681d      	ldr	r5, [r3, #0]
  401b32:	3501      	adds	r5, #1
  401b34:	601d      	str	r5, [r3, #0]
  401b36:	4d18      	ldr	r5, [pc, #96]	; (401b98 <checkVSync+0xc8>)
  401b38:	602a      	str	r2, [r5, #0]
  401b3a:	6002      	str	r2, [r0, #0]
  401b3c:	4a17      	ldr	r2, [pc, #92]	; (401b9c <checkVSync+0xcc>)
  401b3e:	6812      	ldr	r2, [r2, #0]
  401b40:	6818      	ldr	r0, [r3, #0]
  401b42:	1c93      	adds	r3, r2, #2
  401b44:	4283      	cmp	r3, r0
  401b46:	d312      	bcc.n	401b6e <checkVSync+0x9e>
  401b48:	2301      	movs	r3, #1
  401b4a:	7023      	strb	r3, [r4, #0]
  401b4c:	700b      	strb	r3, [r1, #0]
  401b4e:	e008      	b.n	401b62 <checkVSync+0x92>
  401b50:	7823      	ldrb	r3, [r4, #0]
  401b52:	b163      	cbz	r3, 401b6e <checkVSync+0x9e>
  401b54:	2301      	movs	r3, #1
  401b56:	4a09      	ldr	r2, [pc, #36]	; (401b7c <checkVSync+0xac>)
  401b58:	700b      	strb	r3, [r1, #0]
  401b5a:	2300      	movs	r3, #0
  401b5c:	6013      	str	r3, [r2, #0]
  401b5e:	4a0e      	ldr	r2, [pc, #56]	; (401b98 <checkVSync+0xc8>)
  401b60:	6013      	str	r3, [r2, #0]
  401b62:	4b0f      	ldr	r3, [pc, #60]	; (401ba0 <checkVSync+0xd0>)
  401b64:	4798      	blx	r3
  401b66:	4b0f      	ldr	r3, [pc, #60]	; (401ba4 <checkVSync+0xd4>)
  401b68:	e8bd 4070 	ldmia.w	sp!, {r4, r5, r6, lr}
  401b6c:	4718      	bx	r3
  401b6e:	bd70      	pop	{r4, r5, r6, pc}
  401b70:	2043e2b0 	.word	0x2043e2b0
  401b74:	2043e2b4 	.word	0x2043e2b4
  401b78:	20400494 	.word	0x20400494
  401b7c:	2043e2ac 	.word	0x2043e2ac
  401b80:	00401a59 	.word	0x00401a59
  401b84:	20400498 	.word	0x20400498
  401b88:	2040049c 	.word	0x2040049c
  401b8c:	20414ca8 	.word	0x20414ca8
  401b90:	204296a8 	.word	0x204296a8
  401b94:	2043e0a8 	.word	0x2043e0a8
  401b98:	2043e2bc 	.word	0x2043e2bc
  401b9c:	2043e2c0 	.word	0x2043e2c0
  401ba0:	00401895 	.word	0x00401895
  401ba4:	00401a45 	.word	0x00401a45

00401ba8 <PIOA_Handler>:
  401ba8:	4b08      	ldr	r3, [pc, #32]	; (401bcc <PIOA_Handler+0x24>)
  401baa:	6cda      	ldr	r2, [r3, #76]	; 0x4c
  401bac:	4b08      	ldr	r3, [pc, #32]	; (401bd0 <PIOA_Handler+0x28>)
  401bae:	601a      	str	r2, [r3, #0]
  401bb0:	681b      	ldr	r3, [r3, #0]
  401bb2:	029b      	lsls	r3, r3, #10
  401bb4:	d507      	bpl.n	401bc6 <PIOA_Handler+0x1e>
  401bb6:	4b07      	ldr	r3, [pc, #28]	; (401bd4 <PIOA_Handler+0x2c>)
  401bb8:	781b      	ldrb	r3, [r3, #0]
  401bba:	2b01      	cmp	r3, #1
  401bbc:	d103      	bne.n	401bc6 <PIOA_Handler+0x1e>
  401bbe:	4a06      	ldr	r2, [pc, #24]	; (401bd8 <PIOA_Handler+0x30>)
  401bc0:	6813      	ldr	r3, [r2, #0]
  401bc2:	3301      	adds	r3, #1
  401bc4:	6013      	str	r3, [r2, #0]
  401bc6:	4b05      	ldr	r3, [pc, #20]	; (401bdc <PIOA_Handler+0x34>)
  401bc8:	4718      	bx	r3
  401bca:	bf00      	nop
  401bcc:	400e0e00 	.word	0x400e0e00
  401bd0:	2043e2b0 	.word	0x2043e2b0
  401bd4:	2043e2b4 	.word	0x2043e2b4
  401bd8:	2043e2ac 	.word	0x2043e2ac
  401bdc:	00401ad1 	.word	0x00401ad1

00401be0 <XDMAC_Handler>:
  401be0:	4b04      	ldr	r3, [pc, #16]	; (401bf4 <XDMAC_Handler+0x14>)
  401be2:	f8d3 309c 	ldr.w	r3, [r3, #156]	; 0x9c
  401be6:	07db      	lsls	r3, r3, #31
  401be8:	d502      	bpl.n	401bf0 <XDMAC_Handler+0x10>
  401bea:	2201      	movs	r2, #1
  401bec:	4b02      	ldr	r3, [pc, #8]	; (401bf8 <XDMAC_Handler+0x18>)
  401bee:	601a      	str	r2, [r3, #0]
  401bf0:	4770      	bx	lr
  401bf2:	bf00      	nop
  401bf4:	40078000 	.word	0x40078000
  401bf8:	2040049c 	.word	0x2040049c

00401bfc <PWM_Init>:
  401bfc:	b57f      	push	{r0, r1, r2, r3, r4, r5, r6, lr}
  401bfe:	4b1b      	ldr	r3, [pc, #108]	; (401c6c <PWM_Init+0x70>)
  401c00:	201f      	movs	r0, #31
  401c02:	4798      	blx	r3
  401c04:	4b1a      	ldr	r3, [pc, #104]	; (401c70 <PWM_Init+0x74>)
  401c06:	4798      	blx	r3
  401c08:	4b1a      	ldr	r3, [pc, #104]	; (401c74 <PWM_Init+0x78>)
  401c0a:	f440 5080 	orr.w	r0, r0, #4096	; 0x1000
  401c0e:	4d1a      	ldr	r5, [pc, #104]	; (401c78 <PWM_Init+0x7c>)
  401c10:	4798      	blx	r3
  401c12:	2100      	movs	r1, #0
  401c14:	4b19      	ldr	r3, [pc, #100]	; (401c7c <PWM_Init+0x80>)
  401c16:	2601      	movs	r6, #1
  401c18:	4608      	mov	r0, r1
  401c1a:	2400      	movs	r4, #0
  401c1c:	4798      	blx	r3
  401c1e:	4b18      	ldr	r3, [pc, #96]	; (401c80 <PWM_Init+0x84>)
  401c20:	4628      	mov	r0, r5
  401c22:	2100      	movs	r1, #0
  401c24:	605e      	str	r6, [r3, #4]
  401c26:	4b17      	ldr	r3, [pc, #92]	; (401c84 <PWM_Init+0x88>)
  401c28:	4798      	blx	r3
  401c2a:	4b17      	ldr	r3, [pc, #92]	; (401c88 <PWM_Init+0x8c>)
  401c2c:	a901      	add	r1, sp, #4
  401c2e:	4628      	mov	r0, r5
  401c30:	9301      	str	r3, [sp, #4]
  401c32:	4b16      	ldr	r3, [pc, #88]	; (401c8c <PWM_Init+0x90>)
  401c34:	9402      	str	r4, [sp, #8]
  401c36:	9303      	str	r3, [sp, #12]
  401c38:	4b15      	ldr	r3, [pc, #84]	; (401c90 <PWM_Init+0x94>)
  401c3a:	4798      	blx	r3
  401c3c:	4915      	ldr	r1, [pc, #84]	; (401c94 <PWM_Init+0x98>)
  401c3e:	230b      	movs	r3, #11
  401c40:	4628      	mov	r0, r5
  401c42:	810c      	strh	r4, [r1, #8]
  401c44:	604b      	str	r3, [r1, #4]
  401c46:	23ff      	movs	r3, #255	; 0xff
  401c48:	728e      	strb	r6, [r1, #10]
  401c4a:	610b      	str	r3, [r1, #16]
  401c4c:	2305      	movs	r3, #5
  401c4e:	600c      	str	r4, [r1, #0]
  401c50:	60cb      	str	r3, [r1, #12]
  401c52:	4b11      	ldr	r3, [pc, #68]	; (401c98 <PWM_Init+0x9c>)
  401c54:	4798      	blx	r3
  401c56:	4622      	mov	r2, r4
  401c58:	4621      	mov	r1, r4
  401c5a:	4628      	mov	r0, r5
  401c5c:	4b0f      	ldr	r3, [pc, #60]	; (401c9c <PWM_Init+0xa0>)
  401c5e:	4798      	blx	r3
  401c60:	4621      	mov	r1, r4
  401c62:	4628      	mov	r0, r5
  401c64:	4b0e      	ldr	r3, [pc, #56]	; (401ca0 <PWM_Init+0xa4>)
  401c66:	4798      	blx	r3
  401c68:	b004      	add	sp, #16
  401c6a:	bd70      	pop	{r4, r5, r6, pc}
  401c6c:	00401335 	.word	0x00401335
  401c70:	00400f49 	.word	0x00400f49
  401c74:	00400f29 	.word	0x00400f29
  401c78:	40020000 	.word	0x40020000
  401c7c:	0040164d 	.word	0x0040164d
  401c80:	400e0e00 	.word	0x400e0e00
  401c84:	0040115b 	.word	0x0040115b
  401c88:	0003e418 	.word	0x0003e418
  401c8c:	044aa200 	.word	0x044aa200
  401c90:	00400fa5 	.word	0x00400fa5
  401c94:	2043e2c4 	.word	0x2043e2c4
  401c98:	00400fe5 	.word	0x00400fe5
  401c9c:	00401165 	.word	0x00401165
  401ca0:	00401151 	.word	0x00401151

00401ca4 <SPI_BitBag_init>:
  401ca4:	b508      	push	{r3, lr}
  401ca6:	200b      	movs	r0, #11
  401ca8:	4b09      	ldr	r3, [pc, #36]	; (401cd0 <SPI_BitBag_init+0x2c>)
  401caa:	4798      	blx	r3
  401cac:	4b09      	ldr	r3, [pc, #36]	; (401cd4 <SPI_BitBag_init+0x30>)
  401cae:	4798      	blx	r3
  401cb0:	4b09      	ldr	r3, [pc, #36]	; (401cd8 <SPI_BitBag_init+0x34>)
  401cb2:	f040 0030 	orr.w	r0, r0, #48	; 0x30
  401cb6:	4798      	blx	r3
  401cb8:	4b08      	ldr	r3, [pc, #32]	; (401cdc <SPI_BitBag_init+0x38>)
  401cba:	2210      	movs	r2, #16
  401cbc:	611a      	str	r2, [r3, #16]
  401cbe:	f8c3 20a0 	str.w	r2, [r3, #160]	; 0xa0
  401cc2:	635a      	str	r2, [r3, #52]	; 0x34
  401cc4:	2220      	movs	r2, #32
  401cc6:	611a      	str	r2, [r3, #16]
  401cc8:	f8c3 20a0 	str.w	r2, [r3, #160]	; 0xa0
  401ccc:	635a      	str	r2, [r3, #52]	; 0x34
  401cce:	bd08      	pop	{r3, pc}
  401cd0:	00401335 	.word	0x00401335
  401cd4:	00400f49 	.word	0x00400f49
  401cd8:	00400f29 	.word	0x00400f29
  401cdc:	400e1000 	.word	0x400e1000

00401ce0 <main>:
  401ce0:	e92d 4ff7 	stmdb	sp!, {r0, r1, r2, r4, r5, r6, r7, r8, r9, sl, fp, lr}
  401ce4:	4b83      	ldr	r3, [pc, #524]	; (401ef4 <main+0x214>)
  401ce6:	f44f 4200 	mov.w	r2, #32768	; 0x8000
  401cea:	605a      	str	r2, [r3, #4]
  401cec:	2201      	movs	r2, #1
  401cee:	4b82      	ldr	r3, [pc, #520]	; (401ef8 <main+0x218>)
  401cf0:	701a      	strb	r2, [r3, #0]
  401cf2:	f3bf 8f5f 	dmb	sy
  401cf6:	b662      	cpsie	i
  401cf8:	4b80      	ldr	r3, [pc, #512]	; (401efc <main+0x21c>)
  401cfa:	4798      	blx	r3
  401cfc:	4b80      	ldr	r3, [pc, #512]	; (401f00 <main+0x220>)
  401cfe:	4e81      	ldr	r6, [pc, #516]	; (401f04 <main+0x224>)
  401d00:	4798      	blx	r3
  401d02:	200a      	movs	r0, #10
  401d04:	4f80      	ldr	r7, [pc, #512]	; (401f08 <main+0x228>)
  401d06:	47b0      	blx	r6
  401d08:	200b      	movs	r0, #11
  401d0a:	47b0      	blx	r6
  401d0c:	2010      	movs	r0, #16
  401d0e:	47b0      	blx	r6
  401d10:	4b7e      	ldr	r3, [pc, #504]	; (401f0c <main+0x22c>)
  401d12:	4798      	blx	r3
  401d14:	4b7e      	ldr	r3, [pc, #504]	; (401f10 <main+0x230>)
  401d16:	4798      	blx	r3
  401d18:	4b7e      	ldr	r3, [pc, #504]	; (401f14 <main+0x234>)
  401d1a:	4798      	blx	r3
  401d1c:	4b7e      	ldr	r3, [pc, #504]	; (401f18 <main+0x238>)
  401d1e:	4798      	blx	r3
  401d20:	2010      	movs	r0, #16
  401d22:	47b0      	blx	r6
  401d24:	2302      	movs	r3, #2
  401d26:	4d7d      	ldr	r5, [pc, #500]	; (401f1c <main+0x23c>)
  401d28:	46b1      	mov	r9, r6
  401d2a:	4e7d      	ldr	r6, [pc, #500]	; (401f20 <main+0x240>)
  401d2c:	613b      	str	r3, [r7, #16]
  401d2e:	4c7d      	ldr	r4, [pc, #500]	; (401f24 <main+0x244>)
  401d30:	f8c7 30a0 	str.w	r3, [r7, #160]	; 0xa0
  401d34:	637b      	str	r3, [r7, #52]	; 0x34
  401d36:	47a0      	blx	r4
  401d38:	6028      	str	r0, [r5, #0]
  401d3a:	f8d5 8000 	ldr.w	r8, [r5]
  401d3e:	47a0      	blx	r4
  401d40:	4601      	mov	r1, r0
  401d42:	4640      	mov	r0, r8
  401d44:	f8df 81d8 	ldr.w	r8, [pc, #472]	; 401f20 <main+0x240>
  401d48:	47b0      	blx	r6
  401d4a:	2863      	cmp	r0, #99	; 0x63
  401d4c:	d9f5      	bls.n	401d3a <main+0x5a>
  401d4e:	200b      	movs	r0, #11
  401d50:	4e75      	ldr	r6, [pc, #468]	; (401f28 <main+0x248>)
  401d52:	47c8      	blx	r9
  401d54:	f44f 5380 	mov.w	r3, #4096	; 0x1000
  401d58:	200b      	movs	r0, #11
  401d5a:	6133      	str	r3, [r6, #16]
  401d5c:	f8c6 30a0 	str.w	r3, [r6, #160]	; 0xa0
  401d60:	6373      	str	r3, [r6, #52]	; 0x34
  401d62:	47c8      	blx	r9
  401d64:	2302      	movs	r3, #2
  401d66:	6133      	str	r3, [r6, #16]
  401d68:	f8c6 30a0 	str.w	r3, [r6, #160]	; 0xa0
  401d6c:	6373      	str	r3, [r6, #52]	; 0x34
  401d6e:	4b6d      	ldr	r3, [pc, #436]	; (401f24 <main+0x244>)
  401d70:	4798      	blx	r3
  401d72:	4b6a      	ldr	r3, [pc, #424]	; (401f1c <main+0x23c>)
  401d74:	6018      	str	r0, [r3, #0]
  401d76:	682e      	ldr	r6, [r5, #0]
  401d78:	47a0      	blx	r4
  401d7a:	4601      	mov	r1, r0
  401d7c:	4630      	mov	r0, r6
  401d7e:	47c0      	blx	r8
  401d80:	2863      	cmp	r0, #99	; 0x63
  401d82:	d9f8      	bls.n	401d76 <main+0x96>
  401d84:	4b68      	ldr	r3, [pc, #416]	; (401f28 <main+0x248>)
  401d86:	2202      	movs	r2, #2
  401d88:	f8df 91f8 	ldr.w	r9, [pc, #504]	; 401f84 <main+0x2a4>
  401d8c:	631a      	str	r2, [r3, #48]	; 0x30
  401d8e:	2201      	movs	r2, #1
  401d90:	611a      	str	r2, [r3, #16]
  401d92:	f8c3 20a0 	str.w	r2, [r3, #160]	; 0xa0
  401d96:	631a      	str	r2, [r3, #48]	; 0x30
  401d98:	2204      	movs	r2, #4
  401d9a:	611a      	str	r2, [r3, #16]
  401d9c:	f8c3 20a0 	str.w	r2, [r3, #160]	; 0xa0
  401da0:	635a      	str	r2, [r3, #52]	; 0x34
  401da2:	4b62      	ldr	r3, [pc, #392]	; (401f2c <main+0x24c>)
  401da4:	4798      	blx	r3
  401da6:	2000      	movs	r0, #0
  401da8:	47c8      	blx	r9
  401daa:	4606      	mov	r6, r0
  401dac:	2800      	cmp	r0, #0
  401dae:	d1fa      	bne.n	401da6 <main+0xc6>
  401db0:	4b5f      	ldr	r3, [pc, #380]	; (401f30 <main+0x250>)
  401db2:	4798      	blx	r3
  401db4:	4b5f      	ldr	r3, [pc, #380]	; (401f34 <main+0x254>)
  401db6:	4630      	mov	r0, r6
  401db8:	4798      	blx	r3
  401dba:	4b5f      	ldr	r3, [pc, #380]	; (401f38 <main+0x258>)
  401dbc:	4798      	blx	r3
  401dbe:	4b5f      	ldr	r3, [pc, #380]	; (401f3c <main+0x25c>)
  401dc0:	681a      	ldr	r2, [r3, #0]
  401dc2:	2afe      	cmp	r2, #254	; 0xfe
  401dc4:	d900      	bls.n	401dc8 <main+0xe8>
  401dc6:	601e      	str	r6, [r3, #0]
  401dc8:	681a      	ldr	r2, [r3, #0]
  401dca:	f241 3687 	movw	r6, #4999	; 0x1387
  401dce:	495c      	ldr	r1, [pc, #368]	; (401f40 <main+0x260>)
  401dd0:	4b5c      	ldr	r3, [pc, #368]	; (401f44 <main+0x264>)
  401dd2:	485d      	ldr	r0, [pc, #372]	; (401f48 <main+0x268>)
  401dd4:	4798      	blx	r3
  401dd6:	4b5d      	ldr	r3, [pc, #372]	; (401f4c <main+0x26c>)
  401dd8:	4798      	blx	r3
  401dda:	4b5d      	ldr	r3, [pc, #372]	; (401f50 <main+0x270>)
  401ddc:	4798      	blx	r3
  401dde:	47a0      	blx	r4
  401de0:	6028      	str	r0, [r5, #0]
  401de2:	f8d5 9000 	ldr.w	r9, [r5]
  401de6:	47a0      	blx	r4
  401de8:	4601      	mov	r1, r0
  401dea:	4648      	mov	r0, r9
  401dec:	47c0      	blx	r8
  401dee:	42b0      	cmp	r0, r6
  401df0:	d9f7      	bls.n	401de2 <main+0x102>
  401df2:	f242 023a 	movw	r2, #8250	; 0x203a
  401df6:	f44f 6180 	mov.w	r1, #1024	; 0x400
  401dfa:	f8df a18c 	ldr.w	sl, [pc, #396]	; 401f88 <main+0x2a8>
  401dfe:	2000      	movs	r0, #0
  401e00:	47d0      	blx	sl
  401e02:	4b48      	ldr	r3, [pc, #288]	; (401f24 <main+0x244>)
  401e04:	4798      	blx	r3
  401e06:	4b45      	ldr	r3, [pc, #276]	; (401f1c <main+0x23c>)
  401e08:	2201      	movs	r2, #1
  401e0a:	2104      	movs	r1, #4
  401e0c:	6018      	str	r0, [r3, #0]
  401e0e:	f44f 6980 	mov.w	r9, #1024	; 0x400
  401e12:	4b50      	ldr	r3, [pc, #320]	; (401f54 <main+0x274>)
  401e14:	2600      	movs	r6, #0
  401e16:	701a      	strb	r2, [r3, #0]
  401e18:	469b      	mov	fp, r3
  401e1a:	4a43      	ldr	r2, [pc, #268]	; (401f28 <main+0x248>)
  401e1c:	6311      	str	r1, [r2, #48]	; 0x30
  401e1e:	f44f 5180 	mov.w	r1, #4096	; 0x1000
  401e22:	6311      	str	r1, [r2, #48]	; 0x30
  401e24:	2202      	movs	r2, #2
  401e26:	633a      	str	r2, [r7, #48]	; 0x30
  401e28:	f8cd a000 	str.w	sl, [sp]
  401e2c:	f8df a15c 	ldr.w	sl, [pc, #348]	; 401f8c <main+0x2ac>
  401e30:	4b49      	ldr	r3, [pc, #292]	; (401f58 <main+0x278>)
  401e32:	681b      	ldr	r3, [r3, #0]
  401e34:	429e      	cmp	r6, r3
  401e36:	d243      	bcs.n	401ec0 <main+0x1e0>
  401e38:	2303      	movs	r3, #3
  401e3a:	fbb6 f3f3 	udiv	r3, r6, r3
  401e3e:	eb03 0343 	add.w	r3, r3, r3, lsl #1
  401e42:	1af3      	subs	r3, r6, r3
  401e44:	2b01      	cmp	r3, #1
  401e46:	d00d      	beq.n	401e64 <main+0x184>
  401e48:	2b02      	cmp	r3, #2
  401e4a:	682b      	ldr	r3, [r5, #0]
  401e4c:	9301      	str	r3, [sp, #4]
  401e4e:	d015      	beq.n	401e7c <main+0x19c>
  401e50:	47a0      	blx	r4
  401e52:	9b01      	ldr	r3, [sp, #4]
  401e54:	4601      	mov	r1, r0
  401e56:	4618      	mov	r0, r3
  401e58:	47c0      	blx	r8
  401e5a:	4b40      	ldr	r3, [pc, #256]	; (401f5c <main+0x27c>)
  401e5c:	21a5      	movs	r1, #165	; 0xa5
  401e5e:	6018      	str	r0, [r3, #0]
  401e60:	483f      	ldr	r0, [pc, #252]	; (401f60 <main+0x280>)
  401e62:	e014      	b.n	401e8e <main+0x1ae>
  401e64:	682b      	ldr	r3, [r5, #0]
  401e66:	9301      	str	r3, [sp, #4]
  401e68:	47a0      	blx	r4
  401e6a:	9b01      	ldr	r3, [sp, #4]
  401e6c:	4601      	mov	r1, r0
  401e6e:	4618      	mov	r0, r3
  401e70:	47c0      	blx	r8
  401e72:	4b3c      	ldr	r3, [pc, #240]	; (401f64 <main+0x284>)
  401e74:	21a5      	movs	r1, #165	; 0xa5
  401e76:	6018      	str	r0, [r3, #0]
  401e78:	483b      	ldr	r0, [pc, #236]	; (401f68 <main+0x288>)
  401e7a:	e008      	b.n	401e8e <main+0x1ae>
  401e7c:	47a0      	blx	r4
  401e7e:	9b01      	ldr	r3, [sp, #4]
  401e80:	4601      	mov	r1, r0
  401e82:	4618      	mov	r0, r3
  401e84:	47c0      	blx	r8
  401e86:	4b39      	ldr	r3, [pc, #228]	; (401f6c <main+0x28c>)
  401e88:	21a5      	movs	r1, #165	; 0xa5
  401e8a:	6018      	str	r0, [r3, #0]
  401e8c:	4838      	ldr	r0, [pc, #224]	; (401f70 <main+0x290>)
  401e8e:	47d0      	blx	sl
  401e90:	4b38      	ldr	r3, [pc, #224]	; (401f74 <main+0x294>)
  401e92:	2000      	movs	r0, #0
  401e94:	3601      	adds	r6, #1
  401e96:	4798      	blx	r3
  401e98:	4b37      	ldr	r3, [pc, #220]	; (401f78 <main+0x298>)
  401e9a:	2032      	movs	r0, #50	; 0x32
  401e9c:	601e      	str	r6, [r3, #0]
  401e9e:	2301      	movs	r3, #1
  401ea0:	f88b 3000 	strb.w	r3, [fp]
  401ea4:	fbb6 f3f0 	udiv	r3, r6, r0
  401ea8:	fb00 6013 	mls	r0, r0, r3, r6
  401eac:	b940      	cbnz	r0, 401ec0 <main+0x1e0>
  401eae:	f509 5900 	add.w	r9, r9, #8192	; 0x2000
  401eb2:	f242 023a 	movw	r2, #8250	; 0x203a
  401eb6:	9b00      	ldr	r3, [sp, #0]
  401eb8:	f109 093a 	add.w	r9, r9, #58	; 0x3a
  401ebc:	4649      	mov	r1, r9
  401ebe:	4798      	blx	r3
  401ec0:	682b      	ldr	r3, [r5, #0]
  401ec2:	9301      	str	r3, [sp, #4]
  401ec4:	47a0      	blx	r4
  401ec6:	9b01      	ldr	r3, [sp, #4]
  401ec8:	4601      	mov	r1, r0
  401eca:	4618      	mov	r0, r3
  401ecc:	47c0      	blx	r8
  401ece:	4b2b      	ldr	r3, [pc, #172]	; (401f7c <main+0x29c>)
  401ed0:	681a      	ldr	r2, [r3, #0]
  401ed2:	f44f 737a 	mov.w	r3, #1000	; 0x3e8
  401ed6:	4353      	muls	r3, r2
  401ed8:	4298      	cmp	r0, r3
  401eda:	d306      	bcc.n	401eea <main+0x20a>
  401edc:	2302      	movs	r3, #2
  401ede:	f44f 5280 	mov.w	r2, #4096	; 0x1000
  401ee2:	637b      	str	r3, [r7, #52]	; 0x34
  401ee4:	4b10      	ldr	r3, [pc, #64]	; (401f28 <main+0x248>)
  401ee6:	635a      	str	r2, [r3, #52]	; 0x34
  401ee8:	e7fe      	b.n	401ee8 <main+0x208>
  401eea:	2200      	movs	r2, #0
  401eec:	4b24      	ldr	r3, [pc, #144]	; (401f80 <main+0x2a0>)
  401eee:	601a      	str	r2, [r3, #0]
  401ef0:	e79e      	b.n	401e30 <main+0x150>
  401ef2:	bf00      	nop
  401ef4:	400e1850 	.word	0x400e1850
  401ef8:	2040000a 	.word	0x2040000a
  401efc:	004011d1 	.word	0x004011d1
  401f00:	00401421 	.word	0x00401421
  401f04:	00401335 	.word	0x00401335
  401f08:	400e1400 	.word	0x400e1400
  401f0c:	004016bd 	.word	0x004016bd
  401f10:	00401189 	.word	0x00401189
  401f14:	00401bfd 	.word	0x00401bfd
  401f18:	00401ca5 	.word	0x00401ca5
  401f1c:	2043e318 	.word	0x2043e318
  401f20:	004011c1 	.word	0x004011c1
  401f24:	004011b5 	.word	0x004011b5
  401f28:	400e1000 	.word	0x400e1000
  401f2c:	004002a9 	.word	0x004002a9
  401f30:	004008d1 	.word	0x004008d1
  401f34:	004008f5 	.word	0x004008f5
  401f38:	004019e1 	.word	0x004019e1
  401f3c:	204004a0 	.word	0x204004a0
  401f40:	2043e2c4 	.word	0x2043e2c4
  401f44:	00401135 	.word	0x00401135
  401f48:	40020000 	.word	0x40020000
  401f4c:	00401a6d 	.word	0x00401a6d
  401f50:	0040179d 	.word	0x0040179d
  401f54:	20400494 	.word	0x20400494
  401f58:	20400498 	.word	0x20400498
  401f5c:	20414ea0 	.word	0x20414ea0
  401f60:	204004a8 	.word	0x204004a8
  401f64:	204298a0 	.word	0x204298a0
  401f68:	20414ea8 	.word	0x20414ea8
  401f6c:	2043e2a0 	.word	0x2043e2a0
  401f70:	204298a8 	.word	0x204298a8
  401f74:	00400aed 	.word	0x00400aed
  401f78:	2043e2c0 	.word	0x2043e2c0
  401f7c:	2043e2b8 	.word	0x2043e2b8
  401f80:	2043e2a8 	.word	0x2043e2a8
  401f84:	004002c5 	.word	0x004002c5
  401f88:	00400a49 	.word	0x00400a49
  401f8c:	00400ac9 	.word	0x00400ac9

00401f90 <__libc_init_array>:
  401f90:	b570      	push	{r4, r5, r6, lr}
  401f92:	4e0f      	ldr	r6, [pc, #60]	; (401fd0 <__libc_init_array+0x40>)
  401f94:	4d0f      	ldr	r5, [pc, #60]	; (401fd4 <__libc_init_array+0x44>)
  401f96:	1b76      	subs	r6, r6, r5
  401f98:	10b6      	asrs	r6, r6, #2
  401f9a:	bf18      	it	ne
  401f9c:	2400      	movne	r4, #0
  401f9e:	d005      	beq.n	401fac <__libc_init_array+0x1c>
  401fa0:	3401      	adds	r4, #1
  401fa2:	f855 3b04 	ldr.w	r3, [r5], #4
  401fa6:	4798      	blx	r3
  401fa8:	42a6      	cmp	r6, r4
  401faa:	d1f9      	bne.n	401fa0 <__libc_init_array+0x10>
  401fac:	4e0a      	ldr	r6, [pc, #40]	; (401fd8 <__libc_init_array+0x48>)
  401fae:	4d0b      	ldr	r5, [pc, #44]	; (401fdc <__libc_init_array+0x4c>)
  401fb0:	1b76      	subs	r6, r6, r5
  401fb2:	f000 fa25 	bl	402400 <_init>
  401fb6:	10b6      	asrs	r6, r6, #2
  401fb8:	bf18      	it	ne
  401fba:	2400      	movne	r4, #0
  401fbc:	d006      	beq.n	401fcc <__libc_init_array+0x3c>
  401fbe:	3401      	adds	r4, #1
  401fc0:	f855 3b04 	ldr.w	r3, [r5], #4
  401fc4:	4798      	blx	r3
  401fc6:	42a6      	cmp	r6, r4
  401fc8:	d1f9      	bne.n	401fbe <__libc_init_array+0x2e>
  401fca:	bd70      	pop	{r4, r5, r6, pc}
  401fcc:	bd70      	pop	{r4, r5, r6, pc}
  401fce:	bf00      	nop
  401fd0:	0040240c 	.word	0x0040240c
  401fd4:	0040240c 	.word	0x0040240c
  401fd8:	00402414 	.word	0x00402414
  401fdc:	0040240c 	.word	0x0040240c

00401fe0 <memcpy>:
  401fe0:	4684      	mov	ip, r0
  401fe2:	ea41 0300 	orr.w	r3, r1, r0
  401fe6:	f013 0303 	ands.w	r3, r3, #3
  401fea:	d16d      	bne.n	4020c8 <memcpy+0xe8>
  401fec:	3a40      	subs	r2, #64	; 0x40
  401fee:	d341      	bcc.n	402074 <memcpy+0x94>
  401ff0:	f851 3b04 	ldr.w	r3, [r1], #4
  401ff4:	f840 3b04 	str.w	r3, [r0], #4
  401ff8:	f851 3b04 	ldr.w	r3, [r1], #4
  401ffc:	f840 3b04 	str.w	r3, [r0], #4
  402000:	f851 3b04 	ldr.w	r3, [r1], #4
  402004:	f840 3b04 	str.w	r3, [r0], #4
  402008:	f851 3b04 	ldr.w	r3, [r1], #4
  40200c:	f840 3b04 	str.w	r3, [r0], #4
  402010:	f851 3b04 	ldr.w	r3, [r1], #4
  402014:	f840 3b04 	str.w	r3, [r0], #4
  402018:	f851 3b04 	ldr.w	r3, [r1], #4
  40201c:	f840 3b04 	str.w	r3, [r0], #4
  402020:	f851 3b04 	ldr.w	r3, [r1], #4
  402024:	f840 3b04 	str.w	r3, [r0], #4
  402028:	f851 3b04 	ldr.w	r3, [r1], #4
  40202c:	f840 3b04 	str.w	r3, [r0], #4
  402030:	f851 3b04 	ldr.w	r3, [r1], #4
  402034:	f840 3b04 	str.w	r3, [r0], #4
  402038:	f851 3b04 	ldr.w	r3, [r1], #4
  40203c:	f840 3b04 	str.w	r3, [r0], #4
  402040:	f851 3b04 	ldr.w	r3, [r1], #4
  402044:	f840 3b04 	str.w	r3, [r0], #4
  402048:	f851 3b04 	ldr.w	r3, [r1], #4
  40204c:	f840 3b04 	str.w	r3, [r0], #4
  402050:	f851 3b04 	ldr.w	r3, [r1], #4
  402054:	f840 3b04 	str.w	r3, [r0], #4
  402058:	f851 3b04 	ldr.w	r3, [r1], #4
  40205c:	f840 3b04 	str.w	r3, [r0], #4
  402060:	f851 3b04 	ldr.w	r3, [r1], #4
  402064:	f840 3b04 	str.w	r3, [r0], #4
  402068:	f851 3b04 	ldr.w	r3, [r1], #4
  40206c:	f840 3b04 	str.w	r3, [r0], #4
  402070:	3a40      	subs	r2, #64	; 0x40
  402072:	d2bd      	bcs.n	401ff0 <memcpy+0x10>
  402074:	3230      	adds	r2, #48	; 0x30
  402076:	d311      	bcc.n	40209c <memcpy+0xbc>
  402078:	f851 3b04 	ldr.w	r3, [r1], #4
  40207c:	f840 3b04 	str.w	r3, [r0], #4
  402080:	f851 3b04 	ldr.w	r3, [r1], #4
  402084:	f840 3b04 	str.w	r3, [r0], #4
  402088:	f851 3b04 	ldr.w	r3, [r1], #4
  40208c:	f840 3b04 	str.w	r3, [r0], #4
  402090:	f851 3b04 	ldr.w	r3, [r1], #4
  402094:	f840 3b04 	str.w	r3, [r0], #4
  402098:	3a10      	subs	r2, #16
  40209a:	d2ed      	bcs.n	402078 <memcpy+0x98>
  40209c:	320c      	adds	r2, #12
  40209e:	d305      	bcc.n	4020ac <memcpy+0xcc>
  4020a0:	f851 3b04 	ldr.w	r3, [r1], #4
  4020a4:	f840 3b04 	str.w	r3, [r0], #4
  4020a8:	3a04      	subs	r2, #4
  4020aa:	d2f9      	bcs.n	4020a0 <memcpy+0xc0>
  4020ac:	3204      	adds	r2, #4
  4020ae:	d008      	beq.n	4020c2 <memcpy+0xe2>
  4020b0:	07d2      	lsls	r2, r2, #31
  4020b2:	bf1c      	itt	ne
  4020b4:	f811 3b01 	ldrbne.w	r3, [r1], #1
  4020b8:	f800 3b01 	strbne.w	r3, [r0], #1
  4020bc:	d301      	bcc.n	4020c2 <memcpy+0xe2>
  4020be:	880b      	ldrh	r3, [r1, #0]
  4020c0:	8003      	strh	r3, [r0, #0]
  4020c2:	4660      	mov	r0, ip
  4020c4:	4770      	bx	lr
  4020c6:	bf00      	nop
  4020c8:	2a08      	cmp	r2, #8
  4020ca:	d313      	bcc.n	4020f4 <memcpy+0x114>
  4020cc:	078b      	lsls	r3, r1, #30
  4020ce:	d08d      	beq.n	401fec <memcpy+0xc>
  4020d0:	f010 0303 	ands.w	r3, r0, #3
  4020d4:	d08a      	beq.n	401fec <memcpy+0xc>
  4020d6:	f1c3 0304 	rsb	r3, r3, #4
  4020da:	1ad2      	subs	r2, r2, r3
  4020dc:	07db      	lsls	r3, r3, #31
  4020de:	bf1c      	itt	ne
  4020e0:	f811 3b01 	ldrbne.w	r3, [r1], #1
  4020e4:	f800 3b01 	strbne.w	r3, [r0], #1
  4020e8:	d380      	bcc.n	401fec <memcpy+0xc>
  4020ea:	f831 3b02 	ldrh.w	r3, [r1], #2
  4020ee:	f820 3b02 	strh.w	r3, [r0], #2
  4020f2:	e77b      	b.n	401fec <memcpy+0xc>
  4020f4:	3a04      	subs	r2, #4
  4020f6:	d3d9      	bcc.n	4020ac <memcpy+0xcc>
  4020f8:	3a01      	subs	r2, #1
  4020fa:	f811 3b01 	ldrb.w	r3, [r1], #1
  4020fe:	f800 3b01 	strb.w	r3, [r0], #1
  402102:	d2f9      	bcs.n	4020f8 <memcpy+0x118>
  402104:	780b      	ldrb	r3, [r1, #0]
  402106:	7003      	strb	r3, [r0, #0]
  402108:	784b      	ldrb	r3, [r1, #1]
  40210a:	7043      	strb	r3, [r0, #1]
  40210c:	788b      	ldrb	r3, [r1, #2]
  40210e:	7083      	strb	r3, [r0, #2]
  402110:	4660      	mov	r0, ip
  402112:	4770      	bx	lr

00402114 <memset>:
  402114:	b470      	push	{r4, r5, r6}
  402116:	0784      	lsls	r4, r0, #30
  402118:	d046      	beq.n	4021a8 <memset+0x94>
  40211a:	1e54      	subs	r4, r2, #1
  40211c:	2a00      	cmp	r2, #0
  40211e:	d041      	beq.n	4021a4 <memset+0x90>
  402120:	b2cd      	uxtb	r5, r1
  402122:	4603      	mov	r3, r0
  402124:	e002      	b.n	40212c <memset+0x18>
  402126:	1e62      	subs	r2, r4, #1
  402128:	b3e4      	cbz	r4, 4021a4 <memset+0x90>
  40212a:	4614      	mov	r4, r2
  40212c:	f803 5b01 	strb.w	r5, [r3], #1
  402130:	079a      	lsls	r2, r3, #30
  402132:	d1f8      	bne.n	402126 <memset+0x12>
  402134:	2c03      	cmp	r4, #3
  402136:	d92e      	bls.n	402196 <memset+0x82>
  402138:	b2cd      	uxtb	r5, r1
  40213a:	ea45 2505 	orr.w	r5, r5, r5, lsl #8
  40213e:	2c0f      	cmp	r4, #15
  402140:	ea45 4505 	orr.w	r5, r5, r5, lsl #16
  402144:	d919      	bls.n	40217a <memset+0x66>
  402146:	f103 0210 	add.w	r2, r3, #16
  40214a:	4626      	mov	r6, r4
  40214c:	3e10      	subs	r6, #16
  40214e:	2e0f      	cmp	r6, #15
  402150:	f842 5c10 	str.w	r5, [r2, #-16]
  402154:	f842 5c0c 	str.w	r5, [r2, #-12]
  402158:	f842 5c08 	str.w	r5, [r2, #-8]
  40215c:	f842 5c04 	str.w	r5, [r2, #-4]
  402160:	f102 0210 	add.w	r2, r2, #16
  402164:	d8f2      	bhi.n	40214c <memset+0x38>
  402166:	f1a4 0210 	sub.w	r2, r4, #16
  40216a:	f022 020f 	bic.w	r2, r2, #15
  40216e:	f004 040f 	and.w	r4, r4, #15
  402172:	3210      	adds	r2, #16
  402174:	2c03      	cmp	r4, #3
  402176:	4413      	add	r3, r2
  402178:	d90d      	bls.n	402196 <memset+0x82>
  40217a:	461e      	mov	r6, r3
  40217c:	4622      	mov	r2, r4
  40217e:	3a04      	subs	r2, #4
  402180:	2a03      	cmp	r2, #3
  402182:	f846 5b04 	str.w	r5, [r6], #4
  402186:	d8fa      	bhi.n	40217e <memset+0x6a>
  402188:	1f22      	subs	r2, r4, #4
  40218a:	f022 0203 	bic.w	r2, r2, #3
  40218e:	3204      	adds	r2, #4
  402190:	4413      	add	r3, r2
  402192:	f004 0403 	and.w	r4, r4, #3
  402196:	b12c      	cbz	r4, 4021a4 <memset+0x90>
  402198:	b2c9      	uxtb	r1, r1
  40219a:	441c      	add	r4, r3
  40219c:	f803 1b01 	strb.w	r1, [r3], #1
  4021a0:	42a3      	cmp	r3, r4
  4021a2:	d1fb      	bne.n	40219c <memset+0x88>
  4021a4:	bc70      	pop	{r4, r5, r6}
  4021a6:	4770      	bx	lr
  4021a8:	4614      	mov	r4, r2
  4021aa:	4603      	mov	r3, r0
  4021ac:	e7c2      	b.n	402134 <memset+0x20>
  4021ae:	bf00      	nop

004021b0 <register_fini>:
  4021b0:	4b02      	ldr	r3, [pc, #8]	; (4021bc <register_fini+0xc>)
  4021b2:	b113      	cbz	r3, 4021ba <register_fini+0xa>
  4021b4:	4802      	ldr	r0, [pc, #8]	; (4021c0 <register_fini+0x10>)
  4021b6:	f000 b805 	b.w	4021c4 <atexit>
  4021ba:	4770      	bx	lr
  4021bc:	00000000 	.word	0x00000000
  4021c0:	004021d1 	.word	0x004021d1

004021c4 <atexit>:
  4021c4:	2300      	movs	r3, #0
  4021c6:	4601      	mov	r1, r0
  4021c8:	461a      	mov	r2, r3
  4021ca:	4618      	mov	r0, r3
  4021cc:	f000 b814 	b.w	4021f8 <__register_exitproc>

004021d0 <__libc_fini_array>:
  4021d0:	b538      	push	{r3, r4, r5, lr}
  4021d2:	4d07      	ldr	r5, [pc, #28]	; (4021f0 <__libc_fini_array+0x20>)
  4021d4:	4c07      	ldr	r4, [pc, #28]	; (4021f4 <__libc_fini_array+0x24>)
  4021d6:	1b2c      	subs	r4, r5, r4
  4021d8:	10a4      	asrs	r4, r4, #2
  4021da:	d005      	beq.n	4021e8 <__libc_fini_array+0x18>
  4021dc:	3c01      	subs	r4, #1
  4021de:	f855 3d04 	ldr.w	r3, [r5, #-4]!
  4021e2:	4798      	blx	r3
  4021e4:	2c00      	cmp	r4, #0
  4021e6:	d1f9      	bne.n	4021dc <__libc_fini_array+0xc>
  4021e8:	e8bd 4038 	ldmia.w	sp!, {r3, r4, r5, lr}
  4021ec:	f000 b912 	b.w	402414 <_fini>
  4021f0:	00402424 	.word	0x00402424
  4021f4:	00402420 	.word	0x00402420

004021f8 <__register_exitproc>:
  4021f8:	e92d 47f0 	stmdb	sp!, {r4, r5, r6, r7, r8, r9, sl, lr}
  4021fc:	4c25      	ldr	r4, [pc, #148]	; (402294 <__register_exitproc+0x9c>)
  4021fe:	6825      	ldr	r5, [r4, #0]
  402200:	f8d5 4148 	ldr.w	r4, [r5, #328]	; 0x148
  402204:	4606      	mov	r6, r0
  402206:	4688      	mov	r8, r1
  402208:	4692      	mov	sl, r2
  40220a:	4699      	mov	r9, r3
  40220c:	b3c4      	cbz	r4, 402280 <__register_exitproc+0x88>
  40220e:	6860      	ldr	r0, [r4, #4]
  402210:	281f      	cmp	r0, #31
  402212:	dc17      	bgt.n	402244 <__register_exitproc+0x4c>
  402214:	1c43      	adds	r3, r0, #1
  402216:	b176      	cbz	r6, 402236 <__register_exitproc+0x3e>
  402218:	eb04 0580 	add.w	r5, r4, r0, lsl #2
  40221c:	2201      	movs	r2, #1
  40221e:	f8c5 a088 	str.w	sl, [r5, #136]	; 0x88
  402222:	f8d4 1188 	ldr.w	r1, [r4, #392]	; 0x188
  402226:	4082      	lsls	r2, r0
  402228:	4311      	orrs	r1, r2
  40222a:	2e02      	cmp	r6, #2
  40222c:	f8c4 1188 	str.w	r1, [r4, #392]	; 0x188
  402230:	f8c5 9108 	str.w	r9, [r5, #264]	; 0x108
  402234:	d01e      	beq.n	402274 <__register_exitproc+0x7c>
  402236:	3002      	adds	r0, #2
  402238:	6063      	str	r3, [r4, #4]
  40223a:	f844 8020 	str.w	r8, [r4, r0, lsl #2]
  40223e:	2000      	movs	r0, #0
  402240:	e8bd 87f0 	ldmia.w	sp!, {r4, r5, r6, r7, r8, r9, sl, pc}
  402244:	4b14      	ldr	r3, [pc, #80]	; (402298 <__register_exitproc+0xa0>)
  402246:	b303      	cbz	r3, 40228a <__register_exitproc+0x92>
  402248:	f44f 70c8 	mov.w	r0, #400	; 0x190
  40224c:	f3af 8000 	nop.w
  402250:	4604      	mov	r4, r0
  402252:	b1d0      	cbz	r0, 40228a <__register_exitproc+0x92>
  402254:	f8d5 3148 	ldr.w	r3, [r5, #328]	; 0x148
  402258:	2700      	movs	r7, #0
  40225a:	e880 0088 	stmia.w	r0, {r3, r7}
  40225e:	f8c5 4148 	str.w	r4, [r5, #328]	; 0x148
  402262:	4638      	mov	r0, r7
  402264:	2301      	movs	r3, #1
  402266:	f8c4 7188 	str.w	r7, [r4, #392]	; 0x188
  40226a:	f8c4 718c 	str.w	r7, [r4, #396]	; 0x18c
  40226e:	2e00      	cmp	r6, #0
  402270:	d0e1      	beq.n	402236 <__register_exitproc+0x3e>
  402272:	e7d1      	b.n	402218 <__register_exitproc+0x20>
  402274:	f8d4 118c 	ldr.w	r1, [r4, #396]	; 0x18c
  402278:	430a      	orrs	r2, r1
  40227a:	f8c4 218c 	str.w	r2, [r4, #396]	; 0x18c
  40227e:	e7da      	b.n	402236 <__register_exitproc+0x3e>
  402280:	f505 74a6 	add.w	r4, r5, #332	; 0x14c
  402284:	f8c5 4148 	str.w	r4, [r5, #328]	; 0x148
  402288:	e7c1      	b.n	40220e <__register_exitproc+0x16>
  40228a:	f04f 30ff 	mov.w	r0, #4294967295
  40228e:	e8bd 87f0 	ldmia.w	sp!, {r4, r5, r6, r7, r8, r9, sl, pc}
  402292:	bf00      	nop
  402294:	004023fc 	.word	0x004023fc
  402298:	00000000 	.word	0x00000000

0040229c <sd_trans_multipliers>:
  40229c:	00000000 0000000a 0000000c 0000000d     ................
  4022ac:	0000000f 00000014 00000019 0000001e     ................
  4022bc:	00000023 00000028 0000002d 00000032     #...(...-...2...
  4022cc:	00000037 0000003c 00000046 00000050     7...<...F...P...

004022dc <sd_mmc_trans_units>:
  4022dc:	0000000a 00000064 000003e8 00002710     ....d........'..
	...

004022f8 <mmc_trans_multipliers>:
  4022f8:	00000000 0000000a 0000000c 0000000d     ................
  402308:	0000000f 00000014 0000001a 0000001e     ................
  402318:	00000023 00000028 0000002d 00000034     #...(...-...4...
  402328:	00000037 0000003c 00000046 00000050     7...<...F...P...
  402338:	00000001 00000002 00000004 00000008     ................
  402348:	00000010 00000020 00000040 00000080     .... ...@.......
  402358:	00000100 00000200 00000400              ............

00402364 <CSWTCH.6>:
  402364:	03000100 3a070200 4948473f 4d4c4b4a     .......:?GHIJKLM
  402374:	52514f4e 56555453 5a595857 675e5c5b     NOQRSTUVWXYZ[\^g
  402384:	6b6a6968 706f6e6c 7a797371 6d46417b     hijklnopqsyz{AFm
  402394:	80af0a06 034f1e1e 8d6ffffd 0127bac8     ......O...o...'.
  4023a4:	161c0b1e 0124a0b9 8383308c 6f8c053d     ......$..0..=..o
  4023b4:	3f44053c 053c3f4e 0760708b 6f8c053d     <.D?N?<..p`.=..o
  4023c4:	44525257 54710541 54700941 09410871     WRRDA.qTA.pTq.A.
  4023d4:	05410745 50535471 308a2000 99220101     E.A.qTSP. .0..".
  4023e4:	516e4300                                .CnQ

004023e8 <CSWTCH.86>:
  4023e8:	00000200 00000400 00000000 00000600     ................
  4023f8:	00000043                                C...

004023fc <_global_impure_ptr>:
  4023fc:	20400018                                ..@ 

00402400 <_init>:
  402400:	b5f8      	push	{r3, r4, r5, r6, r7, lr}
  402402:	bf00      	nop
  402404:	bcf8      	pop	{r3, r4, r5, r6, r7}
  402406:	bc08      	pop	{r3}
  402408:	469e      	mov	lr, r3
  40240a:	4770      	bx	lr

0040240c <__init_array_start>:
  40240c:	004021b1 	.word	0x004021b1

00402410 <__frame_dummy_init_array_entry>:
  402410:	00400165                                e.@.

00402414 <_fini>:
  402414:	b5f8      	push	{r3, r4, r5, r6, r7, lr}
  402416:	bf00      	nop
  402418:	bcf8      	pop	{r3, r4, r5, r6, r7}
  40241a:	bc08      	pop	{r3}
  40241c:	469e      	mov	lr, r3
  40241e:	4770      	bx	lr

00402420 <__fini_array_start>:
  402420:	00400141 	.word	0x00400141

Disassembly of section .relocate:

20400000 <portable_delay_cycles>:
20400000:	f3bf 8f5f 	dmb	sy
20400004:	3801      	subs	r0, #1
20400006:	d1fb      	bne.n	20400000 <portable_delay_cycles>
20400008:	4770      	bx	lr

2040000a <g_interrupt_enabled>:
2040000a:	0001                                        ..

2040000c <SystemCoreClock>:
2040000c:	0900 003d                                   ..=.

20400010 <gain>:
20400010:	0001 0000 0000 0000                         ........

20400018 <impure_data>:
20400018:	0000 0000 0304 2040 036c 2040 03d4 2040     ......@ l.@ ..@ 
	...
2040004c:	23f8 0040 0000 0000 0000 0000 0000 0000     .#@.............
	...
204000c0:	0001 0000 0000 0000 330e abcd 1234 e66d     .........3..4.m.
204000d0:	deec 0005 000b 0000 0000 0000 0000 0000     ................
	...
