
MiniscopeUntethered.elf:     file format elf32-littlearm

Sections:
Idx Name          Size      VMA       LMA       File off  Algn
  0 .text         000026ec  00400000  00400000  00010000  2**2
                  CONTENTS, ALLOC, LOAD, READONLY, CODE
  1 .relocate     00000444  20400000  004026ec  00020000  2**3
                  CONTENTS, ALLOC, LOAD, CODE
  2 .bss          0003e108  20400448  00402b38  00020448  2**3
                  ALLOC
  3 .stack        00002000  2043e550  00440c40  00020448  2**0
                  ALLOC
  4 .heap         00000200  20440550  00442c40  00020448  2**0
                  ALLOC
  5 .ARM.attributes 0000002e  00000000  00000000  00020444  2**0
                  CONTENTS, READONLY
  6 .comment      00000059  00000000  00000000  00020472  2**0
                  CONTENTS, READONLY
  7 .debug_info   00014e8b  00000000  00000000  000204cb  2**0
                  CONTENTS, READONLY, DEBUGGING
  8 .debug_abbrev 0000292d  00000000  00000000  00035356  2**0
                  CONTENTS, READONLY, DEBUGGING
  9 .debug_loc    00004f30  00000000  00000000  00037c83  2**0
                  CONTENTS, READONLY, DEBUGGING
 10 .debug_aranges 000007f8  00000000  00000000  0003cbb3  2**0
                  CONTENTS, READONLY, DEBUGGING
 11 .debug_ranges 000008e0  00000000  00000000  0003d3ab  2**0
                  CONTENTS, READONLY, DEBUGGING
 12 .debug_macro  0001ddd0  00000000  00000000  0003dc8b  2**0
                  CONTENTS, READONLY, DEBUGGING
 13 .debug_line   0000ae47  00000000  00000000  0005ba5b  2**0
                  CONTENTS, READONLY, DEBUGGING
 14 .debug_str    00088311  00000000  00000000  000668a2  2**0
                  CONTENTS, READONLY, DEBUGGING
 15 .debug_frame  0000131c  00000000  00000000  000eebb4  2**2
                  CONTENTS, READONLY, DEBUGGING

Disassembly of section .text:

00400000 <exception_table>:
  400000:	50 05 44 20 4d 16 40 00 49 16 40 00 49 16 40 00     P.D M.@.I.@.I.@.
  400010:	49 16 40 00 49 16 40 00 49 16 40 00 00 00 00 00     I.@.I.@.I.@.....
	...
  40002c:	49 16 40 00 49 16 40 00 00 00 00 00 49 16 40 00     I.@.I.@.....I.@.
  40003c:	f9 12 40 00 49 16 40 00 49 16 40 00 49 16 40 00     ..@.I.@.I.@.I.@.
  40004c:	49 16 40 00 49 16 40 00 49 16 40 00 49 16 40 00     I.@.I.@.I.@.I.@.
  40005c:	49 16 40 00 49 16 40 00 00 00 00 00 05 1e 40 00     I.@.I.@.......@.
  40006c:	49 16 40 00 00 00 00 00 49 16 40 00 49 16 40 00     I.@.....I.@.I.@.
  40007c:	49 16 40 00 49 16 40 00 00 00 00 00 49 16 40 00     I.@.I.@.....I.@.
  40008c:	49 16 40 00 49 16 40 00 49 16 40 00 49 16 40 00     I.@.I.@.I.@.I.@.
  40009c:	49 16 40 00 49 16 40 00 49 16 40 00 00 00 00 00     I.@.I.@.I.@.....
	...
  4000b4:	49 16 40 00 49 16 40 00 49 16 40 00 49 16 40 00     I.@.I.@.I.@.I.@.
  4000c4:	49 16 40 00 49 16 40 00 49 16 40 00 00 00 00 00     I.@.I.@.I.@.....
  4000d4:	49 16 40 00 00 00 00 00 49 16 40 00 49 16 40 00     I.@.....I.@.I.@.
  4000e4:	49 16 40 00 49 16 40 00 49 16 40 00 49 16 40 00     I.@.I.@.I.@.I.@.
  4000f4:	49 16 40 00 49 16 40 00 00 00 00 00 00 00 00 00     I.@.I.@.........
  400104:	00 00 00 00 49 16 40 00 49 16 40 00 49 16 40 00     ....I.@.I.@.I.@.
	...
  400120:	49 16 40 00 49 16 40 00 45 1e 40 00 49 16 40 00     I.@.I.@.E.@.I.@.
  400130:	49 16 40 00 00 00 00 00 00 00 00 00 49 16 40 00     I.@.........I.@.

00400140 <__do_global_dtors_aux>:
  400140:	b510      	push	{r4, lr}
  400142:	4c05      	ldr	r4, [pc, #20]	; (400158 <__do_global_dtors_aux+0x18>)
  400144:	7823      	ldrb	r3, [r4, #0]
  400146:	b933      	cbnz	r3, 400156 <__do_global_dtors_aux+0x16>
  400148:	4b04      	ldr	r3, [pc, #16]	; (40015c <__do_global_dtors_aux+0x1c>)
  40014a:	b113      	cbz	r3, 400152 <__do_global_dtors_aux+0x12>
  40014c:	4804      	ldr	r0, [pc, #16]	; (400160 <__do_global_dtors_aux+0x20>)
  40014e:	f3af 8000 	nop.w
  400152:	2301      	movs	r3, #1
  400154:	7023      	strb	r3, [r4, #0]
  400156:	bd10      	pop	{r4, pc}
  400158:	20400448 	.word	0x20400448
  40015c:	00000000 	.word	0x00000000
  400160:	004026ec 	.word	0x004026ec

00400164 <frame_dummy>:
  400164:	4b0c      	ldr	r3, [pc, #48]	; (400198 <frame_dummy+0x34>)
  400166:	b143      	cbz	r3, 40017a <frame_dummy+0x16>
  400168:	480c      	ldr	r0, [pc, #48]	; (40019c <frame_dummy+0x38>)
  40016a:	490d      	ldr	r1, [pc, #52]	; (4001a0 <frame_dummy+0x3c>)
  40016c:	b510      	push	{r4, lr}
  40016e:	f3af 8000 	nop.w
  400172:	480c      	ldr	r0, [pc, #48]	; (4001a4 <frame_dummy+0x40>)
  400174:	6803      	ldr	r3, [r0, #0]
  400176:	b923      	cbnz	r3, 400182 <frame_dummy+0x1e>
  400178:	bd10      	pop	{r4, pc}
  40017a:	480a      	ldr	r0, [pc, #40]	; (4001a4 <frame_dummy+0x40>)
  40017c:	6803      	ldr	r3, [r0, #0]
  40017e:	b933      	cbnz	r3, 40018e <frame_dummy+0x2a>
  400180:	4770      	bx	lr
  400182:	4b09      	ldr	r3, [pc, #36]	; (4001a8 <frame_dummy+0x44>)
  400184:	2b00      	cmp	r3, #0
  400186:	d0f7      	beq.n	400178 <frame_dummy+0x14>
  400188:	e8bd 4010 	ldmia.w	sp!, {r4, lr}
  40018c:	4718      	bx	r3
  40018e:	4b06      	ldr	r3, [pc, #24]	; (4001a8 <frame_dummy+0x44>)
  400190:	2b00      	cmp	r3, #0
  400192:	d0f5      	beq.n	400180 <frame_dummy+0x1c>
  400194:	4718      	bx	r3
  400196:	bf00      	nop
  400198:	00000000 	.word	0x00000000
  40019c:	004026ec 	.word	0x004026ec
  4001a0:	2040044c 	.word	0x2040044c
  4001a4:	004026ec 	.word	0x004026ec
  4001a8:	00000000 	.word	0x00000000

004001ac <sd_mmc_configure_slot>:

/**
 * \brief Configures the driver with the selected card configuration
 */
static void sd_mmc_configure_slot(void)
{
  4001ac:	b510      	push	{r4, lr}
	driver_select_device(sd_mmc_slot_sel, sd_mmc_card->clock,
  4001ae:	4b06      	ldr	r3, [pc, #24]	; (4001c8 <sd_mmc_configure_slot+0x1c>)
  4001b0:	6819      	ldr	r1, [r3, #0]
  4001b2:	7f8b      	ldrb	r3, [r1, #30]
  4001b4:	3300      	adds	r3, #0
  4001b6:	bf18      	it	ne
  4001b8:	2301      	movne	r3, #1
  4001ba:	7b4a      	ldrb	r2, [r1, #13]
  4001bc:	6809      	ldr	r1, [r1, #0]
  4001be:	4803      	ldr	r0, [pc, #12]	; (4001cc <sd_mmc_configure_slot+0x20>)
  4001c0:	7800      	ldrb	r0, [r0, #0]
  4001c2:	4c03      	ldr	r4, [pc, #12]	; (4001d0 <sd_mmc_configure_slot+0x24>)
  4001c4:	47a0      	blx	r4
  4001c6:	bd10      	pop	{r4, pc}
  4001c8:	20400464 	.word	0x20400464
  4001cc:	2040048c 	.word	0x2040048c
  4001d0:	00400cc5 	.word	0x00400cc5

004001d4 <sd_mmc_select_slot>:
	if (slot >= SD_MMC_MEM_CNT) {
  4001d4:	b108      	cbz	r0, 4001da <sd_mmc_select_slot+0x6>
		return SD_MMC_ERR_SLOT;
  4001d6:	2004      	movs	r0, #4
  4001d8:	4770      	bx	lr
{
  4001da:	b510      	push	{r4, lr}
	if ((sd_mmc_cards[slot].state == SD_MMC_CARD_STATE_NO_CARD)
  4001dc:	4b0e      	ldr	r3, [pc, #56]	; (400218 <sd_mmc_select_slot+0x44>)
			|| (sd_mmc_cards[slot].state == SD_MMC_CARD_STATE_UNUSABLE)) {
  4001de:	7a9b      	ldrb	r3, [r3, #10]
  4001e0:	3b03      	subs	r3, #3
	if ((sd_mmc_cards[slot].state == SD_MMC_CARD_STATE_NO_CARD)
  4001e2:	b2db      	uxtb	r3, r3
  4001e4:	2b01      	cmp	r3, #1
  4001e6:	d90d      	bls.n	400204 <sd_mmc_select_slot+0x30>
	sd_mmc_slot_sel = slot;
  4001e8:	2200      	movs	r2, #0
  4001ea:	4b0c      	ldr	r3, [pc, #48]	; (40021c <sd_mmc_select_slot+0x48>)
  4001ec:	701a      	strb	r2, [r3, #0]
	sd_mmc_card = &sd_mmc_cards[slot];
  4001ee:	4c0a      	ldr	r4, [pc, #40]	; (400218 <sd_mmc_select_slot+0x44>)
  4001f0:	4b0b      	ldr	r3, [pc, #44]	; (400220 <sd_mmc_select_slot+0x4c>)
  4001f2:	601c      	str	r4, [r3, #0]
	sd_mmc_configure_slot();
  4001f4:	4b0b      	ldr	r3, [pc, #44]	; (400224 <sd_mmc_select_slot+0x50>)
  4001f6:	4798      	blx	r3
			SD_MMC_INIT_ONGOING : SD_MMC_OK;
  4001f8:	7aa0      	ldrb	r0, [r4, #10]
  4001fa:	2802      	cmp	r0, #2
  4001fc:	bf14      	ite	ne
  4001fe:	2000      	movne	r0, #0
  400200:	2001      	moveq	r0, #1
  400202:	bd10      	pop	{r4, pc}
		sd_mmc_cards[slot].state = SD_MMC_CARD_STATE_INIT;
  400204:	4b04      	ldr	r3, [pc, #16]	; (400218 <sd_mmc_select_slot+0x44>)
  400206:	2202      	movs	r2, #2
  400208:	729a      	strb	r2, [r3, #10]
		sd_mmc_cards[slot].clock = SDMMC_CLOCK_INIT;
  40020a:	4a07      	ldr	r2, [pc, #28]	; (400228 <sd_mmc_select_slot+0x54>)
  40020c:	601a      	str	r2, [r3, #0]
		sd_mmc_cards[slot].bus_width = 1;
  40020e:	2201      	movs	r2, #1
  400210:	735a      	strb	r2, [r3, #13]
		sd_mmc_cards[slot].high_speed = 0;
  400212:	2200      	movs	r2, #0
  400214:	779a      	strb	r2, [r3, #30]
  400216:	e7e7      	b.n	4001e8 <sd_mmc_select_slot+0x14>
  400218:	20400468 	.word	0x20400468
  40021c:	2040048c 	.word	0x2040048c
  400220:	20400464 	.word	0x20400464
  400224:	004001ad 	.word	0x004001ad
  400228:	00061a80 	.word	0x00061a80

0040022c <sd_mmc_cmd9_mci>:
{
  40022c:	b510      	push	{r4, lr}
	if (!driver_send_cmd(SDMMC_MCI_CMD9_SEND_CSD, (uint32_t)sd_mmc_card->rca << 16)) {
  40022e:	4b09      	ldr	r3, [pc, #36]	; (400254 <sd_mmc_cmd9_mci+0x28>)
  400230:	681b      	ldr	r3, [r3, #0]
  400232:	8919      	ldrh	r1, [r3, #8]
  400234:	0409      	lsls	r1, r1, #16
  400236:	f641 3009 	movw	r0, #6921	; 0x1b09
  40023a:	4b07      	ldr	r3, [pc, #28]	; (400258 <sd_mmc_cmd9_mci+0x2c>)
  40023c:	4798      	blx	r3
  40023e:	4604      	mov	r4, r0
  400240:	b908      	cbnz	r0, 400246 <sd_mmc_cmd9_mci+0x1a>
}
  400242:	4620      	mov	r0, r4
  400244:	bd10      	pop	{r4, pc}
	driver_get_response_128(sd_mmc_card->csd);
  400246:	4b03      	ldr	r3, [pc, #12]	; (400254 <sd_mmc_cmd9_mci+0x28>)
  400248:	6818      	ldr	r0, [r3, #0]
  40024a:	300e      	adds	r0, #14
  40024c:	4b03      	ldr	r3, [pc, #12]	; (40025c <sd_mmc_cmd9_mci+0x30>)
  40024e:	4798      	blx	r3
	return true;
  400250:	e7f7      	b.n	400242 <sd_mmc_cmd9_mci+0x16>
  400252:	bf00      	nop
  400254:	20400464 	.word	0x20400464
  400258:	00400d59 	.word	0x00400d59
  40025c:	00400d85 	.word	0x00400d85

00400260 <sd_mmc_deselect_slot>:

/**
 * \brief Deselect the current card slot
 */
static void sd_mmc_deselect_slot(void)
{
  400260:	b508      	push	{r3, lr}
	if (sd_mmc_slot_sel < SD_MMC_MEM_CNT) {
  400262:	4b04      	ldr	r3, [pc, #16]	; (400274 <sd_mmc_deselect_slot+0x14>)
  400264:	781b      	ldrb	r3, [r3, #0]
  400266:	b103      	cbz	r3, 40026a <sd_mmc_deselect_slot+0xa>
  400268:	bd08      	pop	{r3, pc}
		driver_deselect_device(sd_mmc_slot_sel);
  40026a:	2000      	movs	r0, #0
  40026c:	4b02      	ldr	r3, [pc, #8]	; (400278 <sd_mmc_deselect_slot+0x18>)
  40026e:	4798      	blx	r3
	}
}
  400270:	e7fa      	b.n	400268 <sd_mmc_deselect_slot+0x8>
  400272:	bf00      	nop
  400274:	2040048c 	.word	0x2040048c
  400278:	00400d35 	.word	0x00400d35

0040027c <sd_mmc_init>:

//-------------------------------------------------------------------
//--------------------- PUBLIC FUNCTIONS ----------------------------

void sd_mmc_init(void)
{
  40027c:	b508      	push	{r3, lr}
	pmc_enable_periph_clk(SD_MMC_##slot##_WP_PIO_ID);
	MREPEAT(SD_MMC_MEM_CNT, SD_MMC_ENABLE_WP_PIN, ~)
# undef SD_MMC_ENABLE_WP_PIN
#endif
	for (uint8_t slot = 0; slot < SD_MMC_MEM_CNT; slot++) {
		sd_mmc_cards[slot].state = SD_MMC_CARD_STATE_NO_CARD;
  40027e:	2204      	movs	r2, #4
  400280:	4b03      	ldr	r3, [pc, #12]	; (400290 <sd_mmc_init+0x14>)
  400282:	729a      	strb	r2, [r3, #10]
	}
	sd_mmc_slot_sel = 0xFF; // No slot configurated
  400284:	22ff      	movs	r2, #255	; 0xff
  400286:	4b03      	ldr	r3, [pc, #12]	; (400294 <sd_mmc_init+0x18>)
  400288:	701a      	strb	r2, [r3, #0]
	driver_init();
  40028a:	4b03      	ldr	r3, [pc, #12]	; (400298 <sd_mmc_init+0x1c>)
  40028c:	4798      	blx	r3
  40028e:	bd08      	pop	{r3, pc}
  400290:	20400468 	.word	0x20400468
  400294:	2040048c 	.word	0x2040048c
  400298:	00400c89 	.word	0x00400c89

0040029c <sd_mmc_check>:
{
	return SD_MMC_MEM_CNT;
}

sd_mmc_err_t sd_mmc_check(uint8_t slot)
{
  40029c:	e92d 43f0 	stmdb	sp!, {r4, r5, r6, r7, r8, r9, lr}
  4002a0:	b095      	sub	sp, #84	; 0x54
	sd_mmc_err_t sd_mmc_err;

	sd_mmc_err = sd_mmc_select_slot(slot);
  4002a2:	4b8a      	ldr	r3, [pc, #552]	; (4004cc <sd_mmc_check+0x230>)
  4002a4:	4798      	blx	r3
  4002a6:	4604      	mov	r4, r0
	if (sd_mmc_err != SD_MMC_INIT_ONGOING) {
  4002a8:	2801      	cmp	r0, #1
  4002aa:	d005      	beq.n	4002b8 <sd_mmc_check+0x1c>
		sd_mmc_deselect_slot();
  4002ac:	4b88      	ldr	r3, [pc, #544]	; (4004d0 <sd_mmc_check+0x234>)
  4002ae:	4798      	blx	r3
	}
	sd_mmc_debug("SD/MMC card initialization failed\n\r");
	sd_mmc_card->state = SD_MMC_CARD_STATE_UNUSABLE;
	sd_mmc_deselect_slot();
	return SD_MMC_ERR_UNUSABLE;
}
  4002b0:	4620      	mov	r0, r4
  4002b2:	b015      	add	sp, #84	; 0x54
  4002b4:	e8bd 83f0 	ldmia.w	sp!, {r4, r5, r6, r7, r8, r9, pc}
	sd_mmc_card->type = CARD_TYPE_SD;
  4002b8:	4b86      	ldr	r3, [pc, #536]	; (4004d4 <sd_mmc_check+0x238>)
  4002ba:	681b      	ldr	r3, [r3, #0]
  4002bc:	2201      	movs	r2, #1
  4002be:	72da      	strb	r2, [r3, #11]
	sd_mmc_card->version = CARD_VER_UNKNOWN;
  4002c0:	2500      	movs	r5, #0
  4002c2:	731d      	strb	r5, [r3, #12]
	sd_mmc_card->rca = 0;
  4002c4:	811d      	strh	r5, [r3, #8]
	driver_send_clock();
  4002c6:	4b84      	ldr	r3, [pc, #528]	; (4004d8 <sd_mmc_check+0x23c>)
  4002c8:	4798      	blx	r3
	if (!driver_send_cmd(SDMMC_MCI_CMD0_GO_IDLE_STATE, 0)) {
  4002ca:	4629      	mov	r1, r5
  4002cc:	f44f 4080 	mov.w	r0, #16384	; 0x4000
  4002d0:	4b82      	ldr	r3, [pc, #520]	; (4004dc <sd_mmc_check+0x240>)
  4002d2:	4798      	blx	r3
  4002d4:	b930      	cbnz	r0, 4002e4 <sd_mmc_check+0x48>
	sd_mmc_card->state = SD_MMC_CARD_STATE_UNUSABLE;
  4002d6:	4b7f      	ldr	r3, [pc, #508]	; (4004d4 <sd_mmc_check+0x238>)
  4002d8:	681b      	ldr	r3, [r3, #0]
  4002da:	2403      	movs	r4, #3
  4002dc:	729c      	strb	r4, [r3, #10]
	sd_mmc_deselect_slot();
  4002de:	4b7c      	ldr	r3, [pc, #496]	; (4004d0 <sd_mmc_check+0x234>)
  4002e0:	4798      	blx	r3
	return SD_MMC_ERR_UNUSABLE;
  4002e2:	e7e5      	b.n	4002b0 <sd_mmc_check+0x14>
	if (!driver_send_cmd(SD_CMD8_SEND_IF_COND,
  4002e4:	f44f 71d5 	mov.w	r1, #426	; 0x1aa
  4002e8:	f245 5008 	movw	r0, #21768	; 0x5508
  4002ec:	4b7b      	ldr	r3, [pc, #492]	; (4004dc <sd_mmc_check+0x240>)
  4002ee:	4798      	blx	r3
  4002f0:	2800      	cmp	r0, #0
  4002f2:	f040 8090 	bne.w	400416 <sd_mmc_check+0x17a>
	*v2 = 0;
  4002f6:	2200      	movs	r2, #0
	if (sd_mmc_card->type & CARD_TYPE_SD) {
  4002f8:	4b76      	ldr	r3, [pc, #472]	; (4004d4 <sd_mmc_check+0x238>)
  4002fa:	681b      	ldr	r3, [r3, #0]
  4002fc:	7adb      	ldrb	r3, [r3, #11]
  4002fe:	f013 0f01 	tst.w	r3, #1
  400302:	f040 82a7 	bne.w	400854 <sd_mmc_check+0x5b8>
	if (!driver_send_cmd(SD_CMD3_SEND_RELATIVE_ADDR, 0)) {
  400306:	2100      	movs	r1, #0
  400308:	f245 1003 	movw	r0, #20739	; 0x5103
  40030c:	4b73      	ldr	r3, [pc, #460]	; (4004dc <sd_mmc_check+0x240>)
  40030e:	4798      	blx	r3
  400310:	2800      	cmp	r0, #0
  400312:	d0e0      	beq.n	4002d6 <sd_mmc_check+0x3a>
	sd_mmc_card->rca = (driver_get_response() >> 16) & 0xFFFF;
  400314:	4d6f      	ldr	r5, [pc, #444]	; (4004d4 <sd_mmc_check+0x238>)
  400316:	682e      	ldr	r6, [r5, #0]
  400318:	4b71      	ldr	r3, [pc, #452]	; (4004e0 <sd_mmc_check+0x244>)
  40031a:	4798      	blx	r3
  40031c:	0c00      	lsrs	r0, r0, #16
  40031e:	8130      	strh	r0, [r6, #8]
	if (sd_mmc_card->type & CARD_TYPE_SD) {
  400320:	682b      	ldr	r3, [r5, #0]
  400322:	7adb      	ldrb	r3, [r3, #11]
  400324:	f013 0f01 	tst.w	r3, #1
  400328:	d034      	beq.n	400394 <sd_mmc_check+0xf8>
		if (!sd_mmc_cmd9_mci()) {
  40032a:	4b6e      	ldr	r3, [pc, #440]	; (4004e4 <sd_mmc_check+0x248>)
  40032c:	4798      	blx	r3
  40032e:	2800      	cmp	r0, #0
  400330:	d0d1      	beq.n	4002d6 <sd_mmc_check+0x3a>
	tran_speed = CSD_TRAN_SPEED(sd_mmc_card->csd);
  400332:	682b      	ldr	r3, [r5, #0]
 */
static inline uint32_t SDMMC_UNSTUFF_BITS(uint8_t *reg, uint16_t reg_size,
		uint16_t pos, uint8_t size)
{
	uint32_t value;
	value = reg[((reg_size - pos + 7) / 8) - 1] >> (pos % 8);
  400334:	7c5a      	ldrb	r2, [r3, #17]
	mul = sd_trans_multipliers[(tran_speed >> 3) & 0xF];
  400336:	f3c2 00c3 	ubfx	r0, r2, #3, #4
	unit = sd_mmc_trans_units[tran_speed & 0x7];
  40033a:	f002 0207 	and.w	r2, r2, #7
	sd_mmc_card->clock = unit * mul * 1000;
  40033e:	496a      	ldr	r1, [pc, #424]	; (4004e8 <sd_mmc_check+0x24c>)
  400340:	f851 1022 	ldr.w	r1, [r1, r2, lsl #2]
  400344:	f44f 727a 	mov.w	r2, #1000	; 0x3e8
  400348:	fb02 f201 	mul.w	r2, r2, r1
  40034c:	4967      	ldr	r1, [pc, #412]	; (4004ec <sd_mmc_check+0x250>)
  40034e:	f851 1020 	ldr.w	r1, [r1, r0, lsl #2]
  400352:	fb02 f201 	mul.w	r2, r2, r1
  400356:	601a      	str	r2, [r3, #0]
	if (CSD_STRUCTURE_VERSION(sd_mmc_card->csd) >= SD_CSD_VER_2_0) {
  400358:	7b9a      	ldrb	r2, [r3, #14]
  40035a:	0992      	lsrs	r2, r2, #6
  40035c:	f040 81b3 	bne.w	4006c6 <sd_mmc_check+0x42a>
  400360:	7d99      	ldrb	r1, [r3, #22]
	if (((pos % 8) + size) > 8) {
		value |= (uint32_t)reg[((reg_size - pos + 7) / 8) - 2] << (8 - (pos % 8));
  400362:	7d58      	ldrb	r0, [r3, #21]
	}
	if (((pos % 8) + size) > 16) {
		value |= (uint32_t)reg[((reg_size - pos + 7) / 8) - 3] << (16 - (pos % 8));
  400364:	7d1a      	ldrb	r2, [r3, #20]
  400366:	0292      	lsls	r2, r2, #10
	}
	if (((pos % 8) + size) > 16) {
		value |= (uint32_t)reg[((reg_size - pos + 7) / 8) - 3] << (16 - (pos % 8));
  400368:	ea42 0280 	orr.w	r2, r2, r0, lsl #2
  40036c:	ea42 12a1 	orr.w	r2, r2, r1, asr #6
	value = reg[((reg_size - pos + 7) / 8) - 1] >> (pos % 8);
  400370:	7e18      	ldrb	r0, [r3, #24]
		value |= (uint32_t)reg[((reg_size - pos + 7) / 8) - 2] << (8 - (pos % 8));
  400372:	7dd9      	ldrb	r1, [r3, #23]
  400374:	0049      	lsls	r1, r1, #1
  400376:	ea41 11e0 	orr.w	r1, r1, r0, asr #7
	}
	value &=  ((uint32_t)1 << size) - 1;
  40037a:	f3c2 020b 	ubfx	r2, r2, #0, #12
		uint32_t blocknr = ((SD_CSD_1_0_C_SIZE(sd_mmc_card->csd) + 1) *
  40037e:	3201      	adds	r2, #1
  400380:	f001 0107 	and.w	r1, r1, #7
				(1 << (SD_CSD_1_0_C_SIZE_MULT(sd_mmc_card->csd) + 2)));
  400384:	3102      	adds	r1, #2
		uint32_t blocknr = ((SD_CSD_1_0_C_SIZE(sd_mmc_card->csd) + 1) *
  400386:	408a      	lsls	r2, r1
  400388:	7cd9      	ldrb	r1, [r3, #19]
  40038a:	f001 010f 	and.w	r1, r1, #15
		sd_mmc_card->capacity = blocknr *
  40038e:	408a      	lsls	r2, r1
				/ 1024;
  400390:	0a92      	lsrs	r2, r2, #10
		sd_mmc_card->capacity = blocknr *
  400392:	605a      	str	r2, [r3, #4]
			(uint32_t)sd_mmc_card->rca << 16)) {
  400394:	4b4f      	ldr	r3, [pc, #316]	; (4004d4 <sd_mmc_check+0x238>)
  400396:	681b      	ldr	r3, [r3, #0]
  400398:	8919      	ldrh	r1, [r3, #8]
	if (!driver_send_cmd(SDMMC_CMD7_SELECT_CARD_CMD,
  40039a:	0409      	lsls	r1, r1, #16
  40039c:	f243 1007 	movw	r0, #12551	; 0x3107
  4003a0:	4b4e      	ldr	r3, [pc, #312]	; (4004dc <sd_mmc_check+0x240>)
  4003a2:	4798      	blx	r3
  4003a4:	2800      	cmp	r0, #0
  4003a6:	d096      	beq.n	4002d6 <sd_mmc_check+0x3a>
	if (sd_mmc_card->type & CARD_TYPE_SD) {
  4003a8:	4b4a      	ldr	r3, [pc, #296]	; (4004d4 <sd_mmc_check+0x238>)
  4003aa:	681b      	ldr	r3, [r3, #0]
  4003ac:	7ada      	ldrb	r2, [r3, #11]
  4003ae:	f012 0f01 	tst.w	r2, #1
  4003b2:	f000 8199 	beq.w	4006e8 <sd_mmc_check+0x44c>
	if (!driver_send_cmd(SDMMC_CMD55_APP_CMD, (uint32_t)sd_mmc_card->rca << 16)) {
  4003b6:	8919      	ldrh	r1, [r3, #8]
  4003b8:	0409      	lsls	r1, r1, #16
  4003ba:	f241 1037 	movw	r0, #4407	; 0x1137
  4003be:	4b47      	ldr	r3, [pc, #284]	; (4004dc <sd_mmc_check+0x240>)
  4003c0:	4798      	blx	r3
  4003c2:	2800      	cmp	r0, #0
  4003c4:	d087      	beq.n	4002d6 <sd_mmc_check+0x3a>
	if (!driver_adtc_start(SD_ACMD51_SEND_SCR, 0,
  4003c6:	2301      	movs	r3, #1
  4003c8:	9300      	str	r3, [sp, #0]
  4003ca:	2208      	movs	r2, #8
  4003cc:	2100      	movs	r1, #0
  4003ce:	4848      	ldr	r0, [pc, #288]	; (4004f0 <sd_mmc_check+0x254>)
  4003d0:	4d48      	ldr	r5, [pc, #288]	; (4004f4 <sd_mmc_check+0x258>)
  4003d2:	47a8      	blx	r5
  4003d4:	2800      	cmp	r0, #0
  4003d6:	f43f af7e 	beq.w	4002d6 <sd_mmc_check+0x3a>
	if (!driver_start_read_blocks(scr, 1)) {
  4003da:	2101      	movs	r1, #1
  4003dc:	a804      	add	r0, sp, #16
  4003de:	4b46      	ldr	r3, [pc, #280]	; (4004f8 <sd_mmc_check+0x25c>)
  4003e0:	4798      	blx	r3
  4003e2:	2800      	cmp	r0, #0
  4003e4:	f43f af77 	beq.w	4002d6 <sd_mmc_check+0x3a>
	if (!driver_wait_end_of_read_blocks()) {
  4003e8:	4b44      	ldr	r3, [pc, #272]	; (4004fc <sd_mmc_check+0x260>)
  4003ea:	4798      	blx	r3
  4003ec:	2800      	cmp	r0, #0
  4003ee:	f43f af72 	beq.w	4002d6 <sd_mmc_check+0x3a>
	switch (SD_SCR_SD_SPEC(scr)) {
  4003f2:	f89d 3010 	ldrb.w	r3, [sp, #16]
  4003f6:	f003 030f 	and.w	r3, r3, #15
  4003fa:	2b01      	cmp	r3, #1
  4003fc:	f000 81bb 	beq.w	400776 <sd_mmc_check+0x4da>
  400400:	2b00      	cmp	r3, #0
  400402:	f000 816d 	beq.w	4006e0 <sd_mmc_check+0x444>
  400406:	2b02      	cmp	r3, #2
  400408:	f000 81ba 	beq.w	400780 <sd_mmc_check+0x4e4>
		sd_mmc_card->version = CARD_VER_SD_1_0;
  40040c:	4b31      	ldr	r3, [pc, #196]	; (4004d4 <sd_mmc_check+0x238>)
  40040e:	681b      	ldr	r3, [r3, #0]
  400410:	2210      	movs	r2, #16
  400412:	731a      	strb	r2, [r3, #12]
  400414:	e168      	b.n	4006e8 <sd_mmc_check+0x44c>
	resp = driver_get_response();
  400416:	4b32      	ldr	r3, [pc, #200]	; (4004e0 <sd_mmc_check+0x244>)
  400418:	4798      	blx	r3
	if (resp == 0xFFFFFFFF) {
  40041a:	f1b0 3fff 	cmp.w	r0, #4294967295
  40041e:	f000 8217 	beq.w	400850 <sd_mmc_check+0x5b4>
	if ((resp & (SD_CMD8_MASK_PATTERN | SD_CMD8_MASK_VOLTAGE))
  400422:	f3c0 000b 	ubfx	r0, r0, #0, #12
  400426:	f5b0 7fd5 	cmp.w	r0, #426	; 0x1aa
  40042a:	f47f af54 	bne.w	4002d6 <sd_mmc_check+0x3a>
	*v2 = 1;
  40042e:	2201      	movs	r2, #1
  400430:	e762      	b.n	4002f8 <sd_mmc_check+0x5c>
			if ((resp & OCR_CCS) != 0) {
  400432:	f010 4f80 	tst.w	r0, #1073741824	; 0x40000000
  400436:	d005      	beq.n	400444 <sd_mmc_check+0x1a8>
				sd_mmc_card->type |= CARD_TYPE_HC;
  400438:	4b26      	ldr	r3, [pc, #152]	; (4004d4 <sd_mmc_check+0x238>)
  40043a:	681a      	ldr	r2, [r3, #0]
  40043c:	7ad3      	ldrb	r3, [r2, #11]
  40043e:	f043 0308 	orr.w	r3, r3, #8
  400442:	72d3      	strb	r3, [r2, #11]
	if (sd_mmc_card->type & CARD_TYPE_SD) {
  400444:	4b23      	ldr	r3, [pc, #140]	; (4004d4 <sd_mmc_check+0x238>)
  400446:	681b      	ldr	r3, [r3, #0]
  400448:	7adb      	ldrb	r3, [r3, #11]
  40044a:	f013 0f01 	tst.w	r3, #1
  40044e:	f43f af5a 	beq.w	400306 <sd_mmc_check+0x6a>
		if (!driver_send_cmd(SDMMC_CMD2_ALL_SEND_CID, 0)) {
  400452:	2100      	movs	r1, #0
  400454:	f645 3002 	movw	r0, #23298	; 0x5b02
  400458:	4b20      	ldr	r3, [pc, #128]	; (4004dc <sd_mmc_check+0x240>)
  40045a:	4798      	blx	r3
  40045c:	2800      	cmp	r0, #0
  40045e:	f47f af52 	bne.w	400306 <sd_mmc_check+0x6a>
  400462:	e738      	b.n	4002d6 <sd_mmc_check+0x3a>
			if ((resp & OCR_ACCESS_MODE_MASK)
  400464:	f000 40c0 	and.w	r0, r0, #1610612736	; 0x60000000
  400468:	f1b0 4f80 	cmp.w	r0, #1073741824	; 0x40000000
  40046c:	d027      	beq.n	4004be <sd_mmc_check+0x222>
	if (!driver_send_cmd(SDMMC_CMD2_ALL_SEND_CID, 0)) {
  40046e:	2100      	movs	r1, #0
  400470:	f645 3002 	movw	r0, #23298	; 0x5b02
  400474:	4b19      	ldr	r3, [pc, #100]	; (4004dc <sd_mmc_check+0x240>)
  400476:	4798      	blx	r3
  400478:	2800      	cmp	r0, #0
  40047a:	f43f af2c 	beq.w	4002d6 <sd_mmc_check+0x3a>
	sd_mmc_card->rca = 1;
  40047e:	4b15      	ldr	r3, [pc, #84]	; (4004d4 <sd_mmc_check+0x238>)
  400480:	681b      	ldr	r3, [r3, #0]
  400482:	2201      	movs	r2, #1
  400484:	811a      	strh	r2, [r3, #8]
	if (!driver_send_cmd(MMC_CMD3_SET_RELATIVE_ADDR,
  400486:	f44f 3180 	mov.w	r1, #65536	; 0x10000
  40048a:	f241 1003 	movw	r0, #4355	; 0x1103
  40048e:	4b13      	ldr	r3, [pc, #76]	; (4004dc <sd_mmc_check+0x240>)
  400490:	4798      	blx	r3
  400492:	2800      	cmp	r0, #0
  400494:	f43f af1f 	beq.w	4002d6 <sd_mmc_check+0x3a>
	if (!sd_mmc_cmd9_mci()) {
  400498:	4b12      	ldr	r3, [pc, #72]	; (4004e4 <sd_mmc_check+0x248>)
  40049a:	4798      	blx	r3
  40049c:	2800      	cmp	r0, #0
  40049e:	f43f af1a 	beq.w	4002d6 <sd_mmc_check+0x3a>
	switch (MMC_CSD_SPEC_VERS(sd_mmc_card->csd)) {
  4004a2:	4b0c      	ldr	r3, [pc, #48]	; (4004d4 <sd_mmc_check+0x238>)
  4004a4:	681a      	ldr	r2, [r3, #0]
	value = reg[((reg_size - pos + 7) / 8) - 1] >> (pos % 8);
  4004a6:	7b93      	ldrb	r3, [r2, #14]
	value &=  ((uint32_t)1 << size) - 1;
  4004a8:	f3c3 0383 	ubfx	r3, r3, #2, #4
  4004ac:	3b01      	subs	r3, #1
  4004ae:	2b03      	cmp	r3, #3
  4004b0:	d826      	bhi.n	400500 <sd_mmc_check+0x264>
  4004b2:	e8df f013 	tbh	[pc, r3, lsl #1]
  4004b6:	00ef      	.short	0x00ef
  4004b8:	00f500f2 	.word	0x00f500f2
  4004bc:	00f8      	.short	0x00f8
				sd_mmc_card->type |= CARD_TYPE_HC;
  4004be:	4b05      	ldr	r3, [pc, #20]	; (4004d4 <sd_mmc_check+0x238>)
  4004c0:	681a      	ldr	r2, [r3, #0]
  4004c2:	7ad3      	ldrb	r3, [r2, #11]
  4004c4:	f043 0308 	orr.w	r3, r3, #8
  4004c8:	72d3      	strb	r3, [r2, #11]
  4004ca:	e7d0      	b.n	40046e <sd_mmc_check+0x1d2>
  4004cc:	004001d5 	.word	0x004001d5
  4004d0:	00400261 	.word	0x00400261
  4004d4:	20400464 	.word	0x20400464
  4004d8:	00400d37 	.word	0x00400d37
  4004dc:	00400d59 	.word	0x00400d59
  4004e0:	00400d7d 	.word	0x00400d7d
  4004e4:	0040022d 	.word	0x0040022d
  4004e8:	004025bc 	.word	0x004025bc
  4004ec:	004025d8 	.word	0x004025d8
  4004f0:	00081133 	.word	0x00081133
  4004f4:	00400db5 	.word	0x00400db5
  4004f8:	00400ef1 	.word	0x00400ef1
  4004fc:	00400f55 	.word	0x00400f55
		sd_mmc_card->version = CARD_VER_MMC_1_2;
  400500:	2312      	movs	r3, #18
  400502:	7313      	strb	r3, [r2, #12]
	value = reg[((reg_size - pos + 7) / 8) - 1] >> (pos % 8);
  400504:	7c53      	ldrb	r3, [r2, #17]
	mul = mmc_trans_multipliers[(tran_speed >> 3) & 0xF];
  400506:	f3c3 00c3 	ubfx	r0, r3, #3, #4
	unit = sd_mmc_trans_units[tran_speed & 0x7];
  40050a:	f003 0307 	and.w	r3, r3, #7
	sd_mmc_card->clock = unit * mul * 1000;
  40050e:	49a1      	ldr	r1, [pc, #644]	; (400794 <sd_mmc_check+0x4f8>)
  400510:	f851 1023 	ldr.w	r1, [r1, r3, lsl #2]
  400514:	f44f 737a 	mov.w	r3, #1000	; 0x3e8
  400518:	fb03 f301 	mul.w	r3, r3, r1
  40051c:	499e      	ldr	r1, [pc, #632]	; (400798 <sd_mmc_check+0x4fc>)
  40051e:	f851 1020 	ldr.w	r1, [r1, r0, lsl #2]
  400522:	fb03 f301 	mul.w	r3, r3, r1
  400526:	6013      	str	r3, [r2, #0]
  400528:	7d91      	ldrb	r1, [r2, #22]
		value |= (uint32_t)reg[((reg_size - pos + 7) / 8) - 2] << (8 - (pos % 8));
  40052a:	7d50      	ldrb	r0, [r2, #21]
		value |= (uint32_t)reg[((reg_size - pos + 7) / 8) - 3] << (16 - (pos % 8));
  40052c:	7d13      	ldrb	r3, [r2, #20]
  40052e:	029b      	lsls	r3, r3, #10
		value |= (uint32_t)reg[((reg_size - pos + 7) / 8) - 3] << (16 - (pos % 8));
  400530:	ea43 0380 	orr.w	r3, r3, r0, lsl #2
  400534:	ea43 13a1 	orr.w	r3, r3, r1, asr #6
	value &=  ((uint32_t)1 << size) - 1;
  400538:	f3c3 030b 	ubfx	r3, r3, #0, #12
	if (MMC_CSD_C_SIZE(sd_mmc_card->csd) != 0xFFF) {
  40053c:	f640 71ff 	movw	r1, #4095	; 0xfff
  400540:	428b      	cmp	r3, r1
  400542:	d00f      	beq.n	400564 <sd_mmc_check+0x2c8>
	value = reg[((reg_size - pos + 7) / 8) - 1] >> (pos % 8);
  400544:	7e10      	ldrb	r0, [r2, #24]
		value |= (uint32_t)reg[((reg_size - pos + 7) / 8) - 2] << (8 - (pos % 8));
  400546:	7dd1      	ldrb	r1, [r2, #23]
  400548:	0049      	lsls	r1, r1, #1
  40054a:	ea41 11e0 	orr.w	r1, r1, r0, asr #7
		uint32_t blocknr = ((MMC_CSD_C_SIZE(sd_mmc_card->csd) + 1) *
  40054e:	3301      	adds	r3, #1
	value &=  ((uint32_t)1 << size) - 1;
  400550:	f001 0107 	and.w	r1, r1, #7
			(1 << (MMC_CSD_C_SIZE_MULT(sd_mmc_card->csd) + 2)));
  400554:	3102      	adds	r1, #2
		uint32_t blocknr = ((MMC_CSD_C_SIZE(sd_mmc_card->csd) + 1) *
  400556:	408b      	lsls	r3, r1
  400558:	7cd1      	ldrb	r1, [r2, #19]
  40055a:	f001 010f 	and.w	r1, r1, #15
		sd_mmc_card->capacity = blocknr *
  40055e:	408b      	lsls	r3, r1
			(1 << MMC_CSD_READ_BL_LEN(sd_mmc_card->csd)) / 1024;
  400560:	0a9b      	lsrs	r3, r3, #10
		sd_mmc_card->capacity = blocknr *
  400562:	6053      	str	r3, [r2, #4]
			(uint32_t)sd_mmc_card->rca << 16)) {
  400564:	8911      	ldrh	r1, [r2, #8]
	if (!driver_send_cmd(SDMMC_CMD7_SELECT_CARD_CMD,
  400566:	0409      	lsls	r1, r1, #16
  400568:	f243 1007 	movw	r0, #12551	; 0x3107
  40056c:	4b8b      	ldr	r3, [pc, #556]	; (40079c <sd_mmc_check+0x500>)
  40056e:	4798      	blx	r3
  400570:	2800      	cmp	r0, #0
  400572:	f43f aeb0 	beq.w	4002d6 <sd_mmc_check+0x3a>
	if (sd_mmc_card->version >= CARD_VER_MMC_4) {
  400576:	4b8a      	ldr	r3, [pc, #552]	; (4007a0 <sd_mmc_check+0x504>)
  400578:	681b      	ldr	r3, [r3, #0]
  40057a:	7b1b      	ldrb	r3, [r3, #12]
  40057c:	2b3f      	cmp	r3, #63	; 0x3f
  40057e:	f240 809f 	bls.w	4006c0 <sd_mmc_check+0x424>
	if (!driver_adtc_start(MMC_CMD8_SEND_EXT_CSD, 0,
  400582:	2100      	movs	r1, #0
  400584:	9100      	str	r1, [sp, #0]
  400586:	2301      	movs	r3, #1
  400588:	f44f 7200 	mov.w	r2, #512	; 0x200
  40058c:	4885      	ldr	r0, [pc, #532]	; (4007a4 <sd_mmc_check+0x508>)
  40058e:	4d86      	ldr	r5, [pc, #536]	; (4007a8 <sd_mmc_check+0x50c>)
  400590:	47a8      	blx	r5
  400592:	2800      	cmp	r0, #0
  400594:	f43f ae9f 	beq.w	4002d6 <sd_mmc_check+0x3a>
  400598:	2500      	movs	r5, #0
		if (!driver_read_word(&ext_csd)) {
  40059a:	4e84      	ldr	r6, [pc, #528]	; (4007ac <sd_mmc_check+0x510>)
  40059c:	a803      	add	r0, sp, #12
  40059e:	47b0      	blx	r6
  4005a0:	2800      	cmp	r0, #0
  4005a2:	f43f ae98 	beq.w	4002d6 <sd_mmc_check+0x3a>
	for (i = 0; i < (EXT_CSD_CARD_TYPE_INDEX + 4) / 4; i++) {
  4005a6:	3501      	adds	r5, #1
  4005a8:	b2ad      	uxth	r5, r5
  4005aa:	2d32      	cmp	r5, #50	; 0x32
  4005ac:	d1f6      	bne.n	40059c <sd_mmc_check+0x300>
			& MMC_CTYPE_52MHZ;
  4005ae:	9e03      	ldr	r6, [sp, #12]
  4005b0:	f006 0602 	and.w	r6, r6, #2
	if (MMC_CSD_C_SIZE(sd_mmc_card->csd) == 0xFFF) {
  4005b4:	4b7a      	ldr	r3, [pc, #488]	; (4007a0 <sd_mmc_check+0x504>)
  4005b6:	681b      	ldr	r3, [r3, #0]
	value = reg[((reg_size - pos + 7) / 8) - 1] >> (pos % 8);
  4005b8:	7d9a      	ldrb	r2, [r3, #22]
		value |= (uint32_t)reg[((reg_size - pos + 7) / 8) - 2] << (8 - (pos % 8));
  4005ba:	7d59      	ldrb	r1, [r3, #21]
		value |= (uint32_t)reg[((reg_size - pos + 7) / 8) - 3] << (16 - (pos % 8));
  4005bc:	7d1b      	ldrb	r3, [r3, #20]
  4005be:	029b      	lsls	r3, r3, #10
		value |= (uint32_t)reg[((reg_size - pos + 7) / 8) - 3] << (16 - (pos % 8));
  4005c0:	ea43 0381 	orr.w	r3, r3, r1, lsl #2
  4005c4:	ea43 13a2 	orr.w	r3, r3, r2, asr #6
	value &=  ((uint32_t)1 << size) - 1;
  4005c8:	f3c3 030b 	ubfx	r3, r3, #0, #12
  4005cc:	f640 72ff 	movw	r2, #4095	; 0xfff
  4005d0:	4293      	cmp	r3, r2
  4005d2:	d10e      	bne.n	4005f2 <sd_mmc_check+0x356>
			if (!driver_read_word(&sec_count)) {
  4005d4:	4f75      	ldr	r7, [pc, #468]	; (4007ac <sd_mmc_check+0x510>)
  4005d6:	a804      	add	r0, sp, #16
  4005d8:	47b8      	blx	r7
  4005da:	2800      	cmp	r0, #0
  4005dc:	f43f ae7b 	beq.w	4002d6 <sd_mmc_check+0x3a>
		for (; i <(EXT_CSD_SEC_COUNT_INDEX + 4) / 4; i++) {
  4005e0:	3501      	adds	r5, #1
  4005e2:	b2ad      	uxth	r5, r5
  4005e4:	2d35      	cmp	r5, #53	; 0x35
  4005e6:	d9f6      	bls.n	4005d6 <sd_mmc_check+0x33a>
		sd_mmc_card->capacity = sec_count / 2;
  4005e8:	4b6d      	ldr	r3, [pc, #436]	; (4007a0 <sd_mmc_check+0x504>)
  4005ea:	681a      	ldr	r2, [r3, #0]
  4005ec:	9b04      	ldr	r3, [sp, #16]
  4005ee:	085b      	lsrs	r3, r3, #1
  4005f0:	6053      	str	r3, [r2, #4]
		if (!driver_read_word(&sec_count)) {
  4005f2:	4f6e      	ldr	r7, [pc, #440]	; (4007ac <sd_mmc_check+0x510>)
	for (; i < EXT_CSD_BSIZE / 4; i++) {
  4005f4:	2d7f      	cmp	r5, #127	; 0x7f
  4005f6:	d959      	bls.n	4006ac <sd_mmc_check+0x410>
		if (4 <= driver_get_bus_width(sd_mmc_slot_sel)) {
  4005f8:	4b6d      	ldr	r3, [pc, #436]	; (4007b0 <sd_mmc_check+0x514>)
  4005fa:	7818      	ldrb	r0, [r3, #0]
  4005fc:	4b6d      	ldr	r3, [pc, #436]	; (4007b4 <sd_mmc_check+0x518>)
  4005fe:	4798      	blx	r3
  400600:	2803      	cmp	r0, #3
  400602:	d91d      	bls.n	400640 <sd_mmc_check+0x3a4>
			if (!mmc_cmd6_set_bus_width(driver_get_bus_width(sd_mmc_slot_sel))) {
  400604:	4b6a      	ldr	r3, [pc, #424]	; (4007b0 <sd_mmc_check+0x514>)
  400606:	7818      	ldrb	r0, [r3, #0]
  400608:	4b6a      	ldr	r3, [pc, #424]	; (4007b4 <sd_mmc_check+0x518>)
  40060a:	4798      	blx	r3
  40060c:	4605      	mov	r5, r0
	switch (bus_width) {
  40060e:	2804      	cmp	r0, #4
  400610:	d054      	beq.n	4006bc <sd_mmc_check+0x420>
		arg = MMC_CMD6_ACCESS_SET_BITS
  400612:	4b69      	ldr	r3, [pc, #420]	; (4007b8 <sd_mmc_check+0x51c>)
  400614:	4969      	ldr	r1, [pc, #420]	; (4007bc <sd_mmc_check+0x520>)
  400616:	2808      	cmp	r0, #8
  400618:	bf18      	it	ne
  40061a:	4619      	movne	r1, r3
	if (!driver_send_cmd(MMC_CMD6_SWITCH, arg)) {
  40061c:	f243 1006 	movw	r0, #12550	; 0x3106
  400620:	4b5e      	ldr	r3, [pc, #376]	; (40079c <sd_mmc_check+0x500>)
  400622:	4798      	blx	r3
  400624:	2800      	cmp	r0, #0
  400626:	f43f ae56 	beq.w	4002d6 <sd_mmc_check+0x3a>
	if (driver_get_response() & CARD_STATUS_SWITCH_ERROR) {
  40062a:	4b65      	ldr	r3, [pc, #404]	; (4007c0 <sd_mmc_check+0x524>)
  40062c:	4798      	blx	r3
  40062e:	f010 0f80 	tst.w	r0, #128	; 0x80
  400632:	f47f ae50 	bne.w	4002d6 <sd_mmc_check+0x3a>
	sd_mmc_card->bus_width = bus_width;
  400636:	4b5a      	ldr	r3, [pc, #360]	; (4007a0 <sd_mmc_check+0x504>)
  400638:	681b      	ldr	r3, [r3, #0]
  40063a:	735d      	strb	r5, [r3, #13]
			sd_mmc_configure_slot();
  40063c:	4b61      	ldr	r3, [pc, #388]	; (4007c4 <sd_mmc_check+0x528>)
  40063e:	4798      	blx	r3
		if (driver_is_high_speed_capable() && b_authorize_high_speed) {
  400640:	4b61      	ldr	r3, [pc, #388]	; (4007c8 <sd_mmc_check+0x52c>)
  400642:	4798      	blx	r3
  400644:	b1b6      	cbz	r6, 400674 <sd_mmc_check+0x3d8>
  400646:	b1a8      	cbz	r0, 400674 <sd_mmc_check+0x3d8>
	if (!driver_send_cmd(MMC_CMD6_SWITCH,
  400648:	4960      	ldr	r1, [pc, #384]	; (4007cc <sd_mmc_check+0x530>)
  40064a:	f243 1006 	movw	r0, #12550	; 0x3106
  40064e:	4b53      	ldr	r3, [pc, #332]	; (40079c <sd_mmc_check+0x500>)
  400650:	4798      	blx	r3
  400652:	2800      	cmp	r0, #0
  400654:	f43f ae3f 	beq.w	4002d6 <sd_mmc_check+0x3a>
	if (driver_get_response() & CARD_STATUS_SWITCH_ERROR) {
  400658:	4b59      	ldr	r3, [pc, #356]	; (4007c0 <sd_mmc_check+0x524>)
  40065a:	4798      	blx	r3
  40065c:	f010 0f80 	tst.w	r0, #128	; 0x80
  400660:	f47f ae39 	bne.w	4002d6 <sd_mmc_check+0x3a>
	sd_mmc_card->high_speed = 1;
  400664:	4b4e      	ldr	r3, [pc, #312]	; (4007a0 <sd_mmc_check+0x504>)
  400666:	681b      	ldr	r3, [r3, #0]
  400668:	2201      	movs	r2, #1
  40066a:	779a      	strb	r2, [r3, #30]
	sd_mmc_card->clock = 52000000lu;
  40066c:	4a58      	ldr	r2, [pc, #352]	; (4007d0 <sd_mmc_check+0x534>)
  40066e:	601a      	str	r2, [r3, #0]
			sd_mmc_configure_slot();
  400670:	4b54      	ldr	r3, [pc, #336]	; (4007c4 <sd_mmc_check+0x528>)
  400672:	4798      	blx	r3
		arg = MMC_CMD6_ACCESS_SET_BITS
  400674:	250a      	movs	r5, #10
		if (driver_send_cmd(SDMMC_CMD16_SET_BLOCKLEN, SD_MMC_BLOCK_SIZE)) {
  400676:	f44f 7800 	mov.w	r8, #512	; 0x200
  40067a:	f241 1710 	movw	r7, #4368	; 0x1110
  40067e:	4e47      	ldr	r6, [pc, #284]	; (40079c <sd_mmc_check+0x500>)
  400680:	4641      	mov	r1, r8
  400682:	4638      	mov	r0, r7
  400684:	47b0      	blx	r6
  400686:	2800      	cmp	r0, #0
  400688:	d16e      	bne.n	400768 <sd_mmc_check+0x4cc>
  40068a:	3d01      	subs	r5, #1
	while (retry--) {
  40068c:	f015 05ff 	ands.w	r5, r5, #255	; 0xff
  400690:	d1f6      	bne.n	400680 <sd_mmc_check+0x3e4>
  400692:	e620      	b.n	4002d6 <sd_mmc_check+0x3a>
		sd_mmc_card->version = CARD_VER_MMC_1_4;
  400694:	2314      	movs	r3, #20
  400696:	7313      	strb	r3, [r2, #12]
  400698:	e734      	b.n	400504 <sd_mmc_check+0x268>
		sd_mmc_card->version = CARD_VER_MMC_2_2;
  40069a:	2322      	movs	r3, #34	; 0x22
  40069c:	7313      	strb	r3, [r2, #12]
  40069e:	e731      	b.n	400504 <sd_mmc_check+0x268>
		sd_mmc_card->version = CARD_VER_MMC_3;
  4006a0:	2330      	movs	r3, #48	; 0x30
  4006a2:	7313      	strb	r3, [r2, #12]
  4006a4:	e72e      	b.n	400504 <sd_mmc_check+0x268>
		sd_mmc_card->version = CARD_VER_MMC_4;
  4006a6:	2340      	movs	r3, #64	; 0x40
  4006a8:	7313      	strb	r3, [r2, #12]
  4006aa:	e72b      	b.n	400504 <sd_mmc_check+0x268>
		if (!driver_read_word(&sec_count)) {
  4006ac:	a804      	add	r0, sp, #16
  4006ae:	47b8      	blx	r7
  4006b0:	2800      	cmp	r0, #0
  4006b2:	f43f ae10 	beq.w	4002d6 <sd_mmc_check+0x3a>
	for (; i < EXT_CSD_BSIZE / 4; i++) {
  4006b6:	3501      	adds	r5, #1
  4006b8:	b2ad      	uxth	r5, r5
  4006ba:	e79b      	b.n	4005f4 <sd_mmc_check+0x358>
		arg = MMC_CMD6_ACCESS_SET_BITS
  4006bc:	4945      	ldr	r1, [pc, #276]	; (4007d4 <sd_mmc_check+0x538>)
  4006be:	e7ad      	b.n	40061c <sd_mmc_check+0x380>
		sd_mmc_configure_slot();
  4006c0:	4b40      	ldr	r3, [pc, #256]	; (4007c4 <sd_mmc_check+0x528>)
  4006c2:	4798      	blx	r3
  4006c4:	e7d6      	b.n	400674 <sd_mmc_check+0x3d8>
	value = reg[((reg_size - pos + 7) / 8) - 1] >> (pos % 8);
  4006c6:	7dd9      	ldrb	r1, [r3, #23]
		value |= (uint32_t)reg[((reg_size - pos + 7) / 8) - 2] << (8 - (pos % 8));
  4006c8:	7d98      	ldrb	r0, [r3, #22]
		value |= (uint32_t)reg[((reg_size - pos + 7) / 8) - 3] << (16 - (pos % 8));
  4006ca:	7d5a      	ldrb	r2, [r3, #21]
  4006cc:	0412      	lsls	r2, r2, #16
		value |= (uint32_t)reg[((reg_size - pos + 7) / 8) - 3] << (16 - (pos % 8));
  4006ce:	ea42 2200 	orr.w	r2, r2, r0, lsl #8
  4006d2:	430a      	orrs	r2, r1
	value &=  ((uint32_t)1 << size) - 1;
  4006d4:	f3c2 0215 	ubfx	r2, r2, #0, #22
				* 512;
  4006d8:	3201      	adds	r2, #1
  4006da:	0252      	lsls	r2, r2, #9
		sd_mmc_card->capacity =
  4006dc:	605a      	str	r2, [r3, #4]
  4006de:	e659      	b.n	400394 <sd_mmc_check+0xf8>
		sd_mmc_card->version = CARD_VER_SD_1_0;
  4006e0:	4b2f      	ldr	r3, [pc, #188]	; (4007a0 <sd_mmc_check+0x504>)
  4006e2:	681b      	ldr	r3, [r3, #0]
  4006e4:	2210      	movs	r2, #16
  4006e6:	731a      	strb	r2, [r3, #12]
	if ((4 <= driver_get_bus_width(sd_mmc_slot_sel))) {
  4006e8:	4b31      	ldr	r3, [pc, #196]	; (4007b0 <sd_mmc_check+0x514>)
  4006ea:	7818      	ldrb	r0, [r3, #0]
  4006ec:	4b31      	ldr	r3, [pc, #196]	; (4007b4 <sd_mmc_check+0x518>)
  4006ee:	4798      	blx	r3
  4006f0:	2803      	cmp	r0, #3
  4006f2:	d91c      	bls.n	40072e <sd_mmc_check+0x492>
		if (sd_mmc_card->type & CARD_TYPE_SD) {
  4006f4:	4b2a      	ldr	r3, [pc, #168]	; (4007a0 <sd_mmc_check+0x504>)
  4006f6:	681b      	ldr	r3, [r3, #0]
  4006f8:	7ada      	ldrb	r2, [r3, #11]
  4006fa:	f012 0f01 	tst.w	r2, #1
  4006fe:	d014      	beq.n	40072a <sd_mmc_check+0x48e>
	if (!driver_send_cmd(SDMMC_CMD55_APP_CMD, (uint32_t)sd_mmc_card->rca << 16)) {
  400700:	8919      	ldrh	r1, [r3, #8]
  400702:	0409      	lsls	r1, r1, #16
  400704:	f241 1037 	movw	r0, #4407	; 0x1137
  400708:	4b24      	ldr	r3, [pc, #144]	; (40079c <sd_mmc_check+0x500>)
  40070a:	4798      	blx	r3
  40070c:	2800      	cmp	r0, #0
  40070e:	f43f ade2 	beq.w	4002d6 <sd_mmc_check+0x3a>
	if (!driver_send_cmd(SD_ACMD6_SET_BUS_WIDTH, 0x2)) {
  400712:	2102      	movs	r1, #2
  400714:	f241 1006 	movw	r0, #4358	; 0x1106
  400718:	4b20      	ldr	r3, [pc, #128]	; (40079c <sd_mmc_check+0x500>)
  40071a:	4798      	blx	r3
  40071c:	2800      	cmp	r0, #0
  40071e:	f43f adda 	beq.w	4002d6 <sd_mmc_check+0x3a>
	sd_mmc_card->bus_width = 4;
  400722:	4b1f      	ldr	r3, [pc, #124]	; (4007a0 <sd_mmc_check+0x504>)
  400724:	681b      	ldr	r3, [r3, #0]
  400726:	2204      	movs	r2, #4
  400728:	735a      	strb	r2, [r3, #13]
		sd_mmc_configure_slot();
  40072a:	4b26      	ldr	r3, [pc, #152]	; (4007c4 <sd_mmc_check+0x528>)
  40072c:	4798      	blx	r3
	if (driver_is_high_speed_capable()) {
  40072e:	4b26      	ldr	r3, [pc, #152]	; (4007c8 <sd_mmc_check+0x52c>)
  400730:	4798      	blx	r3
  400732:	b150      	cbz	r0, 40074a <sd_mmc_check+0x4ae>
		if (sd_mmc_card->type & CARD_TYPE_SD) {
  400734:	4b1a      	ldr	r3, [pc, #104]	; (4007a0 <sd_mmc_check+0x504>)
  400736:	681b      	ldr	r3, [r3, #0]
  400738:	7ada      	ldrb	r2, [r3, #11]
  40073a:	f012 0f01 	tst.w	r2, #1
  40073e:	d002      	beq.n	400746 <sd_mmc_check+0x4aa>
			if (sd_mmc_card->version > CARD_VER_SD_1_0) {
  400740:	7b1b      	ldrb	r3, [r3, #12]
  400742:	2b10      	cmp	r3, #16
  400744:	d84a      	bhi.n	4007dc <sd_mmc_check+0x540>
		sd_mmc_configure_slot();
  400746:	4b1f      	ldr	r3, [pc, #124]	; (4007c4 <sd_mmc_check+0x528>)
  400748:	4798      	blx	r3
	if (sd_mmc_card->type & CARD_TYPE_SD) {
  40074a:	4b15      	ldr	r3, [pc, #84]	; (4007a0 <sd_mmc_check+0x504>)
  40074c:	681b      	ldr	r3, [r3, #0]
  40074e:	7adb      	ldrb	r3, [r3, #11]
  400750:	f013 0f01 	tst.w	r3, #1
  400754:	d008      	beq.n	400768 <sd_mmc_check+0x4cc>
		if (!driver_send_cmd(SDMMC_CMD16_SET_BLOCKLEN, SD_MMC_BLOCK_SIZE)) {
  400756:	f44f 7100 	mov.w	r1, #512	; 0x200
  40075a:	f241 1010 	movw	r0, #4368	; 0x1110
  40075e:	4b0f      	ldr	r3, [pc, #60]	; (40079c <sd_mmc_check+0x500>)
  400760:	4798      	blx	r3
	if (sd_mmc_is_spi()? sd_mmc_spi_card_init()
  400762:	2800      	cmp	r0, #0
  400764:	f43f adb7 	beq.w	4002d6 <sd_mmc_check+0x3a>
		sd_mmc_card->state = SD_MMC_CARD_STATE_READY;
  400768:	4b0d      	ldr	r3, [pc, #52]	; (4007a0 <sd_mmc_check+0x504>)
  40076a:	681b      	ldr	r3, [r3, #0]
  40076c:	2200      	movs	r2, #0
  40076e:	729a      	strb	r2, [r3, #10]
		sd_mmc_deselect_slot();
  400770:	4b19      	ldr	r3, [pc, #100]	; (4007d8 <sd_mmc_check+0x53c>)
  400772:	4798      	blx	r3
		return SD_MMC_INIT_ONGOING;
  400774:	e59c      	b.n	4002b0 <sd_mmc_check+0x14>
		sd_mmc_card->version = CARD_VER_SD_1_10;
  400776:	4b0a      	ldr	r3, [pc, #40]	; (4007a0 <sd_mmc_check+0x504>)
  400778:	681b      	ldr	r3, [r3, #0]
  40077a:	221a      	movs	r2, #26
  40077c:	731a      	strb	r2, [r3, #12]
  40077e:	e7b3      	b.n	4006e8 <sd_mmc_check+0x44c>
		if (SD_SCR_SD_SPEC3(scr) == SD_SCR_SD_SPEC_3_00) {
  400780:	f89d 3012 	ldrb.w	r3, [sp, #18]
  400784:	09db      	lsrs	r3, r3, #7
			sd_mmc_card->version = CARD_VER_SD_3_0;
  400786:	4b06      	ldr	r3, [pc, #24]	; (4007a0 <sd_mmc_check+0x504>)
  400788:	681b      	ldr	r3, [r3, #0]
  40078a:	bf14      	ite	ne
  40078c:	2230      	movne	r2, #48	; 0x30
			sd_mmc_card->version = CARD_VER_SD_2_0;
  40078e:	2220      	moveq	r2, #32
  400790:	731a      	strb	r2, [r3, #12]
  400792:	e7a9      	b.n	4006e8 <sd_mmc_check+0x44c>
  400794:	004025bc 	.word	0x004025bc
  400798:	0040257c 	.word	0x0040257c
  40079c:	00400d59 	.word	0x00400d59
  4007a0:	20400464 	.word	0x20400464
  4007a4:	00081108 	.word	0x00081108
  4007a8:	00400db5 	.word	0x00400db5
  4007ac:	00400e7d 	.word	0x00400e7d
  4007b0:	2040048c 	.word	0x2040048c
  4007b4:	00400cb5 	.word	0x00400cb5
  4007b8:	01b70000 	.word	0x01b70000
  4007bc:	01b70200 	.word	0x01b70200
  4007c0:	00400d7d 	.word	0x00400d7d
  4007c4:	004001ad 	.word	0x004001ad
  4007c8:	00400cbf 	.word	0x00400cbf
  4007cc:	03b90100 	.word	0x03b90100
  4007d0:	03197500 	.word	0x03197500
  4007d4:	01b70100 	.word	0x01b70100
  4007d8:	00400261 	.word	0x00400261
	uint8_t switch_status[SD_SW_STATUS_BSIZE] = {0};
  4007dc:	2540      	movs	r5, #64	; 0x40
  4007de:	462a      	mov	r2, r5
  4007e0:	2100      	movs	r1, #0
  4007e2:	a804      	add	r0, sp, #16
  4007e4:	4b39      	ldr	r3, [pc, #228]	; (4008cc <sd_mmc_check+0x630>)
  4007e6:	4798      	blx	r3
	if (!driver_adtc_start(SD_CMD6_SWITCH_FUNC,
  4007e8:	2301      	movs	r3, #1
  4007ea:	9300      	str	r3, [sp, #0]
  4007ec:	462a      	mov	r2, r5
  4007ee:	4938      	ldr	r1, [pc, #224]	; (4008d0 <sd_mmc_check+0x634>)
  4007f0:	4838      	ldr	r0, [pc, #224]	; (4008d4 <sd_mmc_check+0x638>)
  4007f2:	4d39      	ldr	r5, [pc, #228]	; (4008d8 <sd_mmc_check+0x63c>)
  4007f4:	47a8      	blx	r5
  4007f6:	2800      	cmp	r0, #0
  4007f8:	f43f ad6d 	beq.w	4002d6 <sd_mmc_check+0x3a>
	if (!driver_start_read_blocks(switch_status, 1)) {
  4007fc:	2101      	movs	r1, #1
  4007fe:	a804      	add	r0, sp, #16
  400800:	4b36      	ldr	r3, [pc, #216]	; (4008dc <sd_mmc_check+0x640>)
  400802:	4798      	blx	r3
  400804:	2800      	cmp	r0, #0
  400806:	f43f ad66 	beq.w	4002d6 <sd_mmc_check+0x3a>
	if (!driver_wait_end_of_read_blocks()) {
  40080a:	4b35      	ldr	r3, [pc, #212]	; (4008e0 <sd_mmc_check+0x644>)
  40080c:	4798      	blx	r3
  40080e:	2800      	cmp	r0, #0
  400810:	f43f ad61 	beq.w	4002d6 <sd_mmc_check+0x3a>
	if (driver_get_response() & CARD_STATUS_SWITCH_ERROR) {
  400814:	4b33      	ldr	r3, [pc, #204]	; (4008e4 <sd_mmc_check+0x648>)
  400816:	4798      	blx	r3
  400818:	f010 0f80 	tst.w	r0, #128	; 0x80
  40081c:	f47f ad5b 	bne.w	4002d6 <sd_mmc_check+0x3a>
	if (SD_SW_STATUS_FUN_GRP1_RC(switch_status)
  400820:	f89d 3020 	ldrb.w	r3, [sp, #32]
  400824:	f003 030f 	and.w	r3, r3, #15
  400828:	2b0f      	cmp	r3, #15
  40082a:	d08c      	beq.n	400746 <sd_mmc_check+0x4aa>
	value = reg[((reg_size - pos + 7) / 8) - 1] >> (pos % 8);
  40082c:	f89d 302d 	ldrb.w	r3, [sp, #45]	; 0x2d
		value |= (uint32_t)reg[((reg_size - pos + 7) / 8) - 2] << (8 - (pos % 8));
  400830:	f89d 202c 	ldrb.w	r2, [sp, #44]	; 0x2c
	if (SD_SW_STATUS_FUN_GRP1_BUSY(switch_status)) {
  400834:	ea53 2302 	orrs.w	r3, r3, r2, lsl #8
  400838:	f47f ad4d 	bne.w	4002d6 <sd_mmc_check+0x3a>
	driver_send_clock();
  40083c:	4b2a      	ldr	r3, [pc, #168]	; (4008e8 <sd_mmc_check+0x64c>)
  40083e:	4798      	blx	r3
	sd_mmc_card->high_speed = 1;
  400840:	4b2a      	ldr	r3, [pc, #168]	; (4008ec <sd_mmc_check+0x650>)
  400842:	681b      	ldr	r3, [r3, #0]
  400844:	2201      	movs	r2, #1
  400846:	779a      	strb	r2, [r3, #30]
	sd_mmc_card->clock *= 2;
  400848:	681a      	ldr	r2, [r3, #0]
  40084a:	0052      	lsls	r2, r2, #1
  40084c:	601a      	str	r2, [r3, #0]
  40084e:	e77a      	b.n	400746 <sd_mmc_check+0x4aa>
	*v2 = 0;
  400850:	2200      	movs	r2, #0
  400852:	e551      	b.n	4002f8 <sd_mmc_check+0x5c>
  400854:	2a00      	cmp	r2, #0
  400856:	4f26      	ldr	r7, [pc, #152]	; (4008f0 <sd_mmc_check+0x654>)
  400858:	bf08      	it	eq
  40085a:	f44f 17fc 	moveq.w	r7, #2064384	; 0x1f8000
	if (sd_mmc_card->type & CARD_TYPE_SD) {
  40085e:	f640 0535 	movw	r5, #2101	; 0x835
		if (!driver_send_cmd(SDMMC_CMD55_APP_CMD, 0)) {
  400862:	f04f 0800 	mov.w	r8, #0
  400866:	4e23      	ldr	r6, [pc, #140]	; (4008f4 <sd_mmc_check+0x658>)
		resp = driver_get_response();
  400868:	f8df 9078 	ldr.w	r9, [pc, #120]	; 4008e4 <sd_mmc_check+0x648>
		if (!driver_send_cmd(SDMMC_CMD55_APP_CMD, 0)) {
  40086c:	4641      	mov	r1, r8
  40086e:	f241 1037 	movw	r0, #4407	; 0x1137
  400872:	47b0      	blx	r6
  400874:	b150      	cbz	r0, 40088c <sd_mmc_check+0x5f0>
		if (!driver_send_cmd(SD_MCI_ACMD41_SD_SEND_OP_COND, arg)) {
  400876:	4639      	mov	r1, r7
  400878:	f244 5029 	movw	r0, #17705	; 0x4529
  40087c:	47b0      	blx	r6
  40087e:	b128      	cbz	r0, 40088c <sd_mmc_check+0x5f0>
		resp = driver_get_response();
  400880:	47c8      	blx	r9
		if (resp & OCR_POWER_UP_BUSY) {
  400882:	2800      	cmp	r0, #0
  400884:	f6ff add5 	blt.w	400432 <sd_mmc_check+0x196>
		if (retry-- == 0) {
  400888:	3d01      	subs	r5, #1
  40088a:	d1ef      	bne.n	40086c <sd_mmc_check+0x5d0>
			sd_mmc_card->type = CARD_TYPE_MMC;
  40088c:	4b17      	ldr	r3, [pc, #92]	; (4008ec <sd_mmc_check+0x650>)
  40088e:	681b      	ldr	r3, [r3, #0]
  400890:	2202      	movs	r2, #2
  400892:	72da      	strb	r2, [r3, #11]
	if (!driver_send_cmd(SDMMC_MCI_CMD0_GO_IDLE_STATE, 0)) {
  400894:	2100      	movs	r1, #0
  400896:	f44f 4080 	mov.w	r0, #16384	; 0x4000
  40089a:	4b16      	ldr	r3, [pc, #88]	; (4008f4 <sd_mmc_check+0x658>)
  40089c:	4798      	blx	r3
  40089e:	2800      	cmp	r0, #0
  4008a0:	f43f ad19 	beq.w	4002d6 <sd_mmc_check+0x3a>
  4008a4:	f241 0569 	movw	r5, #4201	; 0x1069
		if (!driver_send_cmd(MMC_MCI_CMD1_SEND_OP_COND,
  4008a8:	f8df 8044 	ldr.w	r8, [pc, #68]	; 4008f0 <sd_mmc_check+0x654>
  4008ac:	4f11      	ldr	r7, [pc, #68]	; (4008f4 <sd_mmc_check+0x658>)
		resp = driver_get_response();
  4008ae:	4e0d      	ldr	r6, [pc, #52]	; (4008e4 <sd_mmc_check+0x648>)
		if (!driver_send_cmd(MMC_MCI_CMD1_SEND_OP_COND,
  4008b0:	4641      	mov	r1, r8
  4008b2:	f244 5001 	movw	r0, #17665	; 0x4501
  4008b6:	47b8      	blx	r7
  4008b8:	2800      	cmp	r0, #0
  4008ba:	f43f ad0c 	beq.w	4002d6 <sd_mmc_check+0x3a>
		resp = driver_get_response();
  4008be:	47b0      	blx	r6
		if (resp & OCR_POWER_UP_BUSY) {
  4008c0:	2800      	cmp	r0, #0
  4008c2:	f6ff adcf 	blt.w	400464 <sd_mmc_check+0x1c8>
		if (retry-- == 0) {
  4008c6:	3d01      	subs	r5, #1
  4008c8:	d1f2      	bne.n	4008b0 <sd_mmc_check+0x614>
  4008ca:	e504      	b.n	4002d6 <sd_mmc_check+0x3a>
  4008cc:	004023c1 	.word	0x004023c1
  4008d0:	80ffff01 	.word	0x80ffff01
  4008d4:	00081106 	.word	0x00081106
  4008d8:	00400db5 	.word	0x00400db5
  4008dc:	00400ef1 	.word	0x00400ef1
  4008e0:	00400f55 	.word	0x00400f55
  4008e4:	00400d7d 	.word	0x00400d7d
  4008e8:	00400d37 	.word	0x00400d37
  4008ec:	20400464 	.word	0x20400464
  4008f0:	401f8000 	.word	0x401f8000
  4008f4:	00400d59 	.word	0x00400d59

004008f8 <sd_mmc_get_type>:

card_type_t sd_mmc_get_type(uint8_t slot)
{
  4008f8:	b508      	push	{r3, lr}
	if (SD_MMC_OK != sd_mmc_select_slot(slot)) {
  4008fa:	4b05      	ldr	r3, [pc, #20]	; (400910 <sd_mmc_get_type+0x18>)
  4008fc:	4798      	blx	r3
  4008fe:	b108      	cbz	r0, 400904 <sd_mmc_get_type+0xc>
		return CARD_TYPE_UNKNOWN;
  400900:	2000      	movs	r0, #0
	}
	sd_mmc_deselect_slot();
	return sd_mmc_card->type;
}
  400902:	bd08      	pop	{r3, pc}
	sd_mmc_deselect_slot();
  400904:	4b03      	ldr	r3, [pc, #12]	; (400914 <sd_mmc_get_type+0x1c>)
  400906:	4798      	blx	r3
	return sd_mmc_card->type;
  400908:	4b03      	ldr	r3, [pc, #12]	; (400918 <sd_mmc_get_type+0x20>)
  40090a:	681b      	ldr	r3, [r3, #0]
  40090c:	7ad8      	ldrb	r0, [r3, #11]
  40090e:	bd08      	pop	{r3, pc}
  400910:	004001d5 	.word	0x004001d5
  400914:	00400261 	.word	0x00400261
  400918:	20400464 	.word	0x20400464

0040091c <sd_mmc_get_capacity>:
	sd_mmc_deselect_slot();
	return sd_mmc_card->version;
}

uint32_t sd_mmc_get_capacity(uint8_t slot)
{
  40091c:	b508      	push	{r3, lr}
	if (SD_MMC_OK != sd_mmc_select_slot(slot)) {
  40091e:	4b05      	ldr	r3, [pc, #20]	; (400934 <sd_mmc_get_capacity+0x18>)
  400920:	4798      	blx	r3
  400922:	b108      	cbz	r0, 400928 <sd_mmc_get_capacity+0xc>
		return 0;
  400924:	2000      	movs	r0, #0
	}
	sd_mmc_deselect_slot();
	return sd_mmc_card->capacity;
}
  400926:	bd08      	pop	{r3, pc}
	sd_mmc_deselect_slot();
  400928:	4b03      	ldr	r3, [pc, #12]	; (400938 <sd_mmc_get_capacity+0x1c>)
  40092a:	4798      	blx	r3
	return sd_mmc_card->capacity;
  40092c:	4b03      	ldr	r3, [pc, #12]	; (40093c <sd_mmc_get_capacity+0x20>)
  40092e:	681b      	ldr	r3, [r3, #0]
  400930:	6858      	ldr	r0, [r3, #4]
  400932:	bd08      	pop	{r3, pc}
  400934:	004001d5 	.word	0x004001d5
  400938:	00400261 	.word	0x00400261
  40093c:	20400464 	.word	0x20400464

00400940 <sd_mmc_init_read_blocks>:
	return false;
}

sd_mmc_err_t sd_mmc_init_read_blocks(uint8_t slot, uint32_t start,
		uint16_t nb_block)
{
  400940:	e92d 47f0 	stmdb	sp!, {r4, r5, r6, r7, r8, r9, sl, lr}
  400944:	b082      	sub	sp, #8
  400946:	468a      	mov	sl, r1
  400948:	4691      	mov	r9, r2
	sd_mmc_err_t sd_mmc_err;
	uint32_t cmd, arg, resp;

	sd_mmc_err = sd_mmc_select_slot(slot);
  40094a:	4b26      	ldr	r3, [pc, #152]	; (4009e4 <sd_mmc_init_read_blocks+0xa4>)
  40094c:	4798      	blx	r3
	if (sd_mmc_err != SD_MMC_OK) {
  40094e:	4680      	mov	r8, r0
  400950:	b118      	cbz	r0, 40095a <sd_mmc_init_read_blocks+0x1a>
		}
	}
	sd_mmc_nb_block_remaining = nb_block;
	sd_mmc_nb_block_to_tranfer = nb_block;
	return SD_MMC_OK;
}
  400952:	4640      	mov	r0, r8
  400954:	b002      	add	sp, #8
  400956:	e8bd 87f0 	ldmia.w	sp!, {r4, r5, r6, r7, r8, r9, sl, pc}
  40095a:	4c23      	ldr	r4, [pc, #140]	; (4009e8 <sd_mmc_init_read_blocks+0xa8>)
					(uint32_t)sd_mmc_card->rca << 16)) {
  40095c:	4e23      	ldr	r6, [pc, #140]	; (4009ec <sd_mmc_init_read_blocks+0xac>)
			if (!driver_send_cmd(SDMMC_MCI_CMD13_SEND_STATUS,
  40095e:	4d24      	ldr	r5, [pc, #144]	; (4009f0 <sd_mmc_init_read_blocks+0xb0>)
			if (driver_get_response() & CARD_STATUS_READY_FOR_DATA) {
  400960:	4f24      	ldr	r7, [pc, #144]	; (4009f4 <sd_mmc_init_read_blocks+0xb4>)
					(uint32_t)sd_mmc_card->rca << 16)) {
  400962:	6833      	ldr	r3, [r6, #0]
  400964:	8919      	ldrh	r1, [r3, #8]
			if (!driver_send_cmd(SDMMC_MCI_CMD13_SEND_STATUS,
  400966:	0409      	lsls	r1, r1, #16
  400968:	f241 100d 	movw	r0, #4365	; 0x110d
  40096c:	47a8      	blx	r5
  40096e:	b128      	cbz	r0, 40097c <sd_mmc_init_read_blocks+0x3c>
			if (driver_get_response() & CARD_STATUS_READY_FOR_DATA) {
  400970:	47b8      	blx	r7
  400972:	f410 7f80 	tst.w	r0, #256	; 0x100
  400976:	d117      	bne.n	4009a8 <sd_mmc_init_read_blocks+0x68>
		if (nec_timeout-- == 0) {
  400978:	3c01      	subs	r4, #1
  40097a:	d1f2      	bne.n	400962 <sd_mmc_init_read_blocks+0x22>
		sd_mmc_deselect_slot();
  40097c:	4b1e      	ldr	r3, [pc, #120]	; (4009f8 <sd_mmc_init_read_blocks+0xb8>)
  40097e:	4798      	blx	r3
		return SD_MMC_ERR_COMM;
  400980:	f04f 0805 	mov.w	r8, #5
  400984:	e7e5      	b.n	400952 <sd_mmc_init_read_blocks+0x12>
		resp = driver_get_response();
  400986:	4b1b      	ldr	r3, [pc, #108]	; (4009f4 <sd_mmc_init_read_blocks+0xb4>)
  400988:	4798      	blx	r3
		if (resp & CARD_STATUS_ERR_RD_WR) {
  40098a:	4b1c      	ldr	r3, [pc, #112]	; (4009fc <sd_mmc_init_read_blocks+0xbc>)
  40098c:	4003      	ands	r3, r0
  40098e:	b933      	cbnz	r3, 40099e <sd_mmc_init_read_blocks+0x5e>
	sd_mmc_nb_block_remaining = nb_block;
  400990:	4b1b      	ldr	r3, [pc, #108]	; (400a00 <sd_mmc_init_read_blocks+0xc0>)
  400992:	f8a3 9000 	strh.w	r9, [r3]
	sd_mmc_nb_block_to_tranfer = nb_block;
  400996:	4b1b      	ldr	r3, [pc, #108]	; (400a04 <sd_mmc_init_read_blocks+0xc4>)
  400998:	f8a3 9000 	strh.w	r9, [r3]
	return SD_MMC_OK;
  40099c:	e7d9      	b.n	400952 <sd_mmc_init_read_blocks+0x12>
			sd_mmc_deselect_slot();
  40099e:	4b16      	ldr	r3, [pc, #88]	; (4009f8 <sd_mmc_init_read_blocks+0xb8>)
  4009a0:	4798      	blx	r3
			return SD_MMC_ERR_COMM;
  4009a2:	f04f 0805 	mov.w	r8, #5
  4009a6:	e7d4      	b.n	400952 <sd_mmc_init_read_blocks+0x12>
		cmd = SDMMC_CMD17_READ_SINGLE_BLOCK;
  4009a8:	4b17      	ldr	r3, [pc, #92]	; (400a08 <sd_mmc_init_read_blocks+0xc8>)
  4009aa:	4818      	ldr	r0, [pc, #96]	; (400a0c <sd_mmc_init_read_blocks+0xcc>)
  4009ac:	f1b9 0f01 	cmp.w	r9, #1
  4009b0:	bf98      	it	ls
  4009b2:	4618      	movls	r0, r3
	if (sd_mmc_card->type & CARD_TYPE_HC) {
  4009b4:	4b0d      	ldr	r3, [pc, #52]	; (4009ec <sd_mmc_init_read_blocks+0xac>)
  4009b6:	681b      	ldr	r3, [r3, #0]
  4009b8:	7adb      	ldrb	r3, [r3, #11]
  4009ba:	f013 0f08 	tst.w	r3, #8
  4009be:	d101      	bne.n	4009c4 <sd_mmc_init_read_blocks+0x84>
		arg = (start * SD_MMC_BLOCK_SIZE);
  4009c0:	ea4f 2a4a 	mov.w	sl, sl, lsl #9
	if (!driver_adtc_start(cmd, arg, SD_MMC_BLOCK_SIZE, nb_block, true)) {
  4009c4:	2301      	movs	r3, #1
  4009c6:	9300      	str	r3, [sp, #0]
  4009c8:	464b      	mov	r3, r9
  4009ca:	f44f 7200 	mov.w	r2, #512	; 0x200
  4009ce:	4651      	mov	r1, sl
  4009d0:	4c0f      	ldr	r4, [pc, #60]	; (400a10 <sd_mmc_init_read_blocks+0xd0>)
  4009d2:	47a0      	blx	r4
  4009d4:	2800      	cmp	r0, #0
  4009d6:	d1d6      	bne.n	400986 <sd_mmc_init_read_blocks+0x46>
		sd_mmc_deselect_slot();
  4009d8:	4b07      	ldr	r3, [pc, #28]	; (4009f8 <sd_mmc_init_read_blocks+0xb8>)
  4009da:	4798      	blx	r3
		return SD_MMC_ERR_COMM;
  4009dc:	f04f 0805 	mov.w	r8, #5
  4009e0:	e7b7      	b.n	400952 <sd_mmc_init_read_blocks+0x12>
  4009e2:	bf00      	nop
  4009e4:	004001d5 	.word	0x004001d5
  4009e8:	00030d41 	.word	0x00030d41
  4009ec:	20400464 	.word	0x20400464
  4009f0:	00400d59 	.word	0x00400d59
  4009f4:	00400d7d 	.word	0x00400d7d
  4009f8:	00400261 	.word	0x00400261
  4009fc:	e4580000 	.word	0xe4580000
  400a00:	20400488 	.word	0x20400488
  400a04:	2040048a 	.word	0x2040048a
  400a08:	00081111 	.word	0x00081111
  400a0c:	00101112 	.word	0x00101112
  400a10:	00400db5 	.word	0x00400db5

00400a14 <sd_mmc_start_read_blocks>:

sd_mmc_err_t sd_mmc_start_read_blocks(void *dest, uint16_t nb_block)
{
  400a14:	b510      	push	{r4, lr}
  400a16:	460c      	mov	r4, r1
	Assert(sd_mmc_nb_block_remaining >= nb_block);

	if (!driver_start_read_blocks(dest, nb_block)) {
  400a18:	4b06      	ldr	r3, [pc, #24]	; (400a34 <sd_mmc_start_read_blocks+0x20>)
  400a1a:	4798      	blx	r3
  400a1c:	b920      	cbnz	r0, 400a28 <sd_mmc_start_read_blocks+0x14>
		sd_mmc_nb_block_remaining = 0;
  400a1e:	2200      	movs	r2, #0
  400a20:	4b05      	ldr	r3, [pc, #20]	; (400a38 <sd_mmc_start_read_blocks+0x24>)
  400a22:	801a      	strh	r2, [r3, #0]
		return SD_MMC_ERR_COMM;
  400a24:	2005      	movs	r0, #5
  400a26:	bd10      	pop	{r4, pc}
	}
	sd_mmc_nb_block_remaining -= nb_block;
  400a28:	4a03      	ldr	r2, [pc, #12]	; (400a38 <sd_mmc_start_read_blocks+0x24>)
  400a2a:	8813      	ldrh	r3, [r2, #0]
  400a2c:	1b1c      	subs	r4, r3, r4
  400a2e:	8014      	strh	r4, [r2, #0]
	return SD_MMC_OK;
  400a30:	2000      	movs	r0, #0
}
  400a32:	bd10      	pop	{r4, pc}
  400a34:	00400ef1 	.word	0x00400ef1
  400a38:	20400488 	.word	0x20400488

00400a3c <sd_mmc_wait_end_of_read_blocks>:

sd_mmc_err_t sd_mmc_wait_end_of_read_blocks(bool abort)
{
  400a3c:	b510      	push	{r4, lr}
  400a3e:	4604      	mov	r4, r0
	if (!driver_wait_end_of_read_blocks()) {
  400a40:	4b13      	ldr	r3, [pc, #76]	; (400a90 <sd_mmc_wait_end_of_read_blocks+0x54>)
  400a42:	4798      	blx	r3
  400a44:	b908      	cbnz	r0, 400a4a <sd_mmc_wait_end_of_read_blocks+0xe>
		return SD_MMC_ERR_COMM;
  400a46:	2005      	movs	r0, #5
  400a48:	bd10      	pop	{r4, pc}
	}
	if (abort) {
  400a4a:	b184      	cbz	r4, 400a6e <sd_mmc_wait_end_of_read_blocks+0x32>
		sd_mmc_nb_block_remaining = 0;
  400a4c:	2200      	movs	r2, #0
  400a4e:	4b11      	ldr	r3, [pc, #68]	; (400a94 <sd_mmc_wait_end_of_read_blocks+0x58>)
  400a50:	801a      	strh	r2, [r3, #0]
	} else if (sd_mmc_nb_block_remaining) {
		return SD_MMC_OK;
	}

	// All blocks are transfered then stop read operation
	if (sd_mmc_nb_block_to_tranfer == 1) {
  400a52:	4b11      	ldr	r3, [pc, #68]	; (400a98 <sd_mmc_wait_end_of_read_blocks+0x5c>)
  400a54:	881b      	ldrh	r3, [r3, #0]
  400a56:	2b01      	cmp	r3, #1
  400a58:	d00f      	beq.n	400a7a <sd_mmc_wait_end_of_read_blocks+0x3e>
		return SD_MMC_OK;
	}
	// WORKAROUND for no compliance card (Atmel Internal ref. !MMC7 !SD19):
	// The errors on this command must be ignored
	// and one retry can be necessary in SPI mode for no compliance card.
	if (!driver_adtc_stop(SDMMC_CMD12_STOP_TRANSMISSION, 0)) {
  400a5a:	2100      	movs	r1, #0
  400a5c:	f243 100c 	movw	r0, #12556	; 0x310c
  400a60:	4b0e      	ldr	r3, [pc, #56]	; (400a9c <sd_mmc_wait_end_of_read_blocks+0x60>)
  400a62:	4798      	blx	r3
  400a64:	b168      	cbz	r0, 400a82 <sd_mmc_wait_end_of_read_blocks+0x46>
		driver_adtc_stop(SDMMC_CMD12_STOP_TRANSMISSION, 0);
	}
	sd_mmc_deselect_slot();
  400a66:	4b0e      	ldr	r3, [pc, #56]	; (400aa0 <sd_mmc_wait_end_of_read_blocks+0x64>)
  400a68:	4798      	blx	r3
	return SD_MMC_OK;
  400a6a:	2000      	movs	r0, #0
  400a6c:	bd10      	pop	{r4, pc}
	} else if (sd_mmc_nb_block_remaining) {
  400a6e:	4b09      	ldr	r3, [pc, #36]	; (400a94 <sd_mmc_wait_end_of_read_blocks+0x58>)
  400a70:	881b      	ldrh	r3, [r3, #0]
  400a72:	2b00      	cmp	r3, #0
  400a74:	d0ed      	beq.n	400a52 <sd_mmc_wait_end_of_read_blocks+0x16>
		return SD_MMC_OK;
  400a76:	2000      	movs	r0, #0
}
  400a78:	bd10      	pop	{r4, pc}
		sd_mmc_deselect_slot();
  400a7a:	4b09      	ldr	r3, [pc, #36]	; (400aa0 <sd_mmc_wait_end_of_read_blocks+0x64>)
  400a7c:	4798      	blx	r3
		return SD_MMC_OK;
  400a7e:	2000      	movs	r0, #0
  400a80:	bd10      	pop	{r4, pc}
		driver_adtc_stop(SDMMC_CMD12_STOP_TRANSMISSION, 0);
  400a82:	2100      	movs	r1, #0
  400a84:	f243 100c 	movw	r0, #12556	; 0x310c
  400a88:	4b04      	ldr	r3, [pc, #16]	; (400a9c <sd_mmc_wait_end_of_read_blocks+0x60>)
  400a8a:	4798      	blx	r3
  400a8c:	e7eb      	b.n	400a66 <sd_mmc_wait_end_of_read_blocks+0x2a>
  400a8e:	bf00      	nop
  400a90:	00400f55 	.word	0x00400f55
  400a94:	20400488 	.word	0x20400488
  400a98:	2040048a 	.word	0x2040048a
  400a9c:	00400d59 	.word	0x00400d59
  400aa0:	00400261 	.word	0x00400261

00400aa4 <sd_mmc_init_write_blocks>:

sd_mmc_err_t sd_mmc_init_write_blocks(uint8_t slot, uint32_t start,
		uint16_t nb_block)
{
  400aa4:	b570      	push	{r4, r5, r6, lr}
  400aa6:	b082      	sub	sp, #8
  400aa8:	460e      	mov	r6, r1
  400aaa:	4615      	mov	r5, r2
	sd_mmc_err_t sd_mmc_err;
	uint32_t cmd, arg, resp;

	sd_mmc_err = sd_mmc_select_slot(slot);
  400aac:	4b16      	ldr	r3, [pc, #88]	; (400b08 <sd_mmc_init_write_blocks+0x64>)
  400aae:	4798      	blx	r3
	if (sd_mmc_err != SD_MMC_OK) {
  400ab0:	4604      	mov	r4, r0
  400ab2:	b9b8      	cbnz	r0, 400ae4 <sd_mmc_init_write_blocks+0x40>
	}

	if (nb_block > 1) {
		cmd = SDMMC_CMD25_WRITE_MULTIPLE_BLOCK;
	} else {
		cmd = SDMMC_CMD24_WRITE_BLOCK;
  400ab4:	4b15      	ldr	r3, [pc, #84]	; (400b0c <sd_mmc_init_write_blocks+0x68>)
  400ab6:	4816      	ldr	r0, [pc, #88]	; (400b10 <sd_mmc_init_write_blocks+0x6c>)
  400ab8:	2d01      	cmp	r5, #1
  400aba:	bf98      	it	ls
  400abc:	4618      	movls	r0, r3
	}
	/*
	 * SDSC Card (CCS=0) uses byte unit address,
	 * SDHC and SDXC Cards (CCS=1) use block unit address (512 Bytes unit).
	 */
	if (sd_mmc_card->type & CARD_TYPE_HC) {
  400abe:	4b15      	ldr	r3, [pc, #84]	; (400b14 <sd_mmc_init_write_blocks+0x70>)
  400ac0:	681b      	ldr	r3, [r3, #0]
  400ac2:	7adb      	ldrb	r3, [r3, #11]
  400ac4:	f013 0f08 	tst.w	r3, #8
		arg = start;
	} else {
		arg = (start * SD_MMC_BLOCK_SIZE);
  400ac8:	bf08      	it	eq
  400aca:	0276      	lsleq	r6, r6, #9
	}
	if (!driver_adtc_start(cmd, arg, SD_MMC_BLOCK_SIZE, nb_block, true)) {
  400acc:	2301      	movs	r3, #1
  400ace:	9300      	str	r3, [sp, #0]
  400ad0:	462b      	mov	r3, r5
  400ad2:	f44f 7200 	mov.w	r2, #512	; 0x200
  400ad6:	4631      	mov	r1, r6
  400ad8:	4e0f      	ldr	r6, [pc, #60]	; (400b18 <sd_mmc_init_write_blocks+0x74>)
  400ada:	47b0      	blx	r6
  400adc:	b928      	cbnz	r0, 400aea <sd_mmc_init_write_blocks+0x46>
		sd_mmc_deselect_slot();
  400ade:	4b0f      	ldr	r3, [pc, #60]	; (400b1c <sd_mmc_init_write_blocks+0x78>)
  400ae0:	4798      	blx	r3
		return SD_MMC_ERR_COMM;
  400ae2:	2405      	movs	r4, #5
		}
	}
	sd_mmc_nb_block_remaining = nb_block;
	sd_mmc_nb_block_to_tranfer = nb_block;
	return SD_MMC_OK;
}
  400ae4:	4620      	mov	r0, r4
  400ae6:	b002      	add	sp, #8
  400ae8:	bd70      	pop	{r4, r5, r6, pc}
		resp = driver_get_response();
  400aea:	4b0d      	ldr	r3, [pc, #52]	; (400b20 <sd_mmc_init_write_blocks+0x7c>)
  400aec:	4798      	blx	r3
		if (resp & CARD_STATUS_ERR_RD_WR) {
  400aee:	4b0d      	ldr	r3, [pc, #52]	; (400b24 <sd_mmc_init_write_blocks+0x80>)
  400af0:	4003      	ands	r3, r0
  400af2:	b923      	cbnz	r3, 400afe <sd_mmc_init_write_blocks+0x5a>
	sd_mmc_nb_block_remaining = nb_block;
  400af4:	4b0c      	ldr	r3, [pc, #48]	; (400b28 <sd_mmc_init_write_blocks+0x84>)
  400af6:	801d      	strh	r5, [r3, #0]
	sd_mmc_nb_block_to_tranfer = nb_block;
  400af8:	4b0c      	ldr	r3, [pc, #48]	; (400b2c <sd_mmc_init_write_blocks+0x88>)
  400afa:	801d      	strh	r5, [r3, #0]
	return SD_MMC_OK;
  400afc:	e7f2      	b.n	400ae4 <sd_mmc_init_write_blocks+0x40>
			sd_mmc_deselect_slot();
  400afe:	4b07      	ldr	r3, [pc, #28]	; (400b1c <sd_mmc_init_write_blocks+0x78>)
  400b00:	4798      	blx	r3
			return SD_MMC_ERR_COMM;
  400b02:	2405      	movs	r4, #5
  400b04:	e7ee      	b.n	400ae4 <sd_mmc_init_write_blocks+0x40>
  400b06:	bf00      	nop
  400b08:	004001d5 	.word	0x004001d5
  400b0c:	00089118 	.word	0x00089118
  400b10:	00109119 	.word	0x00109119
  400b14:	20400464 	.word	0x20400464
  400b18:	00400db5 	.word	0x00400db5
  400b1c:	00400261 	.word	0x00400261
  400b20:	00400d7d 	.word	0x00400d7d
  400b24:	e4580000 	.word	0xe4580000
  400b28:	20400488 	.word	0x20400488
  400b2c:	2040048a 	.word	0x2040048a

00400b30 <sd_mmc_start_write_blocks>:

sd_mmc_err_t sd_mmc_start_write_blocks(const void *src, uint16_t nb_block)
{
  400b30:	b510      	push	{r4, lr}
  400b32:	460c      	mov	r4, r1
	Assert(sd_mmc_nb_block_remaining >= nb_block);
	if (!driver_start_write_blocks(src, nb_block)) {
  400b34:	4b06      	ldr	r3, [pc, #24]	; (400b50 <sd_mmc_start_write_blocks+0x20>)
  400b36:	4798      	blx	r3
  400b38:	b920      	cbnz	r0, 400b44 <sd_mmc_start_write_blocks+0x14>
		sd_mmc_nb_block_remaining = 0;
  400b3a:	2200      	movs	r2, #0
  400b3c:	4b05      	ldr	r3, [pc, #20]	; (400b54 <sd_mmc_start_write_blocks+0x24>)
  400b3e:	801a      	strh	r2, [r3, #0]
		return SD_MMC_ERR_COMM;
  400b40:	2005      	movs	r0, #5
  400b42:	bd10      	pop	{r4, pc}
	}
	sd_mmc_nb_block_remaining -= nb_block;
  400b44:	4a03      	ldr	r2, [pc, #12]	; (400b54 <sd_mmc_start_write_blocks+0x24>)
  400b46:	8813      	ldrh	r3, [r2, #0]
  400b48:	1b1c      	subs	r4, r3, r4
  400b4a:	8014      	strh	r4, [r2, #0]
	return SD_MMC_OK;
  400b4c:	2000      	movs	r0, #0
}
  400b4e:	bd10      	pop	{r4, pc}
  400b50:	00400fb9 	.word	0x00400fb9
  400b54:	20400488 	.word	0x20400488

00400b58 <sd_mmc_wait_end_of_write_blocks>:

sd_mmc_err_t sd_mmc_wait_end_of_write_blocks(bool abort)
{
  400b58:	b510      	push	{r4, lr}
  400b5a:	4604      	mov	r4, r0
	if (!driver_wait_end_of_write_blocks()) {
  400b5c:	4b12      	ldr	r3, [pc, #72]	; (400ba8 <sd_mmc_wait_end_of_write_blocks+0x50>)
  400b5e:	4798      	blx	r3
  400b60:	b908      	cbnz	r0, 400b66 <sd_mmc_wait_end_of_write_blocks+0xe>
		return SD_MMC_ERR_COMM;
  400b62:	2005      	movs	r0, #5
  400b64:	bd10      	pop	{r4, pc}
	}
	if (abort) {
  400b66:	b184      	cbz	r4, 400b8a <sd_mmc_wait_end_of_write_blocks+0x32>
		sd_mmc_nb_block_remaining = 0;
  400b68:	2200      	movs	r2, #0
  400b6a:	4b10      	ldr	r3, [pc, #64]	; (400bac <sd_mmc_wait_end_of_write_blocks+0x54>)
  400b6c:	801a      	strh	r2, [r3, #0]
	} else if (sd_mmc_nb_block_remaining) {
		return SD_MMC_OK;
	}

	// All blocks are transfered then stop write operation
	if (sd_mmc_nb_block_to_tranfer == 1) {
  400b6e:	4b10      	ldr	r3, [pc, #64]	; (400bb0 <sd_mmc_wait_end_of_write_blocks+0x58>)
  400b70:	881b      	ldrh	r3, [r3, #0]
  400b72:	2b01      	cmp	r3, #1
  400b74:	d00f      	beq.n	400b96 <sd_mmc_wait_end_of_write_blocks+0x3e>
	}

	if (sd_mmc_is_mci()) {
		// Note: SPI multiblock writes terminate using a special
		// token, not a STOP_TRANSMISSION request.
		if (!driver_adtc_stop(SDMMC_CMD12_STOP_TRANSMISSION, 0)) {
  400b76:	2100      	movs	r1, #0
  400b78:	f243 100c 	movw	r0, #12556	; 0x310c
  400b7c:	4b0d      	ldr	r3, [pc, #52]	; (400bb4 <sd_mmc_wait_end_of_write_blocks+0x5c>)
  400b7e:	4798      	blx	r3
  400b80:	b968      	cbnz	r0, 400b9e <sd_mmc_wait_end_of_write_blocks+0x46>
			sd_mmc_deselect_slot();
  400b82:	4b0d      	ldr	r3, [pc, #52]	; (400bb8 <sd_mmc_wait_end_of_write_blocks+0x60>)
  400b84:	4798      	blx	r3
			return SD_MMC_ERR_COMM;
  400b86:	2005      	movs	r0, #5
  400b88:	bd10      	pop	{r4, pc}
	} else if (sd_mmc_nb_block_remaining) {
  400b8a:	4b08      	ldr	r3, [pc, #32]	; (400bac <sd_mmc_wait_end_of_write_blocks+0x54>)
  400b8c:	881b      	ldrh	r3, [r3, #0]
  400b8e:	2b00      	cmp	r3, #0
  400b90:	d0ed      	beq.n	400b6e <sd_mmc_wait_end_of_write_blocks+0x16>
		return SD_MMC_OK;
  400b92:	2000      	movs	r0, #0
		}
	}
	sd_mmc_deselect_slot();
	return SD_MMC_OK;
}
  400b94:	bd10      	pop	{r4, pc}
		sd_mmc_deselect_slot();
  400b96:	4b08      	ldr	r3, [pc, #32]	; (400bb8 <sd_mmc_wait_end_of_write_blocks+0x60>)
  400b98:	4798      	blx	r3
		return SD_MMC_OK;
  400b9a:	2000      	movs	r0, #0
  400b9c:	bd10      	pop	{r4, pc}
	sd_mmc_deselect_slot();
  400b9e:	4b06      	ldr	r3, [pc, #24]	; (400bb8 <sd_mmc_wait_end_of_write_blocks+0x60>)
  400ba0:	4798      	blx	r3
	return SD_MMC_OK;
  400ba2:	2000      	movs	r0, #0
  400ba4:	bd10      	pop	{r4, pc}
  400ba6:	bf00      	nop
  400ba8:	0040101d 	.word	0x0040101d
  400bac:	20400488 	.word	0x20400488
  400bb0:	2040048a 	.word	0x2040048a
  400bb4:	00400d59 	.word	0x00400d59
  400bb8:	00400261 	.word	0x00400261

00400bbc <hsmci_reset>:

/**
 * \brief Reset the HSMCI interface
 */
static void hsmci_reset(void)
{
  400bbc:	b470      	push	{r4, r5, r6}
	uint32_t mr = HSMCI->HSMCI_MR;
  400bbe:	f04f 4380 	mov.w	r3, #1073741824	; 0x40000000
  400bc2:	685d      	ldr	r5, [r3, #4]
	uint32_t dtor = HSMCI->HSMCI_DTOR;
  400bc4:	689c      	ldr	r4, [r3, #8]
	uint32_t sdcr = HSMCI->HSMCI_SDCR;
  400bc6:	68d8      	ldr	r0, [r3, #12]
	uint32_t cstor = HSMCI->HSMCI_CSTOR;
  400bc8:	69d9      	ldr	r1, [r3, #28]
	uint32_t cfg = HSMCI->HSMCI_CFG;
  400bca:	6d5a      	ldr	r2, [r3, #84]	; 0x54
	HSMCI->HSMCI_CR = HSMCI_CR_SWRST;
  400bcc:	2680      	movs	r6, #128	; 0x80
  400bce:	601e      	str	r6, [r3, #0]
	HSMCI->HSMCI_MR = mr;
  400bd0:	605d      	str	r5, [r3, #4]
	HSMCI->HSMCI_DTOR = dtor;
  400bd2:	609c      	str	r4, [r3, #8]
	HSMCI->HSMCI_SDCR = sdcr;
  400bd4:	60d8      	str	r0, [r3, #12]
	HSMCI->HSMCI_CSTOR = cstor;
  400bd6:	61d9      	str	r1, [r3, #28]
	HSMCI->HSMCI_CFG = cfg;
  400bd8:	655a      	str	r2, [r3, #84]	; 0x54
#ifdef HSMCI_SR_DMADONE
	HSMCI->HSMCI_DMA = 0;
#endif
#if (SAMV70 || SAMV71 || SAME70 || SAMS70)
#ifdef HSMCI_DMA_DMAEN
	HSMCI->HSMCI_DMA = 0;
  400bda:	2200      	movs	r2, #0
  400bdc:	651a      	str	r2, [r3, #80]	; 0x50
#endif
#endif
	// Enable the HSMCI
	HSMCI->HSMCI_CR = HSMCI_CR_PWSEN | HSMCI_CR_MCIEN;
  400bde:	2205      	movs	r2, #5
  400be0:	601a      	str	r2, [r3, #0]
}
  400be2:	bc70      	pop	{r4, r5, r6}
  400be4:	4770      	bx	lr
	...

00400be8 <hsmci_send_cmd_execute>:
 *
 * \return true if success, otherwise false
 */
static bool hsmci_send_cmd_execute(uint32_t cmdr, sdmmc_cmd_def_t cmd,
		uint32_t arg)
{
  400be8:	b508      	push	{r3, lr}
	uint32_t sr;

	cmdr |= HSMCI_CMDR_CMDNB(cmd) | HSMCI_CMDR_SPCMD_STD;
  400bea:	f001 033f 	and.w	r3, r1, #63	; 0x3f
  400bee:	4318      	orrs	r0, r3
	if (cmd & SDMMC_RESP_PRESENT) {
  400bf0:	f411 7f80 	tst.w	r1, #256	; 0x100
  400bf4:	d004      	beq.n	400c00 <hsmci_send_cmd_execute+0x18>
		cmdr |= HSMCI_CMDR_MAXLAT;
		if (cmd & SDMMC_RESP_136) {
  400bf6:	f411 6f00 	tst.w	r1, #2048	; 0x800
  400bfa:	d00e      	beq.n	400c1a <hsmci_send_cmd_execute+0x32>
			cmdr |= HSMCI_CMDR_RSPTYP_136_BIT;
  400bfc:	f440 5084 	orr.w	r0, r0, #4224	; 0x1080
			cmdr |= HSMCI_CMDR_RSPTYP_R1B;
		} else {
			cmdr |= HSMCI_CMDR_RSPTYP_48_BIT;
		}
	}
	if (cmd & SDMMC_CMD_OPENDRAIN) {
  400c00:	f411 4f80 	tst.w	r1, #16384	; 0x4000
		cmdr |= HSMCI_CMDR_OPDCMD_OPENDRAIN;
  400c04:	bf18      	it	ne
  400c06:	f440 6000 	orrne.w	r0, r0, #2048	; 0x800
	}

	// Write argument
	HSMCI->HSMCI_ARGR = arg;
  400c0a:	f04f 4380 	mov.w	r3, #1073741824	; 0x40000000
  400c0e:	611a      	str	r2, [r3, #16]
	// Write and start command
	HSMCI->HSMCI_CMDR = cmdr;
  400c10:	6158      	str	r0, [r3, #20]

	// Wait end of command
	do {
		sr = HSMCI->HSMCI_SR;
  400c12:	4618      	mov	r0, r3
		if (cmd & SDMMC_RESP_CRC) {
  400c14:	f401 5280 	and.w	r2, r1, #4096	; 0x1000
  400c18:	e00d      	b.n	400c36 <hsmci_send_cmd_execute+0x4e>
		} else if (cmd & SDMMC_RESP_BUSY) {
  400c1a:	f411 5f00 	tst.w	r1, #8192	; 0x2000
			cmdr |= HSMCI_CMDR_RSPTYP_R1B;
  400c1e:	bf14      	ite	ne
  400c20:	f440 5086 	orrne.w	r0, r0, #4288	; 0x10c0
			cmdr |= HSMCI_CMDR_RSPTYP_48_BIT;
  400c24:	f440 5082 	orreq.w	r0, r0, #4160	; 0x1040
  400c28:	e7ea      	b.n	400c00 <hsmci_send_cmd_execute+0x18>
						__func__, cmd, sr);
				hsmci_reset();
				return false;
			}
		} else {
			if (sr & (HSMCI_SR_CSTOE | HSMCI_SR_RTOE
  400c2a:	f413 0f1b 	tst.w	r3, #10158080	; 0x9b0000
  400c2e:	d10c      	bne.n	400c4a <hsmci_send_cmd_execute+0x62>
						__func__, cmd, sr);
				hsmci_reset();
				return false;
			}
		}
	} while (!(sr & HSMCI_SR_CMDRDY));
  400c30:	f013 0f01 	tst.w	r3, #1
  400c34:	d10d      	bne.n	400c52 <hsmci_send_cmd_execute+0x6a>
		sr = HSMCI->HSMCI_SR;
  400c36:	6c03      	ldr	r3, [r0, #64]	; 0x40
		if (cmd & SDMMC_RESP_CRC) {
  400c38:	2a00      	cmp	r2, #0
  400c3a:	d0f6      	beq.n	400c2a <hsmci_send_cmd_execute+0x42>
			if (sr & (HSMCI_SR_CSTOE | HSMCI_SR_RTOE
  400c3c:	f413 0f1f 	tst.w	r3, #10420224	; 0x9f0000
  400c40:	d0f6      	beq.n	400c30 <hsmci_send_cmd_execute+0x48>
				hsmci_reset();
  400c42:	4b10      	ldr	r3, [pc, #64]	; (400c84 <hsmci_send_cmd_execute+0x9c>)
  400c44:	4798      	blx	r3
				return false;
  400c46:	2000      	movs	r0, #0
  400c48:	bd08      	pop	{r3, pc}
				hsmci_reset();
  400c4a:	4b0e      	ldr	r3, [pc, #56]	; (400c84 <hsmci_send_cmd_execute+0x9c>)
  400c4c:	4798      	blx	r3
				return false;
  400c4e:	2000      	movs	r0, #0
  400c50:	bd08      	pop	{r3, pc}

	if (cmd & SDMMC_RESP_BUSY) {
  400c52:	f411 5f00 	tst.w	r1, #8192	; 0x2000
  400c56:	d103      	bne.n	400c60 <hsmci_send_cmd_execute+0x78>
		if (!hsmci_wait_busy()) {
			return false;
		}
	}
	return true;
  400c58:	2001      	movs	r0, #1
  400c5a:	bd08      	pop	{r3, pc}
	return true;
  400c5c:	2001      	movs	r0, #1
  400c5e:	bd08      	pop	{r3, pc}
		sr = HSMCI->HSMCI_SR;
  400c60:	f04f 4380 	mov.w	r3, #1073741824	; 0x40000000
  400c64:	6c1b      	ldr	r3, [r3, #64]	; 0x40
  400c66:	f04f 32ff 	mov.w	r2, #4294967295
  400c6a:	f04f 4180 	mov.w	r1, #1073741824	; 0x40000000
	} while (!((sr & HSMCI_SR_NOTBUSY) && ((sr & HSMCI_SR_DTIP) == 0)));
  400c6e:	f003 0330 	and.w	r3, r3, #48	; 0x30
  400c72:	2b20      	cmp	r3, #32
  400c74:	d0f2      	beq.n	400c5c <hsmci_send_cmd_execute+0x74>
		sr = HSMCI->HSMCI_SR;
  400c76:	6c0b      	ldr	r3, [r1, #64]	; 0x40
		if (busy_wait-- == 0) {
  400c78:	3a01      	subs	r2, #1
  400c7a:	d1f8      	bne.n	400c6e <hsmci_send_cmd_execute+0x86>
			hsmci_reset();
  400c7c:	4b01      	ldr	r3, [pc, #4]	; (400c84 <hsmci_send_cmd_execute+0x9c>)
  400c7e:	4798      	blx	r3
			return false;
  400c80:	2000      	movs	r0, #0
  400c82:	bd08      	pop	{r3, pc}
  400c84:	00400bbd 	.word	0x00400bbd

00400c88 <hsmci_init>:

//-------------------------------------------------------------------
//--------------------- PUBLIC FUNCTIONS ----------------------------

void hsmci_init(void)
{
  400c88:	b510      	push	{r4, lr}
	pmc_enable_periph_clk(ID_HSMCI);
  400c8a:	2012      	movs	r0, #18
  400c8c:	4c08      	ldr	r4, [pc, #32]	; (400cb0 <hsmci_init+0x28>)
  400c8e:	47a0      	blx	r4
#endif

#if (SAMV70 || SAMV71 || SAME70 || SAMS70)
#ifdef HSMCI_DMA_DMAEN
	// Enable clock for DMA controller
	pmc_enable_periph_clk(ID_XDMAC);
  400c90:	203a      	movs	r0, #58	; 0x3a
  400c92:	47a0      	blx	r4
#endif
#endif

	// Set the Data Timeout Register to 2 Mega Cycles
	HSMCI->HSMCI_DTOR = HSMCI_DTOR_DTOMUL_1048576 | HSMCI_DTOR_DTOCYC(2);
  400c94:	f04f 4380 	mov.w	r3, #1073741824	; 0x40000000
  400c98:	2272      	movs	r2, #114	; 0x72
  400c9a:	609a      	str	r2, [r3, #8]
	// Set Completion Signal Timeout to 2 Mega Cycles
	HSMCI->HSMCI_CSTOR = HSMCI_CSTOR_CSTOMUL_1048576 | HSMCI_CSTOR_CSTOCYC(2);
  400c9c:	61da      	str	r2, [r3, #28]
	// Set Configuration Register
	HSMCI->HSMCI_CFG = HSMCI_CFG_FIFOMODE | HSMCI_CFG_FERRCTRL;
  400c9e:	2211      	movs	r2, #17
  400ca0:	655a      	str	r2, [r3, #84]	; 0x54
	// Set power saving to maximum value
	HSMCI->HSMCI_MR = HSMCI_MR_PWSDIV_Msk;
  400ca2:	f44f 62e0 	mov.w	r2, #1792	; 0x700
  400ca6:	605a      	str	r2, [r3, #4]

	// Enable the HSMCI and the Power Saving
	HSMCI->HSMCI_CR = HSMCI_CR_MCIEN | HSMCI_CR_PWSEN;
  400ca8:	2205      	movs	r2, #5
  400caa:	601a      	str	r2, [r3, #0]
  400cac:	bd10      	pop	{r4, pc}
  400cae:	bf00      	nop
  400cb0:	004014e5 	.word	0x004014e5

00400cb4 <hsmci_get_bus_width>:
}

uint8_t hsmci_get_bus_width(uint8_t slot)
{
	switch (slot) {
  400cb4:	2800      	cmp	r0, #0
		return SD_MMC_HSMCI_SLOT_1_SIZE;
#endif
	default:
		return 0; // Slot number wrong
	}
}
  400cb6:	bf0c      	ite	eq
  400cb8:	2004      	moveq	r0, #4
  400cba:	2000      	movne	r0, #0
  400cbc:	4770      	bx	lr

00400cbe <hsmci_is_high_speed_capable>:

bool hsmci_is_high_speed_capable(void)
{
	return true;
}
  400cbe:	2001      	movs	r0, #1
  400cc0:	4770      	bx	lr
	...

00400cc4 <hsmci_select_device>:
void hsmci_select_device(uint8_t slot, uint32_t clock, uint8_t bus_width, bool high_speed)
{
	uint32_t hsmci_slot = HSMCI_SDCR_SDCSEL_SLOTA;
	uint32_t hsmci_bus_width = HSMCI_SDCR_SDCBUS_1;

	if (high_speed) {
  400cc4:	b19b      	cbz	r3, 400cee <hsmci_select_device+0x2a>
		HSMCI->HSMCI_CFG |= HSMCI_CFG_HSMODE;
  400cc6:	f04f 4080 	mov.w	r0, #1073741824	; 0x40000000
  400cca:	6d43      	ldr	r3, [r0, #84]	; 0x54
  400ccc:	f443 7380 	orr.w	r3, r3, #256	; 0x100
  400cd0:	6543      	str	r3, [r0, #84]	; 0x54
	if ((speed * 2) < mck) {
  400cd2:	0049      	lsls	r1, r1, #1
  400cd4:	4b15      	ldr	r3, [pc, #84]	; (400d2c <hsmci_select_device+0x68>)
  400cd6:	4299      	cmp	r1, r3
  400cd8:	d810      	bhi.n	400cfc <hsmci_select_device+0x38>
		clkdiv = mck / (2 * speed);
  400cda:	4815      	ldr	r0, [pc, #84]	; (400d30 <hsmci_select_device+0x6c>)
  400cdc:	fbb0 f3f1 	udiv	r3, r0, r1
		rest = mck % (2 * speed);
  400ce0:	fb01 0113 	mls	r1, r1, r3, r0
		if (rest > 0) {
  400ce4:	b101      	cbz	r1, 400ce8 <hsmci_select_device+0x24>
			clkdiv++;
  400ce6:	3301      	adds	r3, #1
		if (clkdiv > 0) {
  400ce8:	b14b      	cbz	r3, 400cfe <hsmci_select_device+0x3a>
			clkdiv -= 1;
  400cea:	3b01      	subs	r3, #1
  400cec:	e007      	b.n	400cfe <hsmci_select_device+0x3a>
	} else {
		HSMCI->HSMCI_CFG &= ~HSMCI_CFG_HSMODE;
  400cee:	f04f 4080 	mov.w	r0, #1073741824	; 0x40000000
  400cf2:	6d43      	ldr	r3, [r0, #84]	; 0x54
  400cf4:	f423 7380 	bic.w	r3, r3, #256	; 0x100
  400cf8:	6543      	str	r3, [r0, #84]	; 0x54
  400cfa:	e7ea      	b.n	400cd2 <hsmci_select_device+0xe>
		clkdiv = 0;
  400cfc:	2300      	movs	r3, #0
	HSMCI->HSMCI_MR &= ~HSMCI_MR_CLKDIV_Msk;
  400cfe:	f04f 4180 	mov.w	r1, #1073741824	; 0x40000000
  400d02:	6848      	ldr	r0, [r1, #4]
  400d04:	f020 00ff 	bic.w	r0, r0, #255	; 0xff
  400d08:	6048      	str	r0, [r1, #4]
	HSMCI->HSMCI_MR |= HSMCI_MR_CLKDIV(clkdiv);
  400d0a:	6848      	ldr	r0, [r1, #4]
  400d0c:	b2db      	uxtb	r3, r3
  400d0e:	4303      	orrs	r3, r0
  400d10:	604b      	str	r3, [r1, #4]
#endif
	default:
		Assert(false); // Slot number wrong
	}

	switch (bus_width) {
  400d12:	2a04      	cmp	r2, #4
  400d14:	d007      	beq.n	400d26 <hsmci_select_device+0x62>
	uint32_t hsmci_bus_width = HSMCI_SDCR_SDCBUS_1;
  400d16:	2a08      	cmp	r2, #8
  400d18:	bf0c      	ite	eq
  400d1a:	22c0      	moveq	r2, #192	; 0xc0
  400d1c:	2200      	movne	r2, #0
		break;

	default:
		Assert(false); // Bus width wrong
	}
	HSMCI->HSMCI_SDCR = hsmci_slot | hsmci_bus_width;
  400d1e:	f04f 4380 	mov.w	r3, #1073741824	; 0x40000000
  400d22:	60da      	str	r2, [r3, #12]
  400d24:	4770      	bx	lr
		hsmci_bus_width = HSMCI_SDCR_SDCBUS_4;
  400d26:	2280      	movs	r2, #128	; 0x80
  400d28:	e7f9      	b.n	400d1e <hsmci_select_device+0x5a>
  400d2a:	bf00      	nop
  400d2c:	089543ff 	.word	0x089543ff
  400d30:	08954400 	.word	0x08954400

00400d34 <hsmci_deselect_device>:
}

void hsmci_deselect_device(uint8_t slot)
{
  400d34:	4770      	bx	lr

00400d36 <hsmci_send_clock>:
}

void hsmci_send_clock(void)
{
	// Configure command
	HSMCI->HSMCI_MR &= ~(HSMCI_MR_WRPROOF | HSMCI_MR_RDPROOF | HSMCI_MR_FBYTE);
  400d36:	f04f 4380 	mov.w	r3, #1073741824	; 0x40000000
  400d3a:	685a      	ldr	r2, [r3, #4]
  400d3c:	f422 5260 	bic.w	r2, r2, #14336	; 0x3800
  400d40:	605a      	str	r2, [r3, #4]
	// Write argument
	HSMCI->HSMCI_ARGR = 0;
  400d42:	2200      	movs	r2, #0
  400d44:	611a      	str	r2, [r3, #16]
	// Write and start initialization command
	HSMCI->HSMCI_CMDR = HSMCI_CMDR_RSPTYP_NORESP
  400d46:	f44f 6210 	mov.w	r2, #2304	; 0x900
  400d4a:	615a      	str	r2, [r3, #20]
			| HSMCI_CMDR_SPCMD_INIT
			| HSMCI_CMDR_OPDCMD_OPENDRAIN;
	// Wait end of initialization command
	while (!(HSMCI->HSMCI_SR & HSMCI_SR_CMDRDY));
  400d4c:	461a      	mov	r2, r3
  400d4e:	6c13      	ldr	r3, [r2, #64]	; 0x40
  400d50:	f013 0f01 	tst.w	r3, #1
  400d54:	d0fb      	beq.n	400d4e <hsmci_send_clock+0x18>
}
  400d56:	4770      	bx	lr

00400d58 <hsmci_send_cmd>:

bool hsmci_send_cmd(sdmmc_cmd_def_t cmd, uint32_t arg)
{
  400d58:	b510      	push	{r4, lr}
	// Configure command
	HSMCI->HSMCI_MR &= ~(HSMCI_MR_WRPROOF | HSMCI_MR_RDPROOF | HSMCI_MR_FBYTE);
  400d5a:	f04f 4380 	mov.w	r3, #1073741824	; 0x40000000
  400d5e:	685a      	ldr	r2, [r3, #4]
  400d60:	f422 5260 	bic.w	r2, r2, #14336	; 0x3800
  400d64:	605a      	str	r2, [r3, #4]
	HSMCI->HSMCI_MR &= ~HSMCI_MR_PDCMODE;
#endif
#if (SAMV70 || SAMV71 || SAME70 || SAMS70)
#ifdef HSMCI_DMA_DMAEN
	// Disable DMA for HSMCI
	HSMCI->HSMCI_DMA = 0;
  400d66:	2400      	movs	r4, #0
  400d68:	651c      	str	r4, [r3, #80]	; 0x50
#endif
#endif
	HSMCI->HSMCI_BLKR = 0;
  400d6a:	619c      	str	r4, [r3, #24]
	return hsmci_send_cmd_execute(0, cmd, arg);
  400d6c:	460a      	mov	r2, r1
  400d6e:	4601      	mov	r1, r0
  400d70:	4620      	mov	r0, r4
  400d72:	4b01      	ldr	r3, [pc, #4]	; (400d78 <hsmci_send_cmd+0x20>)
  400d74:	4798      	blx	r3
}
  400d76:	bd10      	pop	{r4, pc}
  400d78:	00400be9 	.word	0x00400be9

00400d7c <hsmci_get_response>:

uint32_t hsmci_get_response(void)
{
	return HSMCI->HSMCI_RSPR[0];
  400d7c:	f04f 4380 	mov.w	r3, #1073741824	; 0x40000000
  400d80:	6a18      	ldr	r0, [r3, #32]
}
  400d82:	4770      	bx	lr

00400d84 <hsmci_get_response_128>:

void hsmci_get_response_128(uint8_t* response)
{
  400d84:	b410      	push	{r4}
  400d86:	1d03      	adds	r3, r0, #4
  400d88:	3014      	adds	r0, #20
	uint32_t response_32;

	for (uint8_t i = 0; i < 4; i++) {
		response_32 = HSMCI->HSMCI_RSPR[0];
  400d8a:	f04f 4480 	mov.w	r4, #1073741824	; 0x40000000
  400d8e:	6a22      	ldr	r2, [r4, #32]
		*response = (response_32 >> 24) & 0xFF;
  400d90:	0e11      	lsrs	r1, r2, #24
  400d92:	f803 1c04 	strb.w	r1, [r3, #-4]
		response++;
		*response = (response_32 >> 16) & 0xFF;
  400d96:	0c11      	lsrs	r1, r2, #16
  400d98:	f803 1c03 	strb.w	r1, [r3, #-3]
		response++;
		*response = (response_32 >>  8) & 0xFF;
  400d9c:	0a11      	lsrs	r1, r2, #8
  400d9e:	f803 1c02 	strb.w	r1, [r3, #-2]
		response++;
		*response = (response_32 >>  0) & 0xFF;
  400da2:	f803 2c01 	strb.w	r2, [r3, #-1]
  400da6:	3304      	adds	r3, #4
	for (uint8_t i = 0; i < 4; i++) {
  400da8:	4283      	cmp	r3, r0
  400daa:	d1f0      	bne.n	400d8e <hsmci_get_response_128+0xa>
		response++;
	}
}
  400dac:	f85d 4b04 	ldr.w	r4, [sp], #4
  400db0:	4770      	bx	lr
	...

00400db4 <hsmci_adtc_start>:

bool hsmci_adtc_start(sdmmc_cmd_def_t cmd, uint32_t arg, uint16_t block_size, uint16_t nb_block, bool access_block)
{
  400db4:	b570      	push	{r4, r5, r6, lr}
  400db6:	f89d 4010 	ldrb.w	r4, [sp, #16]
	}
#endif

#if (SAMV70 || SAMV71 || SAME70 || SAMS70)
#ifdef HSMCI_DMA_DMAEN
	if (access_block) {
  400dba:	b384      	cbz	r4, 400e1e <hsmci_adtc_start+0x6a>
		// Enable DMA for HSMCI
		HSMCI->HSMCI_DMA = HSMCI_DMA_DMAEN;
  400dbc:	f44f 7580 	mov.w	r5, #256	; 0x100
  400dc0:	f04f 4480 	mov.w	r4, #1073741824	; 0x40000000
  400dc4:	6525      	str	r5, [r4, #80]	; 0x50
#endif
#endif
	// Enabling Read/Write Proof allows to stop the HSMCI Clock during
	// read/write  access if the internal FIFO is full.
	// This will guarantee data integrity, not bandwidth.
	HSMCI->HSMCI_MR |= HSMCI_MR_WRPROOF | HSMCI_MR_RDPROOF;
  400dc6:	f04f 4580 	mov.w	r5, #1073741824	; 0x40000000
  400dca:	686c      	ldr	r4, [r5, #4]
  400dcc:	f444 54c0 	orr.w	r4, r4, #6144	; 0x1800
  400dd0:	606c      	str	r4, [r5, #4]
	// Force byte transfer if needed
	if (block_size & 0x3) {
  400dd2:	f012 0f03 	tst.w	r2, #3
  400dd6:	d027      	beq.n	400e28 <hsmci_adtc_start+0x74>
		HSMCI->HSMCI_MR |= HSMCI_MR_FBYTE;
  400dd8:	686c      	ldr	r4, [r5, #4]
  400dda:	f444 5400 	orr.w	r4, r4, #8192	; 0x2000
  400dde:	606c      	str	r4, [r5, #4]
	} else {
		HSMCI->HSMCI_MR &= ~HSMCI_MR_FBYTE;
	}

	if (cmd & SDMMC_CMD_WRITE) {
  400de0:	f400 4400 	and.w	r4, r0, #32768	; 0x8000
		cmdr = HSMCI_CMDR_TRCMD_START_DATA | HSMCI_CMDR_TRDIR_WRITE;
	} else {
		cmdr = HSMCI_CMDR_TRCMD_START_DATA | HSMCI_CMDR_TRDIR_READ;
  400de4:	2c00      	cmp	r4, #0
  400de6:	bf14      	ite	ne
  400de8:	f44f 3480 	movne.w	r4, #65536	; 0x10000
  400dec:	f44f 24a0 	moveq.w	r4, #327680	; 0x50000
	}

	if (cmd & SDMMC_CMD_SDIO_BYTE) {
  400df0:	f410 3f80 	tst.w	r0, #65536	; 0x10000
  400df4:	d11f      	bne.n	400e36 <hsmci_adtc_start+0x82>
			cmdr |= HSMCI_CMDR_TRTYP_BYTE;
			// Value 0 corresponds to a 512-byte transfer
			HSMCI->HSMCI_BLKR = ((block_size % 512) << HSMCI_BLKR_BCNT_Pos);
	} else {
		HSMCI->HSMCI_BLKR = (block_size << HSMCI_BLKR_BLKLEN_Pos) |
  400df6:	ea43 4502 	orr.w	r5, r3, r2, lsl #16
  400dfa:	f04f 4680 	mov.w	r6, #1073741824	; 0x40000000
  400dfe:	61b5      	str	r5, [r6, #24]
				(nb_block << HSMCI_BLKR_BCNT_Pos);
		if (cmd & SDMMC_CMD_SDIO_BLOCK) {
  400e00:	f410 3f00 	tst.w	r0, #131072	; 0x20000
  400e04:	d12b      	bne.n	400e5e <hsmci_adtc_start+0xaa>
			cmdr |= HSMCI_CMDR_TRTYP_BLOCK;
		} else if (cmd & SDMMC_CMD_STREAM) {
  400e06:	f410 2f80 	tst.w	r0, #262144	; 0x40000
  400e0a:	d12b      	bne.n	400e64 <hsmci_adtc_start+0xb0>
			cmdr |= HSMCI_CMDR_TRTYP_STREAM;
		} else if (cmd & SDMMC_CMD_SINGLE_BLOCK) {
  400e0c:	f410 2f00 	tst.w	r0, #524288	; 0x80000
  400e10:	d118      	bne.n	400e44 <hsmci_adtc_start+0x90>
			cmdr |= HSMCI_CMDR_TRTYP_SINGLE;
		} else if (cmd & SDMMC_CMD_MULTI_BLOCK) {
  400e12:	f410 1f80 	tst.w	r0, #1048576	; 0x100000
			cmdr |= HSMCI_CMDR_TRTYP_MULTIPLE;
  400e16:	bf18      	it	ne
  400e18:	f444 2400 	orrne.w	r4, r4, #524288	; 0x80000
  400e1c:	e012      	b.n	400e44 <hsmci_adtc_start+0x90>
		HSMCI->HSMCI_DMA = 0;
  400e1e:	2500      	movs	r5, #0
  400e20:	f04f 4480 	mov.w	r4, #1073741824	; 0x40000000
  400e24:	6525      	str	r5, [r4, #80]	; 0x50
  400e26:	e7ce      	b.n	400dc6 <hsmci_adtc_start+0x12>
		HSMCI->HSMCI_MR &= ~HSMCI_MR_FBYTE;
  400e28:	f04f 4580 	mov.w	r5, #1073741824	; 0x40000000
  400e2c:	686c      	ldr	r4, [r5, #4]
  400e2e:	f424 5400 	bic.w	r4, r4, #8192	; 0x2000
  400e32:	606c      	str	r4, [r5, #4]
  400e34:	e7d4      	b.n	400de0 <hsmci_adtc_start+0x2c>
			cmdr |= HSMCI_CMDR_TRTYP_BYTE;
  400e36:	f444 1400 	orr.w	r4, r4, #2097152	; 0x200000
			HSMCI->HSMCI_BLKR = ((block_size % 512) << HSMCI_BLKR_BCNT_Pos);
  400e3a:	f3c2 0508 	ubfx	r5, r2, #0, #9
  400e3e:	f04f 4680 	mov.w	r6, #1073741824	; 0x40000000
  400e42:	61b5      	str	r5, [r6, #24]
		} else {
			Assert(false); // Incorrect flags
		}
	}
	hsmci_transfert_pos = 0;
  400e44:	2600      	movs	r6, #0
  400e46:	4d09      	ldr	r5, [pc, #36]	; (400e6c <hsmci_adtc_start+0xb8>)
  400e48:	602e      	str	r6, [r5, #0]
	hsmci_block_size = block_size;
  400e4a:	4d09      	ldr	r5, [pc, #36]	; (400e70 <hsmci_adtc_start+0xbc>)
  400e4c:	802a      	strh	r2, [r5, #0]
	hsmci_nb_block = nb_block;
  400e4e:	4a09      	ldr	r2, [pc, #36]	; (400e74 <hsmci_adtc_start+0xc0>)
  400e50:	8013      	strh	r3, [r2, #0]

	return hsmci_send_cmd_execute(cmdr, cmd, arg);
  400e52:	460a      	mov	r2, r1
  400e54:	4601      	mov	r1, r0
  400e56:	4620      	mov	r0, r4
  400e58:	4b07      	ldr	r3, [pc, #28]	; (400e78 <hsmci_adtc_start+0xc4>)
  400e5a:	4798      	blx	r3
}
  400e5c:	bd70      	pop	{r4, r5, r6, pc}
			cmdr |= HSMCI_CMDR_TRTYP_BLOCK;
  400e5e:	f444 1420 	orr.w	r4, r4, #2621440	; 0x280000
  400e62:	e7ef      	b.n	400e44 <hsmci_adtc_start+0x90>
			cmdr |= HSMCI_CMDR_TRTYP_STREAM;
  400e64:	f444 1480 	orr.w	r4, r4, #1048576	; 0x100000
  400e68:	e7ec      	b.n	400e44 <hsmci_adtc_start+0x90>
  400e6a:	bf00      	nop
  400e6c:	20400494 	.word	0x20400494
  400e70:	2040048e 	.word	0x2040048e
  400e74:	20400490 	.word	0x20400490
  400e78:	00400be9 	.word	0x00400be9

00400e7c <hsmci_read_word>:
{
	return hsmci_send_cmd_execute(HSMCI_CMDR_TRCMD_STOP_DATA, cmd, arg);
}

bool hsmci_read_word(uint32_t* value)
{
  400e7c:	b508      	push	{r3, lr}

	Assert(((uint32_t)hsmci_block_size * hsmci_nb_block) > hsmci_transfert_pos);

	// Wait data available
	do {
		sr = HSMCI->HSMCI_SR;
  400e7e:	f04f 4180 	mov.w	r1, #1073741824	; 0x40000000
		if (sr & (HSMCI_SR_UNRE | HSMCI_SR_OVRE | \
  400e82:	4a16      	ldr	r2, [pc, #88]	; (400edc <hsmci_read_word+0x60>)
		sr = HSMCI->HSMCI_SR;
  400e84:	6c0b      	ldr	r3, [r1, #64]	; 0x40
		if (sr & (HSMCI_SR_UNRE | HSMCI_SR_OVRE | \
  400e86:	4213      	tst	r3, r2
  400e88:	d11d      	bne.n	400ec6 <hsmci_read_word+0x4a>
			hsmci_debug("%s: DMA sr 0x%08x error\n\r",
					__func__, sr);
			hsmci_reset();
			return false;
		}
	} while (!(sr & HSMCI_SR_RXRDY));
  400e8a:	f013 0f02 	tst.w	r3, #2
  400e8e:	d0f9      	beq.n	400e84 <hsmci_read_word+0x8>

	// Read data
	*value = HSMCI->HSMCI_RDR;
  400e90:	f04f 4380 	mov.w	r3, #1073741824	; 0x40000000
  400e94:	6b1b      	ldr	r3, [r3, #48]	; 0x30
  400e96:	6003      	str	r3, [r0, #0]
	hsmci_transfert_pos += 4;
  400e98:	4a11      	ldr	r2, [pc, #68]	; (400ee0 <hsmci_read_word+0x64>)
  400e9a:	6813      	ldr	r3, [r2, #0]
  400e9c:	3304      	adds	r3, #4
  400e9e:	6013      	str	r3, [r2, #0]
	if (((uint32_t)hsmci_block_size * hsmci_nb_block) > hsmci_transfert_pos) {
  400ea0:	4a10      	ldr	r2, [pc, #64]	; (400ee4 <hsmci_read_word+0x68>)
  400ea2:	8811      	ldrh	r1, [r2, #0]
  400ea4:	4a10      	ldr	r2, [pc, #64]	; (400ee8 <hsmci_read_word+0x6c>)
  400ea6:	8812      	ldrh	r2, [r2, #0]
  400ea8:	fb02 f201 	mul.w	r2, r2, r1
  400eac:	4293      	cmp	r3, r2
  400eae:	d312      	bcc.n	400ed6 <hsmci_read_word+0x5a>
	}

	// Wait end of transfer
	// Note: no need of timeout, because it is include in HSMCI
	do {
		sr = HSMCI->HSMCI_SR;
  400eb0:	f04f 4180 	mov.w	r1, #1073741824	; 0x40000000
		if (sr & (HSMCI_SR_UNRE | HSMCI_SR_OVRE | \
  400eb4:	4a09      	ldr	r2, [pc, #36]	; (400edc <hsmci_read_word+0x60>)
		sr = HSMCI->HSMCI_SR;
  400eb6:	6c0b      	ldr	r3, [r1, #64]	; 0x40
		if (sr & (HSMCI_SR_UNRE | HSMCI_SR_OVRE | \
  400eb8:	4213      	tst	r3, r2
  400eba:	d108      	bne.n	400ece <hsmci_read_word+0x52>
			hsmci_debug("%s: DMA sr 0x%08x error\n\r",
					__func__, sr);
			hsmci_reset();
			return false;
		}
	} while (!(sr & HSMCI_SR_XFRDONE));
  400ebc:	f013 6f00 	tst.w	r3, #134217728	; 0x8000000
  400ec0:	d0f9      	beq.n	400eb6 <hsmci_read_word+0x3a>
	return true;
  400ec2:	2001      	movs	r0, #1
  400ec4:	bd08      	pop	{r3, pc}
			hsmci_reset();
  400ec6:	4b09      	ldr	r3, [pc, #36]	; (400eec <hsmci_read_word+0x70>)
  400ec8:	4798      	blx	r3
			return false;
  400eca:	2000      	movs	r0, #0
  400ecc:	bd08      	pop	{r3, pc}
			hsmci_reset();
  400ece:	4b07      	ldr	r3, [pc, #28]	; (400eec <hsmci_read_word+0x70>)
  400ed0:	4798      	blx	r3
			return false;
  400ed2:	2000      	movs	r0, #0
  400ed4:	bd08      	pop	{r3, pc}
		return true;
  400ed6:	2001      	movs	r0, #1
}
  400ed8:	bd08      	pop	{r3, pc}
  400eda:	bf00      	nop
  400edc:	c0600000 	.word	0xc0600000
  400ee0:	20400494 	.word	0x20400494
  400ee4:	2040048e 	.word	0x2040048e
  400ee8:	20400490 	.word	0x20400490
  400eec:	00400bbd 	.word	0x00400bbd

00400ef0 <hsmci_start_read_blocks>:
#endif // HSMCI_MR_PDCMODE

#if (SAMV70 || SAMV71 || SAME70 || SAMS70)
#ifdef HSMCI_DMA_DMAEN
bool hsmci_start_read_blocks(void *dest, uint16_t nb_block)
{
  400ef0:	b5f0      	push	{r4, r5, r6, r7, lr}
  400ef2:	b089      	sub	sp, #36	; 0x24
  400ef4:	4607      	mov	r7, r0
  400ef6:	460c      	mov	r4, r1
	xdmac_channel_config_t p_cfg = {0, 0, 0, 0, 0, 0, 0, 0};
  400ef8:	2220      	movs	r2, #32
  400efa:	2100      	movs	r1, #0
  400efc:	4668      	mov	r0, sp
  400efe:	4b0e      	ldr	r3, [pc, #56]	; (400f38 <hsmci_start_read_blocks+0x48>)
  400f00:	4798      	blx	r3
 */
static inline void xdmac_channel_disable(Xdmac *xdmac, uint32_t channel_num)
{
	Assert(xdmac);
	Assert(channel_num < XDMACCHID_NUMBER);
	xdmac->XDMAC_GD =(XDMAC_GD_DI0 << channel_num);
  400f02:	4e0e      	ldr	r6, [pc, #56]	; (400f3c <hsmci_start_read_blocks+0x4c>)
  400f04:	2501      	movs	r5, #1
  400f06:	6235      	str	r5, [r6, #32]
	Assert(nb_block);
	Assert(dest);

	xdmac_channel_disable(XDMAC, CONF_HSMCI_XDMAC_CHANNEL);

	nb_data = nb_block * hsmci_block_size;
  400f08:	4b0d      	ldr	r3, [pc, #52]	; (400f40 <hsmci_start_read_blocks+0x50>)
  400f0a:	881b      	ldrh	r3, [r3, #0]
  400f0c:	fb04 f403 	mul.w	r4, r4, r3

	p_cfg.mbr_cfg = XDMAC_CC_TYPE_PER_TRAN
  400f10:	4b0c      	ldr	r3, [pc, #48]	; (400f44 <hsmci_start_read_blocks+0x54>)
  400f12:	9303      	str	r3, [sp, #12]
					| XDMAC_CC_SIF_AHB_IF1
					| XDMAC_CC_DIF_AHB_IF0
					| XDMAC_CC_SAM_FIXED_AM
					| XDMAC_CC_DAM_INCREMENTED_AM
					| XDMAC_CC_PERID(CONF_HSMCI_XDMAC_CHANNEL);
	p_cfg.mbr_ubc = nb_data / 4;
  400f14:	08a3      	lsrs	r3, r4, #2
  400f16:	9300      	str	r3, [sp, #0]
	p_cfg.mbr_sa = (uint32_t)&(HSMCI->HSMCI_FIFO[0]);
  400f18:	4b0b      	ldr	r3, [pc, #44]	; (400f48 <hsmci_start_read_blocks+0x58>)
  400f1a:	9301      	str	r3, [sp, #4]
	p_cfg.mbr_da = (uint32_t)dest;
  400f1c:	9702      	str	r7, [sp, #8]
	xdmac_configure_transfer(XDMAC, CONF_HSMCI_XDMAC_CHANNEL, &p_cfg);
  400f1e:	466a      	mov	r2, sp
  400f20:	2100      	movs	r1, #0
  400f22:	4630      	mov	r0, r6
  400f24:	4b09      	ldr	r3, [pc, #36]	; (400f4c <hsmci_start_read_blocks+0x5c>)
  400f26:	4798      	blx	r3
	xdmac->XDMAC_GE = (XDMAC_GE_EN0 << channel_num);
  400f28:	61f5      	str	r5, [r6, #28]
	xdmac_channel_enable(XDMAC, CONF_HSMCI_XDMAC_CHANNEL);
	hsmci_transfert_pos += nb_data;
  400f2a:	4a09      	ldr	r2, [pc, #36]	; (400f50 <hsmci_start_read_blocks+0x60>)
  400f2c:	6813      	ldr	r3, [r2, #0]
  400f2e:	441c      	add	r4, r3
  400f30:	6014      	str	r4, [r2, #0]
	return true;
}
  400f32:	4628      	mov	r0, r5
  400f34:	b009      	add	sp, #36	; 0x24
  400f36:	bdf0      	pop	{r4, r5, r6, r7, pc}
  400f38:	004023c1 	.word	0x004023c1
  400f3c:	40078000 	.word	0x40078000
  400f40:	2040048e 	.word	0x2040048e
  400f44:	00043001 	.word	0x00043001
  400f48:	40000200 	.word	0x40000200
  400f4c:	00401539 	.word	0x00401539
  400f50:	20400494 	.word	0x20400494

00400f54 <hsmci_wait_end_of_read_blocks>:

bool hsmci_wait_end_of_read_blocks(void)
{
  400f54:	b570      	push	{r4, r5, r6, lr}
			hsmci_reset();
			// Disable XDMAC
			xdmac_channel_disable(XDMAC, CONF_HSMCI_XDMAC_CHANNEL);
			return false;
		}
		if (((uint32_t)hsmci_block_size * hsmci_nb_block) > hsmci_transfert_pos) {
  400f56:	4b12      	ldr	r3, [pc, #72]	; (400fa0 <hsmci_wait_end_of_read_blocks+0x4c>)
  400f58:	881b      	ldrh	r3, [r3, #0]
  400f5a:	4a12      	ldr	r2, [pc, #72]	; (400fa4 <hsmci_wait_end_of_read_blocks+0x50>)
  400f5c:	8812      	ldrh	r2, [r2, #0]
  400f5e:	fb02 f203 	mul.w	r2, r2, r3
  400f62:	4b11      	ldr	r3, [pc, #68]	; (400fa8 <hsmci_wait_end_of_read_blocks+0x54>)
  400f64:	681c      	ldr	r4, [r3, #0]
		sr = HSMCI->HSMCI_SR;
  400f66:	f04f 4080 	mov.w	r0, #1073741824	; 0x40000000
		if (sr & (HSMCI_SR_UNRE | HSMCI_SR_OVRE | \
  400f6a:	4910      	ldr	r1, [pc, #64]	; (400fac <hsmci_wait_end_of_read_blocks+0x58>)
 */
static inline uint32_t xdmac_channel_get_interrupt_status(Xdmac *xdmac, uint32_t channel_num)
{
	Assert(xdmac);
	Assert(channel_num < XDMACCHID_NUMBER);
	return xdmac->XDMAC_CHID[channel_num].XDMAC_CIS;
  400f6c:	4e10      	ldr	r6, [pc, #64]	; (400fb0 <hsmci_wait_end_of_read_blocks+0x5c>)
  400f6e:	e009      	b.n	400f84 <hsmci_wait_end_of_read_blocks+0x30>
			hsmci_reset();
  400f70:	4b10      	ldr	r3, [pc, #64]	; (400fb4 <hsmci_wait_end_of_read_blocks+0x60>)
  400f72:	4798      	blx	r3
	xdmac->XDMAC_GD =(XDMAC_GD_DI0 << channel_num);
  400f74:	2201      	movs	r2, #1
  400f76:	4b0e      	ldr	r3, [pc, #56]	; (400fb0 <hsmci_wait_end_of_read_blocks+0x5c>)
  400f78:	621a      	str	r2, [r3, #32]
			return false;
  400f7a:	2000      	movs	r0, #0
  400f7c:	bd70      	pop	{r4, r5, r6, pc}
			dma_sr = xdmac_channel_get_interrupt_status(XDMAC, CONF_HSMCI_XDMAC_CHANNEL);
			if (dma_sr & XDMAC_CIS_BIS) {
				return true;
			}
		}
	} while (!(sr & HSMCI_SR_XFRDONE));
  400f7e:	f013 6f00 	tst.w	r3, #134217728	; 0x8000000
  400f82:	d10a      	bne.n	400f9a <hsmci_wait_end_of_read_blocks+0x46>
		sr = HSMCI->HSMCI_SR;
  400f84:	6c03      	ldr	r3, [r0, #64]	; 0x40
		if (sr & (HSMCI_SR_UNRE | HSMCI_SR_OVRE | \
  400f86:	420b      	tst	r3, r1
  400f88:	d1f2      	bne.n	400f70 <hsmci_wait_end_of_read_blocks+0x1c>
		if (((uint32_t)hsmci_block_size * hsmci_nb_block) > hsmci_transfert_pos) {
  400f8a:	42a2      	cmp	r2, r4
  400f8c:	d9f7      	bls.n	400f7e <hsmci_wait_end_of_read_blocks+0x2a>
	return xdmac->XDMAC_CHID[channel_num].XDMAC_CIS;
  400f8e:	6df5      	ldr	r5, [r6, #92]	; 0x5c
			if (dma_sr & XDMAC_CIS_BIS) {
  400f90:	f015 0f01 	tst.w	r5, #1
  400f94:	d0f3      	beq.n	400f7e <hsmci_wait_end_of_read_blocks+0x2a>
				return true;
  400f96:	2001      	movs	r0, #1
	return true;
}
  400f98:	bd70      	pop	{r4, r5, r6, pc}
	return true;
  400f9a:	2001      	movs	r0, #1
  400f9c:	bd70      	pop	{r4, r5, r6, pc}
  400f9e:	bf00      	nop
  400fa0:	2040048e 	.word	0x2040048e
  400fa4:	20400490 	.word	0x20400490
  400fa8:	20400494 	.word	0x20400494
  400fac:	c0600000 	.word	0xc0600000
  400fb0:	40078000 	.word	0x40078000
  400fb4:	00400bbd 	.word	0x00400bbd

00400fb8 <hsmci_start_write_blocks>:

bool hsmci_start_write_blocks(const void *src, uint16_t nb_block)
{
  400fb8:	b5f0      	push	{r4, r5, r6, r7, lr}
  400fba:	b089      	sub	sp, #36	; 0x24
  400fbc:	4607      	mov	r7, r0
  400fbe:	460c      	mov	r4, r1
	xdmac_channel_config_t p_cfg = {0, 0, 0, 0, 0, 0, 0, 0};
  400fc0:	2220      	movs	r2, #32
  400fc2:	2100      	movs	r1, #0
  400fc4:	4668      	mov	r0, sp
  400fc6:	4b0e      	ldr	r3, [pc, #56]	; (401000 <hsmci_start_write_blocks+0x48>)
  400fc8:	4798      	blx	r3
	xdmac->XDMAC_GD =(XDMAC_GD_DI0 << channel_num);
  400fca:	4e0e      	ldr	r6, [pc, #56]	; (401004 <hsmci_start_write_blocks+0x4c>)
  400fcc:	2501      	movs	r5, #1
  400fce:	6235      	str	r5, [r6, #32]
	Assert(nb_block);
	Assert(dest);

	xdmac_channel_disable(XDMAC, CONF_HSMCI_XDMAC_CHANNEL);

	nb_data = nb_block * hsmci_block_size;
  400fd0:	4b0d      	ldr	r3, [pc, #52]	; (401008 <hsmci_start_write_blocks+0x50>)
  400fd2:	881b      	ldrh	r3, [r3, #0]
  400fd4:	fb04 f403 	mul.w	r4, r4, r3

	p_cfg.mbr_cfg = XDMAC_CC_TYPE_PER_TRAN
  400fd8:	4b0c      	ldr	r3, [pc, #48]	; (40100c <hsmci_start_write_blocks+0x54>)
  400fda:	9303      	str	r3, [sp, #12]
					| XDMAC_CC_SIF_AHB_IF0
					| XDMAC_CC_DIF_AHB_IF1
					| XDMAC_CC_SAM_INCREMENTED_AM
					| XDMAC_CC_DAM_FIXED_AM
					| XDMAC_CC_PERID(CONF_HSMCI_XDMAC_CHANNEL);
	p_cfg.mbr_ubc = nb_data / 4;
  400fdc:	08a3      	lsrs	r3, r4, #2
  400fde:	9300      	str	r3, [sp, #0]
	p_cfg.mbr_sa = (uint32_t)src;
  400fe0:	9701      	str	r7, [sp, #4]
	p_cfg.mbr_da = (uint32_t)&(HSMCI->HSMCI_FIFO[0]);
  400fe2:	4b0b      	ldr	r3, [pc, #44]	; (401010 <hsmci_start_write_blocks+0x58>)
  400fe4:	9302      	str	r3, [sp, #8]
	xdmac_configure_transfer(XDMAC, CONF_HSMCI_XDMAC_CHANNEL, &p_cfg);
  400fe6:	466a      	mov	r2, sp
  400fe8:	2100      	movs	r1, #0
  400fea:	4630      	mov	r0, r6
  400fec:	4b09      	ldr	r3, [pc, #36]	; (401014 <hsmci_start_write_blocks+0x5c>)
  400fee:	4798      	blx	r3
	xdmac->XDMAC_GE = (XDMAC_GE_EN0 << channel_num);
  400ff0:	61f5      	str	r5, [r6, #28]
	xdmac_channel_enable(XDMAC, CONF_HSMCI_XDMAC_CHANNEL);
	hsmci_transfert_pos += nb_data;
  400ff2:	4a09      	ldr	r2, [pc, #36]	; (401018 <hsmci_start_write_blocks+0x60>)
  400ff4:	6813      	ldr	r3, [r2, #0]
  400ff6:	441c      	add	r4, r3
  400ff8:	6014      	str	r4, [r2, #0]
	return true;
}
  400ffa:	4628      	mov	r0, r5
  400ffc:	b009      	add	sp, #36	; 0x24
  400ffe:	bdf0      	pop	{r4, r5, r6, r7, pc}
  401000:	004023c1 	.word	0x004023c1
  401004:	40078000 	.word	0x40078000
  401008:	2040048e 	.word	0x2040048e
  40100c:	00015011 	.word	0x00015011
  401010:	40000200 	.word	0x40000200
  401014:	00401539 	.word	0x00401539
  401018:	20400494 	.word	0x20400494

0040101c <hsmci_wait_end_of_write_blocks>:

bool hsmci_wait_end_of_write_blocks(void)
{
  40101c:	b570      	push	{r4, r5, r6, lr}
			hsmci_reset();
			// Disable XDMAC
			xdmac_channel_disable(XDMAC, CONF_HSMCI_XDMAC_CHANNEL);
			return false;
		}
		if (((uint32_t)hsmci_block_size * hsmci_nb_block) > hsmci_transfert_pos) {
  40101e:	4b12      	ldr	r3, [pc, #72]	; (401068 <hsmci_wait_end_of_write_blocks+0x4c>)
  401020:	881b      	ldrh	r3, [r3, #0]
  401022:	4a12      	ldr	r2, [pc, #72]	; (40106c <hsmci_wait_end_of_write_blocks+0x50>)
  401024:	8812      	ldrh	r2, [r2, #0]
  401026:	fb02 f203 	mul.w	r2, r2, r3
  40102a:	4b11      	ldr	r3, [pc, #68]	; (401070 <hsmci_wait_end_of_write_blocks+0x54>)
  40102c:	681c      	ldr	r4, [r3, #0]
		sr = HSMCI->HSMCI_SR;
  40102e:	f04f 4080 	mov.w	r0, #1073741824	; 0x40000000
		if (sr & (HSMCI_SR_UNRE | HSMCI_SR_OVRE | \
  401032:	4910      	ldr	r1, [pc, #64]	; (401074 <hsmci_wait_end_of_write_blocks+0x58>)
	return xdmac->XDMAC_CHID[channel_num].XDMAC_CIS;
  401034:	4e10      	ldr	r6, [pc, #64]	; (401078 <hsmci_wait_end_of_write_blocks+0x5c>)
  401036:	e009      	b.n	40104c <hsmci_wait_end_of_write_blocks+0x30>
			hsmci_reset();
  401038:	4b10      	ldr	r3, [pc, #64]	; (40107c <hsmci_wait_end_of_write_blocks+0x60>)
  40103a:	4798      	blx	r3
	xdmac->XDMAC_GD =(XDMAC_GD_DI0 << channel_num);
  40103c:	2201      	movs	r2, #1
  40103e:	4b0e      	ldr	r3, [pc, #56]	; (401078 <hsmci_wait_end_of_write_blocks+0x5c>)
  401040:	621a      	str	r2, [r3, #32]
			return false;
  401042:	2000      	movs	r0, #0
  401044:	bd70      	pop	{r4, r5, r6, pc}
			dma_sr = xdmac_channel_get_interrupt_status(XDMAC, CONF_HSMCI_XDMAC_CHANNEL);
			if (dma_sr & XDMAC_CIS_BIS) {
				return true;
			}
		}
	} while (!(sr & HSMCI_SR_XFRDONE));
  401046:	f013 6f00 	tst.w	r3, #134217728	; 0x8000000
  40104a:	d10a      	bne.n	401062 <hsmci_wait_end_of_write_blocks+0x46>
		sr = HSMCI->HSMCI_SR;
  40104c:	6c03      	ldr	r3, [r0, #64]	; 0x40
		if (sr & (HSMCI_SR_UNRE | HSMCI_SR_OVRE | \
  40104e:	420b      	tst	r3, r1
  401050:	d1f2      	bne.n	401038 <hsmci_wait_end_of_write_blocks+0x1c>
		if (((uint32_t)hsmci_block_size * hsmci_nb_block) > hsmci_transfert_pos) {
  401052:	42a2      	cmp	r2, r4
  401054:	d9f7      	bls.n	401046 <hsmci_wait_end_of_write_blocks+0x2a>
	return xdmac->XDMAC_CHID[channel_num].XDMAC_CIS;
  401056:	6df5      	ldr	r5, [r6, #92]	; 0x5c
			if (dma_sr & XDMAC_CIS_BIS) {
  401058:	f015 0f01 	tst.w	r5, #1
  40105c:	d0f3      	beq.n	401046 <hsmci_wait_end_of_write_blocks+0x2a>
				return true;
  40105e:	2001      	movs	r0, #1

	return true;
}
  401060:	bd70      	pop	{r4, r5, r6, pc}
	return true;
  401062:	2001      	movs	r0, #1
  401064:	bd70      	pop	{r4, r5, r6, pc}
  401066:	bf00      	nop
  401068:	2040048e 	.word	0x2040048e
  40106c:	20400490 	.word	0x20400490
  401070:	20400494 	.word	0x20400494
  401074:	c0600000 	.word	0xc0600000
  401078:	40078000 	.word	0x40078000
  40107c:	00400bbd 	.word	0x00400bbd

00401080 <matrix_set_system_io>:

	p_matrix->MATRIX_SYSIO = ul_io;

#elif (SAMV71 || SAMV70 || SAMS70 || SAME70)
	
	p_matrix->CCFG_SYSIO &= 0xFFFF0000;
  401080:	4b06      	ldr	r3, [pc, #24]	; (40109c <matrix_set_system_io+0x1c>)
  401082:	f8d3 1114 	ldr.w	r1, [r3, #276]	; 0x114
  401086:	4a06      	ldr	r2, [pc, #24]	; (4010a0 <matrix_set_system_io+0x20>)
  401088:	400a      	ands	r2, r1
  40108a:	f8c3 2114 	str.w	r2, [r3, #276]	; 0x114
	p_matrix->CCFG_SYSIO |= (ul_io & 0xFFFF);
  40108e:	f8d3 2114 	ldr.w	r2, [r3, #276]	; 0x114
  401092:	b280      	uxth	r0, r0
  401094:	4310      	orrs	r0, r2
  401096:	f8c3 0114 	str.w	r0, [r3, #276]	; 0x114
  40109a:	4770      	bx	lr
  40109c:	40088000 	.word	0x40088000
  4010a0:	ffff0000 	.word	0xffff0000

004010a4 <matrix_get_system_io>:

	return (p_matrix->MATRIX_SYSIO);

#elif (SAMV71 || SAMV70 || SAMS70 || SAME70)

	return (p_matrix->CCFG_SYSIO & 0xFFFF);
  4010a4:	4b02      	ldr	r3, [pc, #8]	; (4010b0 <matrix_get_system_io+0xc>)
  4010a6:	f8d3 0114 	ldr.w	r0, [r3, #276]	; 0x114
#else

	return (p_matrix->CCFG_SYSIO);

#endif
}
  4010aa:	b280      	uxth	r0, r0
  4010ac:	4770      	bx	lr
  4010ae:	bf00      	nop
  4010b0:	40088000 	.word	0x40088000

004010b4 <pwm_clocks_generate>:
 *
 * \retval Return the value to be set in the PWM Clock Register (PWM Mode Register for
 * SAM3N/SAM4N/SAM4C/SAM4CP/SAM4CM) or PWM_INVALID_ARGUMENT if the configuration cannot be met.
 */
static uint32_t pwm_clocks_generate(uint32_t ul_frequency, uint32_t ul_mck)
{
  4010b4:	b4f0      	push	{r4, r5, r6, r7}
  4010b6:	b08c      	sub	sp, #48	; 0x30
  4010b8:	4607      	mov	r7, r0
  4010ba:	460e      	mov	r6, r1
	uint32_t ul_divisors[PWM_CLOCK_PRE_MAX] =
  4010bc:	ac01      	add	r4, sp, #4
  4010be:	4d11      	ldr	r5, [pc, #68]	; (401104 <pwm_clocks_generate+0x50>)
  4010c0:	cd0f      	ldmia	r5!, {r0, r1, r2, r3}
  4010c2:	c40f      	stmia	r4!, {r0, r1, r2, r3}
  4010c4:	cd0f      	ldmia	r5!, {r0, r1, r2, r3}
  4010c6:	c40f      	stmia	r4!, {r0, r1, r2, r3}
  4010c8:	e895 0007 	ldmia.w	r5, {r0, r1, r2}
  4010cc:	e884 0007 	stmia.w	r4, {r0, r1, r2}
  4010d0:	aa01      	add	r2, sp, #4
			{1, 2, 4, 8, 16, 32, 64, 128, 256, 512, 1024 };
	uint32_t ul_pre = 0;
  4010d2:	2300      	movs	r3, #0
	uint32_t ul_div;

	/* Find prescaler and divisor values */
	do {
		ul_div = (ul_mck / ul_divisors[ul_pre]) / ul_frequency;
  4010d4:	f852 0b04 	ldr.w	r0, [r2], #4
  4010d8:	fbb6 f0f0 	udiv	r0, r6, r0
  4010dc:	fbb0 f0f7 	udiv	r0, r0, r7
		if (ul_div <= PWM_CLOCK_DIV_MAX) {
  4010e0:	f5b0 7f80 	cmp.w	r0, #256	; 0x100
  4010e4:	d907      	bls.n	4010f6 <pwm_clocks_generate+0x42>
			break;
		}
		ul_pre++;
  4010e6:	3301      	adds	r3, #1
	} while (ul_pre < PWM_CLOCK_PRE_MAX);
  4010e8:	2b0b      	cmp	r3, #11
  4010ea:	d1f3      	bne.n	4010d4 <pwm_clocks_generate+0x20>

	/* Return result */
	if (ul_pre < PWM_CLOCK_PRE_MAX) {
		return ul_div | (ul_pre << 8);
	} else {
		return PWM_INVALID_ARGUMENT;
  4010ec:	f64f 70ff 	movw	r0, #65535	; 0xffff
	}
}
  4010f0:	b00c      	add	sp, #48	; 0x30
  4010f2:	bcf0      	pop	{r4, r5, r6, r7}
  4010f4:	4770      	bx	lr
	if (ul_pre < PWM_CLOCK_PRE_MAX) {
  4010f6:	2b0a      	cmp	r3, #10
		return ul_div | (ul_pre << 8);
  4010f8:	bf94      	ite	ls
  4010fa:	ea40 2003 	orrls.w	r0, r0, r3, lsl #8
		return PWM_INVALID_ARGUMENT;
  4010fe:	f64f 70ff 	movwhi	r0, #65535	; 0xffff
  401102:	e7f5      	b.n	4010f0 <pwm_clocks_generate+0x3c>
  401104:	00402618 	.word	0x00402618

00401108 <pwm_init>:
 * \param clock_config PWM clock configuration.
 *
 * \retval 0 if initialization succeeds, otherwise fails.
 */
uint32_t pwm_init(Pwm *p_pwm, pwm_clock_t *clock_config)
{
  401108:	b570      	push	{r4, r5, r6, lr}
  40110a:	4606      	mov	r6, r0
  40110c:	460d      	mov	r5, r1
	uint32_t clock = 0;
	uint32_t result;

	/* Clock A */
	if (clock_config->ul_clka != 0) {
  40110e:	680c      	ldr	r4, [r1, #0]
  401110:	b144      	cbz	r4, 401124 <pwm_init+0x1c>
		result = pwm_clocks_generate(clock_config->ul_clka, clock_config->ul_mck);
  401112:	6889      	ldr	r1, [r1, #8]
  401114:	4620      	mov	r0, r4
  401116:	4b0c      	ldr	r3, [pc, #48]	; (401148 <pwm_init+0x40>)
  401118:	4798      	blx	r3
  40111a:	4604      	mov	r4, r0
		if (result == PWM_INVALID_ARGUMENT) {
  40111c:	f64f 73ff 	movw	r3, #65535	; 0xffff
  401120:	4298      	cmp	r0, r3
  401122:	d00c      	beq.n	40113e <pwm_init+0x36>

		clock = result;
	}

	/* Clock B */
	if (clock_config->ul_clkb != 0) {
  401124:	6868      	ldr	r0, [r5, #4]
  401126:	b140      	cbz	r0, 40113a <pwm_init+0x32>
		result = pwm_clocks_generate(clock_config->ul_clkb, clock_config->ul_mck);
  401128:	68a9      	ldr	r1, [r5, #8]
  40112a:	4b07      	ldr	r3, [pc, #28]	; (401148 <pwm_init+0x40>)
  40112c:	4798      	blx	r3

		if (result == PWM_INVALID_ARGUMENT) {
  40112e:	f64f 73ff 	movw	r3, #65535	; 0xffff
  401132:	4298      	cmp	r0, r3
  401134:	d005      	beq.n	401142 <pwm_init+0x3a>
			return result;
		}

		clock |= (result << 16);
  401136:	ea44 4400 	orr.w	r4, r4, r0, lsl #16
	}
#if (SAM3N || SAM4N || SAM4C || SAM4CP || SAM4CM)
	p_pwm->PWM_MR = clock;
#else
	p_pwm->PWM_CLK = clock;
  40113a:	6034      	str	r4, [r6, #0]
#endif
	return 0;
  40113c:	2400      	movs	r4, #0
}
  40113e:	4620      	mov	r0, r4
  401140:	bd70      	pop	{r4, r5, r6, pc}
			return result;
  401142:	4604      	mov	r4, r0
  401144:	e7fb      	b.n	40113e <pwm_init+0x36>
  401146:	bf00      	nop
  401148:	004010b5 	.word	0x004010b5

0040114c <pwm_channel_init>:
 * \param p_channel Configurations of the specified PWM channel.
 *
 * \retval 0 if initialization succeeds, otherwise fails.
 */
uint32_t pwm_channel_init(Pwm *p_pwm, pwm_channel_t *p_channel)
{
  40114c:	b470      	push	{r4, r5, r6}
	uint32_t tmp_reg = 0;
	uint32_t ch_num = p_channel->channel;
  40114e:	680a      	ldr	r2, [r1, #0]

	/* Channel Mode/Clock Register */
	tmp_reg = (p_channel->ul_prescaler & 0xF) |
  401150:	684b      	ldr	r3, [r1, #4]
  401152:	f003 030f 	and.w	r3, r3, #15
			(p_channel->polarity << 9) |
#if (SAM3U || SAM3S || SAM3XA || SAM4S || SAM4E || SAMV70 || SAMV71 || SAME70 || SAMS70)
			(p_channel->counter_event) |
  401156:	8a8c      	ldrh	r4, [r1, #20]
	tmp_reg = (p_channel->ul_prescaler & 0xF) |
  401158:	4323      	orrs	r3, r4
			(p_channel->b_deadtime_generator << 16) |
			(p_channel->b_pwmh_output_inverted << 17) |
			(p_channel->b_pwml_output_inverted << 18) |
#endif
			(p_channel->alignment);
  40115a:	890c      	ldrh	r4, [r1, #8]
	tmp_reg = (p_channel->ul_prescaler & 0xF) |
  40115c:	4323      	orrs	r3, r4
			(p_channel->polarity << 9) |
  40115e:	7a8c      	ldrb	r4, [r1, #10]
	tmp_reg = (p_channel->ul_prescaler & 0xF) |
  401160:	ea43 2344 	orr.w	r3, r3, r4, lsl #9
			(p_channel->b_deadtime_generator << 16) |
  401164:	7d8c      	ldrb	r4, [r1, #22]
	tmp_reg = (p_channel->ul_prescaler & 0xF) |
  401166:	ea43 4304 	orr.w	r3, r3, r4, lsl #16
			(p_channel->b_pwmh_output_inverted << 17) |
  40116a:	7dcc      	ldrb	r4, [r1, #23]
	tmp_reg = (p_channel->ul_prescaler & 0xF) |
  40116c:	ea43 4344 	orr.w	r3, r3, r4, lsl #17
			(p_channel->b_pwml_output_inverted << 18) |
  401170:	7e0c      	ldrb	r4, [r1, #24]
	tmp_reg = (p_channel->ul_prescaler & 0xF) |
  401172:	ea43 4384 	orr.w	r3, r3, r4, lsl #18
  401176:	eb00 1442 	add.w	r4, r0, r2, lsl #5
	p_pwm->PWM_CH_NUM[ch_num].PWM_CMR = tmp_reg;
  40117a:	f8c4 3200 	str.w	r3, [r4, #512]	; 0x200

	/* Channel Duty Cycle Register */
	p_pwm->PWM_CH_NUM[ch_num].PWM_CDTY = p_channel->ul_duty;
  40117e:	68cb      	ldr	r3, [r1, #12]
  401180:	f8c4 3204 	str.w	r3, [r4, #516]	; 0x204

	/* Channel Period Register */
	p_pwm->PWM_CH_NUM[ch_num].PWM_CPRD = p_channel->ul_period;
  401184:	690b      	ldr	r3, [r1, #16]
  401186:	f8c4 320c 	str.w	r3, [r4, #524]	; 0x20c
	
#if (SAM3U || SAM3S || SAM3XA || SAM4S || SAM4E || SAMV70 || SAMV71 || SAME70 || SAMS70)
	/* Channel Dead Time Register */
	if (p_channel->b_deadtime_generator) {
  40118a:	7d8b      	ldrb	r3, [r1, #22]
  40118c:	b13b      	cbz	r3, 40119e <pwm_channel_init+0x52>
		p_pwm->PWM_CH_NUM[ch_num].PWM_DT =
				PWM_DT_DTL(p_channel->
  40118e:	8b8c      	ldrh	r4, [r1, #28]
				us_deadtime_pwml) | PWM_DT_DTH(p_channel->
  401190:	8b4b      	ldrh	r3, [r1, #26]
  401192:	ea43 4304 	orr.w	r3, r3, r4, lsl #16
		p_pwm->PWM_CH_NUM[ch_num].PWM_DT =
  401196:	eb00 1442 	add.w	r4, r0, r2, lsl #5
  40119a:	f8c4 3218 	str.w	r3, [r4, #536]	; 0x218
				us_deadtime_pwmh);
	}

	/* Output Selection Register */
	tmp_reg  = p_pwm->PWM_OS & (~((PWM_OS_OSH0 | PWM_OS_OSL0) << ch_num));
  40119e:	6c85      	ldr	r5, [r0, #72]	; 0x48
  4011a0:	f04f 1301 	mov.w	r3, #65537	; 0x10001
  4011a4:	4093      	lsls	r3, r2
  4011a6:	43db      	mvns	r3, r3
  4011a8:	401d      	ands	r5, r3
	tmp_reg |= ((p_channel->output_selection.b_override_pwmh) << ch_num) |
			(((p_channel->output_selection.b_override_pwml) << ch_num)
  4011aa:	7fcc      	ldrb	r4, [r1, #31]
  4011ac:	fa04 f602 	lsl.w	r6, r4, r2
	tmp_reg |= ((p_channel->output_selection.b_override_pwmh) << ch_num) |
  4011b0:	7f8c      	ldrb	r4, [r1, #30]
  4011b2:	4094      	lsls	r4, r2
  4011b4:	ea44 4406 	orr.w	r4, r4, r6, lsl #16
  4011b8:	432c      	orrs	r4, r5
					<< 16);
	p_pwm->PWM_OS = tmp_reg;
  4011ba:	6484      	str	r4, [r0, #72]	; 0x48

	/* Output Override Value Register */
	tmp_reg  = p_pwm->PWM_OOV & (~((PWM_OOV_OOVH0 | PWM_OOV_OOVL0) << ch_num));
  4011bc:	6c44      	ldr	r4, [r0, #68]	; 0x44
  4011be:	4023      	ands	r3, r4
	tmp_reg |= ((p_channel->output_selection.override_level_pwmh) << ch_num) |
			(((p_channel->output_selection.override_level_pwml) << ch_num)
  4011c0:	f891 4021 	ldrb.w	r4, [r1, #33]	; 0x21
  4011c4:	fa04 f502 	lsl.w	r5, r4, r2
	tmp_reg |= ((p_channel->output_selection.override_level_pwmh) << ch_num) |
  4011c8:	f891 4020 	ldrb.w	r4, [r1, #32]
  4011cc:	4094      	lsls	r4, r2
  4011ce:	ea44 4405 	orr.w	r4, r4, r5, lsl #16
  4011d2:	4323      	orrs	r3, r4
					<< 16);
	p_pwm->PWM_OOV = tmp_reg;
  4011d4:	6443      	str	r3, [r0, #68]	; 0x44

	/* Sync Channels Mode Register */
	uint32_t channel = (1 << ch_num);
  4011d6:	2301      	movs	r3, #1
  4011d8:	4093      	lsls	r3, r2
	if (p_channel->b_sync_ch) {
  4011da:	f891 4022 	ldrb.w	r4, [r1, #34]	; 0x22
  4011de:	2c00      	cmp	r4, #0
  4011e0:	d04f      	beq.n	401282 <pwm_channel_init+0x136>
		p_pwm->PWM_SCM |= channel;
  4011e2:	6a04      	ldr	r4, [r0, #32]
  4011e4:	431c      	orrs	r4, r3
  4011e6:	6204      	str	r4, [r0, #32]
		p_pwm->PWM_SCM &= ~((uint32_t) channel);
	}

	/* Fault Protection Value Register */
#if (SAM4E || SAMV70 || SAMV71 || SAME70 || SAMS70)
	if (p_channel->ul_fault_output_pwmh == PWM_HIGHZ) {
  4011e8:	f891 4024 	ldrb.w	r4, [r1, #36]	; 0x24
  4011ec:	2c02      	cmp	r4, #2
  4011ee:	d04d      	beq.n	40128c <pwm_channel_init+0x140>
		p_pwm->PWM_FPV2 |= (0x01 << ch_num);
	} else {
		p_pwm->PWM_FPV2 &= ~(0x01 << ch_num);
  4011f0:	f8d0 50c0 	ldr.w	r5, [r0, #192]	; 0xc0
  4011f4:	43dc      	mvns	r4, r3
  4011f6:	4025      	ands	r5, r4
  4011f8:	f8c0 50c0 	str.w	r5, [r0, #192]	; 0xc0
		if (p_channel->ul_fault_output_pwmh == PWM_HIGH) {
  4011fc:	f891 5024 	ldrb.w	r5, [r1, #36]	; 0x24
  401200:	2d01      	cmp	r5, #1
  401202:	d049      	beq.n	401298 <pwm_channel_init+0x14c>
			p_pwm->PWM_FPV1 |= (0x01 << ch_num);
		} else {
			p_pwm->PWM_FPV1 &= (~(0x01 << ch_num));
  401204:	6e85      	ldr	r5, [r0, #104]	; 0x68
  401206:	402c      	ands	r4, r5
  401208:	6684      	str	r4, [r0, #104]	; 0x68
		}
	}
	if (p_channel->ul_fault_output_pwml == PWM_HIGHZ) {
  40120a:	f891 4025 	ldrb.w	r4, [r1, #37]	; 0x25
  40120e:	2c02      	cmp	r4, #2
  401210:	d046      	beq.n	4012a0 <pwm_channel_init+0x154>
		p_pwm->PWM_FPV2 |= ((0x01 << ch_num) << 16);
	} else {
		p_pwm->PWM_FPV2 &= ~((0x01 << ch_num) << 16);
  401212:	f8d0 50c0 	ldr.w	r5, [r0, #192]	; 0xc0
  401216:	041b      	lsls	r3, r3, #16
  401218:	43dc      	mvns	r4, r3
  40121a:	4025      	ands	r5, r4
  40121c:	f8c0 50c0 	str.w	r5, [r0, #192]	; 0xc0
		if (p_channel->ul_fault_output_pwml == PWM_HIGH) {
  401220:	f891 5025 	ldrb.w	r5, [r1, #37]	; 0x25
  401224:	2d01      	cmp	r5, #1
  401226:	d042      	beq.n	4012ae <pwm_channel_init+0x162>
			p_pwm->PWM_FPV1 |= ((0x01 << ch_num) << 16);
		} else {
			p_pwm->PWM_FPV1 &= (~((0x01 << ch_num) << 16));
  401228:	6e83      	ldr	r3, [r0, #104]	; 0x68
  40122a:	401c      	ands	r4, r3
  40122c:	6684      	str	r4, [r0, #104]	; 0x68
		p_pwm->PWM_FPE2 = fault_enable_reg;
	}
#endif

#if (SAM3U || SAM3S || SAM4S || SAM4E || SAMV70 || SAMV71 || SAME70 || SAMS70)
	ch_num *= 8;
  40122e:	00d2      	lsls	r2, r2, #3
	fault_enable_reg = p_pwm->PWM_FPE;
  401230:	6ec3      	ldr	r3, [r0, #108]	; 0x6c
	fault_enable_reg &= ~(0xFF << ch_num);
  401232:	24ff      	movs	r4, #255	; 0xff
  401234:	4094      	lsls	r4, r2
  401236:	ea23 0404 	bic.w	r4, r3, r4
	fault_enable_reg |= ((p_channel->fault_id) << ch_num);
  40123a:	f891 3023 	ldrb.w	r3, [r1, #35]	; 0x23
  40123e:	4093      	lsls	r3, r2
  401240:	4323      	orrs	r3, r4
	p_pwm->PWM_FPE = fault_enable_reg;
  401242:	66c3      	str	r3, [r0, #108]	; 0x6c
	}
	p_pwm->PWM_CH_NUM_0X400[ch_num].PWM_CAE =
			PWM_CAE_ADEDGV(p_channel->ul_additional_edge) |
			p_channel->additional_edge_mode;
#elif (SAMV70 || SAMV71 || SAME70 || SAMS70)
	if (!ch_num) {
  401244:	b952      	cbnz	r2, 40125c <pwm_channel_init+0x110>
		if (p_channel->spread_spectrum_mode ==
  401246:	f891 302c 	ldrb.w	r3, [r1, #44]	; 0x2c
  40124a:	2b01      	cmp	r3, #1
		PWM_SPREAD_SPECTRUM_MODE_RANDOM) {
			p_pwm->PWM_SSPR = PWM_SSPR_SPRD(p_channel->ul_spread) |
  40124c:	6a8b      	ldr	r3, [r1, #40]	; 0x28
  40124e:	f023 437f 	bic.w	r3, r3, #4278190080	; 0xff000000
  401252:	bf08      	it	eq
  401254:	f043 7380 	orreq.w	r3, r3, #16777216	; 0x1000000
			PWM_SSPR_SPRDM;
			} else {
			p_pwm->PWM_SSPR = PWM_SSPR_SPRD(p_channel->ul_spread);
  401258:	f8c0 30a0 	str.w	r3, [r0, #160]	; 0xa0
  40125c:	eb00 1042 	add.w	r0, r0, r2, lsl #5
		}
	}
	p_pwm->PWM_CH_NUM[ch_num].PWM_CMR &= (~PWM_CMR_PPM);
  401260:	f8d0 3200 	ldr.w	r3, [r0, #512]	; 0x200
  401264:	f423 2300 	bic.w	r3, r3, #524288	; 0x80000
  401268:	f8c0 3200 	str.w	r3, [r0, #512]	; 0x200
	p_pwm->PWM_CH_NUM[ch_num].PWM_CMR |= (p_channel->ul_ppm_mode & PWM_CMR_PPM);
  40126c:	f8d0 2200 	ldr.w	r2, [r0, #512]	; 0x200
  401270:	6b8b      	ldr	r3, [r1, #56]	; 0x38
  401272:	f403 2300 	and.w	r3, r3, #524288	; 0x80000
  401276:	4313      	orrs	r3, r2
  401278:	f8c0 3200 	str.w	r3, [r0, #512]	; 0x200
#endif

	return 0;
}
  40127c:	2000      	movs	r0, #0
  40127e:	bc70      	pop	{r4, r5, r6}
  401280:	4770      	bx	lr
		p_pwm->PWM_SCM &= ~((uint32_t) channel);
  401282:	6a04      	ldr	r4, [r0, #32]
  401284:	ea24 0403 	bic.w	r4, r4, r3
  401288:	6204      	str	r4, [r0, #32]
  40128a:	e7ad      	b.n	4011e8 <pwm_channel_init+0x9c>
		p_pwm->PWM_FPV2 |= (0x01 << ch_num);
  40128c:	f8d0 40c0 	ldr.w	r4, [r0, #192]	; 0xc0
  401290:	431c      	orrs	r4, r3
  401292:	f8c0 40c0 	str.w	r4, [r0, #192]	; 0xc0
  401296:	e7b8      	b.n	40120a <pwm_channel_init+0xbe>
			p_pwm->PWM_FPV1 |= (0x01 << ch_num);
  401298:	6e84      	ldr	r4, [r0, #104]	; 0x68
  40129a:	431c      	orrs	r4, r3
  40129c:	6684      	str	r4, [r0, #104]	; 0x68
  40129e:	e7b4      	b.n	40120a <pwm_channel_init+0xbe>
		p_pwm->PWM_FPV2 |= ((0x01 << ch_num) << 16);
  4012a0:	f8d0 40c0 	ldr.w	r4, [r0, #192]	; 0xc0
  4012a4:	ea44 4303 	orr.w	r3, r4, r3, lsl #16
  4012a8:	f8c0 30c0 	str.w	r3, [r0, #192]	; 0xc0
  4012ac:	e7bf      	b.n	40122e <pwm_channel_init+0xe2>
			p_pwm->PWM_FPV1 |= ((0x01 << ch_num) << 16);
  4012ae:	6e84      	ldr	r4, [r0, #104]	; 0x68
  4012b0:	4323      	orrs	r3, r4
  4012b2:	6683      	str	r3, [r0, #104]	; 0x68
  4012b4:	e7bb      	b.n	40122e <pwm_channel_init+0xe2>

004012b6 <pwm_channel_update_duty>:
		uint32_t ul_duty)
{
	uint32_t ch_num = p_channel->channel;

		/** Check parameter */
	if (p_channel->ul_period < ul_duty) {
  4012b6:	690b      	ldr	r3, [r1, #16]
  4012b8:	4293      	cmp	r3, r2
  4012ba:	d202      	bcs.n	4012c2 <pwm_channel_update_duty+0xc>
		return PWM_INVALID_ARGUMENT;
  4012bc:	f64f 70ff 	movw	r0, #65535	; 0xffff
		p_pwm->PWM_CH_NUM[ch_num].PWM_CDTYUPD = ul_duty;
#endif
	}

	return 0;
}
  4012c0:	4770      	bx	lr
	uint32_t ch_num = p_channel->channel;
  4012c2:	680b      	ldr	r3, [r1, #0]
		p_channel->ul_duty = ul_duty;
  4012c4:	60ca      	str	r2, [r1, #12]
		p_pwm->PWM_CH_NUM[ch_num].PWM_CDTYUPD = ul_duty;
  4012c6:	eb00 1043 	add.w	r0, r0, r3, lsl #5
  4012ca:	f8c0 2208 	str.w	r2, [r0, #520]	; 0x208
	return 0;
  4012ce:	2000      	movs	r0, #0
  4012d0:	4770      	bx	lr

004012d2 <pwm_channel_enable>:
 * \param p_pwm Pointer to a PWM instance.
 * \param ul_channel PWM channel number to enable.
 */
void pwm_channel_enable(Pwm *p_pwm, uint32_t ul_channel)
{
	p_pwm->PWM_ENA = (1 << ul_channel);
  4012d2:	2301      	movs	r3, #1
  4012d4:	fa03 f101 	lsl.w	r1, r3, r1
  4012d8:	6041      	str	r1, [r0, #4]
  4012da:	4770      	bx	lr

004012dc <pwm_channel_disable>:
 * \param p_pwm Pointer to a PWM instance.
 * \param ul_channel PWM channel number to disable.
 */
void pwm_channel_disable(Pwm *p_pwm, uint32_t ul_channel)
{
	p_pwm->PWM_DIS = (1 << ul_channel);
  4012dc:	2301      	movs	r3, #1
  4012de:	fa03 f101 	lsl.w	r1, r3, r1
  4012e2:	6081      	str	r1, [r0, #8]
  4012e4:	4770      	bx	lr

004012e6 <pwm_channel_disable_interrupt>:
#if (SAM3N || SAM4N || SAM4C || SAM4CP || SAM4CM)
	p_pwm->PWM_IDR = (1 << ul_event);
	/* avoid Cppcheck Warning */
	UNUSED(ul_fault);
#else
	p_pwm->PWM_IDR1 = (1 << ul_event) | (1 << (ul_fault + 16));
  4012e6:	3210      	adds	r2, #16
  4012e8:	2301      	movs	r3, #1
  4012ea:	fa03 f202 	lsl.w	r2, r3, r2
  4012ee:	fa03 f101 	lsl.w	r1, r3, r1
  4012f2:	430a      	orrs	r2, r1
  4012f4:	6142      	str	r2, [r0, #20]
  4012f6:	4770      	bx	lr

004012f8 <SysTick_Handler>:
 * Process System Tick Event
 * Increments the g_ms_ticks counter.
 */
void SysTick_Handler(void)
{
	g_ms_ticks++;
  4012f8:	4a02      	ldr	r2, [pc, #8]	; (401304 <SysTick_Handler+0xc>)
  4012fa:	6813      	ldr	r3, [r2, #0]
  4012fc:	3301      	adds	r3, #1
  4012fe:	6013      	str	r3, [r2, #0]
  401300:	4770      	bx	lr
  401302:	bf00      	nop
  401304:	20400498 	.word	0x20400498

00401308 <time_tick_init>:
}

void time_tick_init(void)
{
	g_ms_ticks = 0;
  401308:	2200      	movs	r2, #0
  40130a:	4b06      	ldr	r3, [pc, #24]	; (401324 <time_tick_init+0x1c>)
  40130c:	601a      	str	r2, [r3, #0]
 */
__STATIC_INLINE uint32_t SysTick_Config(uint32_t ticks)
{
  if ((ticks - 1) > SysTick_LOAD_RELOAD_Msk)  return (1);      /* Reload value impossible */

  SysTick->LOAD  = ticks - 1;                                  /* set reload register */
  40130e:	4b06      	ldr	r3, [pc, #24]	; (401328 <time_tick_init+0x20>)
  401310:	4906      	ldr	r1, [pc, #24]	; (40132c <time_tick_init+0x24>)
  401312:	6059      	str	r1, [r3, #4]
    SCB->SHPR[((uint32_t)(IRQn) & 0xF)-4] = ((priority << (8 - __NVIC_PRIO_BITS)) & 0xff); } /* set Priority for Cortex-M  System Interrupts */
  401314:	20e0      	movs	r0, #224	; 0xe0
  401316:	4906      	ldr	r1, [pc, #24]	; (401330 <time_tick_init+0x28>)
  401318:	f881 0023 	strb.w	r0, [r1, #35]	; 0x23
  NVIC_SetPriority (SysTick_IRQn, (1<<__NVIC_PRIO_BITS) - 1);  /* set Priority for Systick Interrupt */
  SysTick->VAL   = 0;                                          /* Load the SysTick Counter Value */
  40131c:	609a      	str	r2, [r3, #8]
  SysTick->CTRL  = SysTick_CTRL_CLKSOURCE_Msk |
  40131e:	2207      	movs	r2, #7
  401320:	601a      	str	r2, [r3, #0]
  401322:	4770      	bx	lr
  401324:	20400498 	.word	0x20400498
  401328:	e000e010 	.word	0xe000e010
  40132c:	0002327f 	.word	0x0002327f
  401330:	e000ed00 	.word	0xe000ed00

00401334 <time_tick_get>:
	}
}

uint32_t time_tick_get(void)
{
	return g_ms_ticks;
  401334:	4b01      	ldr	r3, [pc, #4]	; (40133c <time_tick_get+0x8>)
  401336:	6818      	ldr	r0, [r3, #0]
}
  401338:	4770      	bx	lr
  40133a:	bf00      	nop
  40133c:	20400498 	.word	0x20400498

00401340 <time_tick_calc_delay>:

uint32_t time_tick_calc_delay(uint32_t tick_start, uint32_t tick_end)
{
	if (tick_end >= tick_start) {
  401340:	4281      	cmp	r1, r0
  401342:	d202      	bcs.n	40134a <time_tick_calc_delay+0xa>
		return (tick_end - tick_start) * (1000 / TICK_US);
	} else {
		/* In the case of 32-bit couter number overflow */
		return (tick_end + (0xFFFFFFFF - tick_start)) * (1000 / TICK_US);
  401344:	1a09      	subs	r1, r1, r0
  401346:	1e48      	subs	r0, r1, #1
	}
}
  401348:	4770      	bx	lr
		return (tick_end - tick_start) * (1000 / TICK_US);
  40134a:	1a08      	subs	r0, r1, r0
  40134c:	4770      	bx	lr
	...

00401350 <sysclk_init>:
	pmc_disable_udpck();
}
#endif // CONFIG_USBCLK_SOURCE

void sysclk_init(void)
{
  401350:	b510      	push	{r4, lr}
	struct pll_config pllcfg;

	/* Set flash wait state to max in case the below clock switching. */
	system_init_flash(CHIP_FREQ_CPU_MAX);
  401352:	4810      	ldr	r0, [pc, #64]	; (401394 <sysclk_init+0x44>)
  401354:	4b10      	ldr	r3, [pc, #64]	; (401398 <sysclk_init+0x48>)
  401356:	4798      	blx	r3
		pmc_switch_mainck_to_fastrc(CKGR_MOR_MOSCRCF_12_MHz);
		break;


	case OSC_MAINCK_XTAL:
		pmc_switch_mainck_to_xtal(PMC_OSC_XTAL,
  401358:	213e      	movs	r1, #62	; 0x3e
  40135a:	2000      	movs	r0, #0
  40135c:	4b0f      	ldr	r3, [pc, #60]	; (40139c <sysclk_init+0x4c>)
  40135e:	4798      	blx	r3
	case OSC_MAINCK_4M_RC:
	case OSC_MAINCK_8M_RC:
	case OSC_MAINCK_12M_RC:
	case OSC_MAINCK_XTAL:
	case OSC_MAINCK_BYPASS:
		return pmc_osc_is_ready_mainck();
  401360:	4c0f      	ldr	r4, [pc, #60]	; (4013a0 <sysclk_init+0x50>)
  401362:	47a0      	blx	r4
 *
 * \param id A number identifying the oscillator to wait for.
 */
static inline void osc_wait_ready(uint8_t id)
{
	while (!osc_is_ready(id)) {
  401364:	2800      	cmp	r0, #0
  401366:	d0fc      	beq.n	401362 <sysclk_init+0x12>
static inline void pll_enable(const struct pll_config *p_cfg, uint32_t ul_pll_id)
{
	Assert(ul_pll_id < NR_PLLS);

	if (ul_pll_id == PLLA_ID) {
		pmc_disable_pllack(); // Always stop PLL first!
  401368:	4b0e      	ldr	r3, [pc, #56]	; (4013a4 <sysclk_init+0x54>)
  40136a:	4798      	blx	r3
		PMC->CKGR_PLLAR = CKGR_PLLAR_ONE | p_cfg->ctrl;
  40136c:	4a0e      	ldr	r2, [pc, #56]	; (4013a8 <sysclk_init+0x58>)
  40136e:	4b0f      	ldr	r3, [pc, #60]	; (4013ac <sysclk_init+0x5c>)
  401370:	629a      	str	r2, [r3, #40]	; 0x28
static inline uint32_t pll_is_locked(uint32_t ul_pll_id)
{
	Assert(ul_pll_id < NR_PLLS);

	if (ul_pll_id == PLLA_ID) {
	return pmc_is_locked_pllack();
  401372:	4c0f      	ldr	r4, [pc, #60]	; (4013b0 <sysclk_init+0x60>)
  401374:	47a0      	blx	r4
 */
static inline int pll_wait_for_lock(unsigned int pll_id)
{
	Assert(pll_id < NR_PLLS);

	while (!pll_is_locked(pll_id)) {
  401376:	2800      	cmp	r0, #0
  401378:	d0fc      	beq.n	401374 <sysclk_init+0x24>
	else if (CONFIG_SYSCLK_SOURCE == SYSCLK_SRC_PLLACK) {
		pll_enable_source(CONFIG_PLL0_SOURCE);
		pll_config_defaults(&pllcfg, 0);
		pll_enable(&pllcfg, 0);
		pll_wait_for_lock(0);
		pmc_mck_set_division(CONFIG_SYSCLK_DIV);
  40137a:	2002      	movs	r0, #2
  40137c:	4b0d      	ldr	r3, [pc, #52]	; (4013b4 <sysclk_init+0x64>)
  40137e:	4798      	blx	r3
		pmc_switch_mck_to_pllack(CONFIG_SYSCLK_PRES);
  401380:	2000      	movs	r0, #0
  401382:	4b0d      	ldr	r3, [pc, #52]	; (4013b8 <sysclk_init+0x68>)
  401384:	4798      	blx	r3
		pll_wait_for_lock(1);
		pmc_mck_set_division(CONFIG_SYSCLK_DIV);
		pmc_switch_mck_to_upllck(CONFIG_SYSCLK_PRES);
	}
	/* Update the SystemFrequency variable */
	SystemCoreClockUpdate();
  401386:	4b0d      	ldr	r3, [pc, #52]	; (4013bc <sysclk_init+0x6c>)
  401388:	4798      	blx	r3

	/* Set a flash wait state depending on the new cpu frequency */
	system_init_flash(sysclk_get_cpu_hz());
  40138a:	480d      	ldr	r0, [pc, #52]	; (4013c0 <sysclk_init+0x70>)
  40138c:	4b02      	ldr	r3, [pc, #8]	; (401398 <sysclk_init+0x48>)
  40138e:	4798      	blx	r3
  401390:	bd10      	pop	{r4, pc}
  401392:	bf00      	nop
  401394:	11e1a300 	.word	0x11e1a300
  401398:	00401815 	.word	0x00401815
  40139c:	00401461 	.word	0x00401461
  4013a0:	004014b5 	.word	0x004014b5
  4013a4:	004014c5 	.word	0x004014c5
  4013a8:	200b3f01 	.word	0x200b3f01
  4013ac:	400e0600 	.word	0x400e0600
  4013b0:	004014d5 	.word	0x004014d5
  4013b4:	004013c5 	.word	0x004013c5
  4013b8:	004013fd 	.word	0x004013fd
  4013bc:	00401709 	.word	0x00401709
  4013c0:	08954400 	.word	0x08954400

004013c4 <pmc_mck_set_division>:
 *
 * \param ul_div Division value.
 */
void pmc_mck_set_division(uint32_t ul_div)
{
	switch (ul_div) {
  4013c4:	2803      	cmp	r0, #3
  4013c6:	d011      	beq.n	4013ec <pmc_mck_set_division+0x28>
  4013c8:	2804      	cmp	r0, #4
  4013ca:	d012      	beq.n	4013f2 <pmc_mck_set_division+0x2e>
		case 1:
			ul_div = PMC_MCKR_MDIV_EQ_PCK;
  4013cc:	2802      	cmp	r0, #2
  4013ce:	bf0c      	ite	eq
  4013d0:	f44f 7180 	moveq.w	r1, #256	; 0x100
  4013d4:	2100      	movne	r1, #0
		default:
			ul_div = PMC_MCKR_MDIV_EQ_PCK;
			break;
	}
	PMC->PMC_MCKR =
			(PMC->PMC_MCKR & (~PMC_MCKR_MDIV_Msk)) | ul_div;
  4013d6:	4a08      	ldr	r2, [pc, #32]	; (4013f8 <pmc_mck_set_division+0x34>)
  4013d8:	6b13      	ldr	r3, [r2, #48]	; 0x30
  4013da:	f423 7340 	bic.w	r3, r3, #768	; 0x300
  4013de:	430b      	orrs	r3, r1
	PMC->PMC_MCKR =
  4013e0:	6313      	str	r3, [r2, #48]	; 0x30
	while (!(PMC->PMC_SR & PMC_SR_MCKRDY));
  4013e2:	6e93      	ldr	r3, [r2, #104]	; 0x68
  4013e4:	f013 0f08 	tst.w	r3, #8
  4013e8:	d0fb      	beq.n	4013e2 <pmc_mck_set_division+0x1e>
}
  4013ea:	4770      	bx	lr
			ul_div = PMC_MCKR_MDIV_PCK_DIV3;
  4013ec:	f44f 7140 	mov.w	r1, #768	; 0x300
			break;
  4013f0:	e7f1      	b.n	4013d6 <pmc_mck_set_division+0x12>
			ul_div = PMC_MCKR_MDIV_PCK_DIV4;
  4013f2:	f44f 7100 	mov.w	r1, #512	; 0x200
			break;
  4013f6:	e7ee      	b.n	4013d6 <pmc_mck_set_division+0x12>
  4013f8:	400e0600 	.word	0x400e0600

004013fc <pmc_switch_mck_to_pllack>:
 */
uint32_t pmc_switch_mck_to_pllack(uint32_t ul_pres)
{
	uint32_t ul_timeout;

	PMC->PMC_MCKR = (PMC->PMC_MCKR & (~PMC_MCKR_PRES_Msk)) | ul_pres;
  4013fc:	4a17      	ldr	r2, [pc, #92]	; (40145c <pmc_switch_mck_to_pllack+0x60>)
  4013fe:	6b13      	ldr	r3, [r2, #48]	; 0x30
  401400:	f023 0370 	bic.w	r3, r3, #112	; 0x70
  401404:	4318      	orrs	r0, r3
  401406:	6310      	str	r0, [r2, #48]	; 0x30
	for (ul_timeout = PMC_TIMEOUT; !(PMC->PMC_SR & PMC_SR_MCKRDY);
  401408:	6e93      	ldr	r3, [r2, #104]	; 0x68
  40140a:	f013 0f08 	tst.w	r3, #8
  40140e:	d10a      	bne.n	401426 <pmc_switch_mck_to_pllack+0x2a>
  401410:	f44f 5380 	mov.w	r3, #4096	; 0x1000
  401414:	4911      	ldr	r1, [pc, #68]	; (40145c <pmc_switch_mck_to_pllack+0x60>)
  401416:	6e8a      	ldr	r2, [r1, #104]	; 0x68
  401418:	f012 0f08 	tst.w	r2, #8
  40141c:	d103      	bne.n	401426 <pmc_switch_mck_to_pllack+0x2a>
			--ul_timeout) {
		if (ul_timeout == 0) {
  40141e:	3b01      	subs	r3, #1
  401420:	d1f9      	bne.n	401416 <pmc_switch_mck_to_pllack+0x1a>
			return 1;
  401422:	2001      	movs	r0, #1
  401424:	4770      	bx	lr
		}
	}

	PMC->PMC_MCKR = (PMC->PMC_MCKR & (~PMC_MCKR_CSS_Msk)) |
  401426:	4a0d      	ldr	r2, [pc, #52]	; (40145c <pmc_switch_mck_to_pllack+0x60>)
  401428:	6b13      	ldr	r3, [r2, #48]	; 0x30
  40142a:	f023 0303 	bic.w	r3, r3, #3
  40142e:	f043 0302 	orr.w	r3, r3, #2
  401432:	6313      	str	r3, [r2, #48]	; 0x30
			PMC_MCKR_CSS_PLLA_CLK;

	for (ul_timeout = PMC_TIMEOUT; !(PMC->PMC_SR & PMC_SR_MCKRDY);
  401434:	6e93      	ldr	r3, [r2, #104]	; 0x68
  401436:	f013 0f08 	tst.w	r3, #8
  40143a:	d10a      	bne.n	401452 <pmc_switch_mck_to_pllack+0x56>
  40143c:	f44f 5380 	mov.w	r3, #4096	; 0x1000
  401440:	4906      	ldr	r1, [pc, #24]	; (40145c <pmc_switch_mck_to_pllack+0x60>)
  401442:	6e8a      	ldr	r2, [r1, #104]	; 0x68
  401444:	f012 0f08 	tst.w	r2, #8
  401448:	d105      	bne.n	401456 <pmc_switch_mck_to_pllack+0x5a>
			--ul_timeout) {
		if (ul_timeout == 0) {
  40144a:	3b01      	subs	r3, #1
  40144c:	d1f9      	bne.n	401442 <pmc_switch_mck_to_pllack+0x46>
			return 1;
  40144e:	2001      	movs	r0, #1
		}
	}

	return 0;
}
  401450:	4770      	bx	lr
	return 0;
  401452:	2000      	movs	r0, #0
  401454:	4770      	bx	lr
  401456:	2000      	movs	r0, #0
  401458:	4770      	bx	lr
  40145a:	bf00      	nop
  40145c:	400e0600 	.word	0x400e0600

00401460 <pmc_switch_mainck_to_xtal>:
 */
void pmc_switch_mainck_to_xtal(uint32_t ul_bypass,
		uint32_t ul_xtal_startup_time)
{
	/* Enable Main Xtal oscillator */
	if (ul_bypass) {
  401460:	b9a0      	cbnz	r0, 40148c <pmc_switch_mainck_to_xtal+0x2c>
		PMC->CKGR_MOR = (PMC->CKGR_MOR & ~CKGR_MOR_MOSCXTEN) |
				CKGR_MOR_KEY_PASSWD | CKGR_MOR_MOSCXTBY |
				CKGR_MOR_MOSCSEL;
	} else {
		PMC->CKGR_MOR = (PMC->CKGR_MOR & ~CKGR_MOR_MOSCXTBY) |
  401462:	480e      	ldr	r0, [pc, #56]	; (40149c <pmc_switch_mainck_to_xtal+0x3c>)
  401464:	6a03      	ldr	r3, [r0, #32]
				CKGR_MOR_KEY_PASSWD | CKGR_MOR_MOSCXTEN |
				CKGR_MOR_MOSCXTST(ul_xtal_startup_time);
  401466:	0209      	lsls	r1, r1, #8
  401468:	b289      	uxth	r1, r1
				CKGR_MOR_KEY_PASSWD | CKGR_MOR_MOSCXTEN |
  40146a:	4a0d      	ldr	r2, [pc, #52]	; (4014a0 <pmc_switch_mainck_to_xtal+0x40>)
  40146c:	401a      	ands	r2, r3
  40146e:	4b0d      	ldr	r3, [pc, #52]	; (4014a4 <pmc_switch_mainck_to_xtal+0x44>)
  401470:	4313      	orrs	r3, r2
  401472:	4319      	orrs	r1, r3
		PMC->CKGR_MOR = (PMC->CKGR_MOR & ~CKGR_MOR_MOSCXTBY) |
  401474:	6201      	str	r1, [r0, #32]
		/* Wait the Xtal to stabilize */
		while (!(PMC->PMC_SR & PMC_SR_MOSCXTS));
  401476:	4602      	mov	r2, r0
  401478:	6e93      	ldr	r3, [r2, #104]	; 0x68
  40147a:	f013 0f01 	tst.w	r3, #1
  40147e:	d0fb      	beq.n	401478 <pmc_switch_mainck_to_xtal+0x18>

		PMC->CKGR_MOR |= CKGR_MOR_KEY_PASSWD | CKGR_MOR_MOSCSEL;
  401480:	4a06      	ldr	r2, [pc, #24]	; (40149c <pmc_switch_mainck_to_xtal+0x3c>)
  401482:	6a11      	ldr	r1, [r2, #32]
  401484:	4b08      	ldr	r3, [pc, #32]	; (4014a8 <pmc_switch_mainck_to_xtal+0x48>)
  401486:	430b      	orrs	r3, r1
  401488:	6213      	str	r3, [r2, #32]
  40148a:	4770      	bx	lr
		PMC->CKGR_MOR = (PMC->CKGR_MOR & ~CKGR_MOR_MOSCXTEN) |
  40148c:	4903      	ldr	r1, [pc, #12]	; (40149c <pmc_switch_mainck_to_xtal+0x3c>)
  40148e:	6a0b      	ldr	r3, [r1, #32]
				CKGR_MOR_KEY_PASSWD | CKGR_MOR_MOSCXTBY |
  401490:	4a06      	ldr	r2, [pc, #24]	; (4014ac <pmc_switch_mainck_to_xtal+0x4c>)
  401492:	401a      	ands	r2, r3
  401494:	4b06      	ldr	r3, [pc, #24]	; (4014b0 <pmc_switch_mainck_to_xtal+0x50>)
  401496:	4313      	orrs	r3, r2
		PMC->CKGR_MOR = (PMC->CKGR_MOR & ~CKGR_MOR_MOSCXTEN) |
  401498:	620b      	str	r3, [r1, #32]
  40149a:	4770      	bx	lr
  40149c:	400e0600 	.word	0x400e0600
  4014a0:	ffc8fffc 	.word	0xffc8fffc
  4014a4:	00370001 	.word	0x00370001
  4014a8:	01370000 	.word	0x01370000
  4014ac:	fec8fffc 	.word	0xfec8fffc
  4014b0:	01370002 	.word	0x01370002

004014b4 <pmc_osc_is_ready_mainck>:
 * \retval 1 Xtal is ready.
 * \retval 0 Xtal is not ready.
 */
uint32_t pmc_osc_is_ready_mainck(void)
{
	return PMC->PMC_SR & PMC_SR_MOSCSELS;
  4014b4:	4b02      	ldr	r3, [pc, #8]	; (4014c0 <pmc_osc_is_ready_mainck+0xc>)
  4014b6:	6e98      	ldr	r0, [r3, #104]	; 0x68
}
  4014b8:	f400 3080 	and.w	r0, r0, #65536	; 0x10000
  4014bc:	4770      	bx	lr
  4014be:	bf00      	nop
  4014c0:	400e0600 	.word	0x400e0600

004014c4 <pmc_disable_pllack>:
void pmc_disable_pllack(void)
{
#if (SAM4C || SAM4CM || SAM4CP || SAMG)
	PMC->CKGR_PLLAR = CKGR_PLLAR_MULA(0);
#else
	PMC->CKGR_PLLAR = CKGR_PLLAR_ONE | CKGR_PLLAR_MULA(0);
  4014c4:	f04f 5200 	mov.w	r2, #536870912	; 0x20000000
  4014c8:	4b01      	ldr	r3, [pc, #4]	; (4014d0 <pmc_disable_pllack+0xc>)
  4014ca:	629a      	str	r2, [r3, #40]	; 0x28
  4014cc:	4770      	bx	lr
  4014ce:	bf00      	nop
  4014d0:	400e0600 	.word	0x400e0600

004014d4 <pmc_is_locked_pllack>:
 * \retval 0 Not locked.
 * \retval 1 Locked.
 */
uint32_t pmc_is_locked_pllack(void)
{
	return (PMC->PMC_SR & PMC_SR_LOCKA);
  4014d4:	4b02      	ldr	r3, [pc, #8]	; (4014e0 <pmc_is_locked_pllack+0xc>)
  4014d6:	6e98      	ldr	r0, [r3, #104]	; 0x68
}
  4014d8:	f000 0002 	and.w	r0, r0, #2
  4014dc:	4770      	bx	lr
  4014de:	bf00      	nop
  4014e0:	400e0600 	.word	0x400e0600

004014e4 <pmc_enable_periph_clk>:
 * \retval 0 Success.
 * \retval 1 Invalid parameter.
 */
uint32_t pmc_enable_periph_clk(uint32_t ul_id)
{
	if (ul_id > MAX_PERIPH_ID) {
  4014e4:	283f      	cmp	r0, #63	; 0x3f
  4014e6:	d81e      	bhi.n	401526 <pmc_enable_periph_clk+0x42>
		return 1;
	}

	if (ul_id < 32) {
  4014e8:	281f      	cmp	r0, #31
  4014ea:	d80c      	bhi.n	401506 <pmc_enable_periph_clk+0x22>
		if ((PMC->PMC_PCSR0 & (1u << ul_id)) != (1u << ul_id)) {
  4014ec:	4b11      	ldr	r3, [pc, #68]	; (401534 <pmc_enable_periph_clk+0x50>)
  4014ee:	699a      	ldr	r2, [r3, #24]
  4014f0:	2301      	movs	r3, #1
  4014f2:	4083      	lsls	r3, r0
  4014f4:	4393      	bics	r3, r2
  4014f6:	d018      	beq.n	40152a <pmc_enable_periph_clk+0x46>
			PMC->PMC_PCER0 = 1 << ul_id;
  4014f8:	2301      	movs	r3, #1
  4014fa:	fa03 f000 	lsl.w	r0, r3, r0
  4014fe:	4b0d      	ldr	r3, [pc, #52]	; (401534 <pmc_enable_periph_clk+0x50>)
  401500:	6118      	str	r0, [r3, #16]
			PMC->PMC_PCER1 = 1 << ul_id;
		}
#endif
	}

	return 0;
  401502:	2000      	movs	r0, #0
  401504:	4770      	bx	lr
		ul_id -= 32;
  401506:	3820      	subs	r0, #32
		if ((PMC->PMC_PCSR1 & (1u << ul_id)) != (1u << ul_id)) {
  401508:	4b0a      	ldr	r3, [pc, #40]	; (401534 <pmc_enable_periph_clk+0x50>)
  40150a:	f8d3 2108 	ldr.w	r2, [r3, #264]	; 0x108
  40150e:	2301      	movs	r3, #1
  401510:	4083      	lsls	r3, r0
  401512:	4393      	bics	r3, r2
  401514:	d00b      	beq.n	40152e <pmc_enable_periph_clk+0x4a>
			PMC->PMC_PCER1 = 1 << ul_id;
  401516:	2301      	movs	r3, #1
  401518:	fa03 f000 	lsl.w	r0, r3, r0
  40151c:	4b05      	ldr	r3, [pc, #20]	; (401534 <pmc_enable_periph_clk+0x50>)
  40151e:	f8c3 0100 	str.w	r0, [r3, #256]	; 0x100
	return 0;
  401522:	2000      	movs	r0, #0
  401524:	4770      	bx	lr
		return 1;
  401526:	2001      	movs	r0, #1
  401528:	4770      	bx	lr
	return 0;
  40152a:	2000      	movs	r0, #0
  40152c:	4770      	bx	lr
  40152e:	2000      	movs	r0, #0
}
  401530:	4770      	bx	lr
  401532:	bf00      	nop
  401534:	400e0600 	.word	0x400e0600

00401538 <xdmac_configure_transfer>:
  401538:	eb00 1181 	add.w	r1, r0, r1, lsl #6
  40153c:	6dcb      	ldr	r3, [r1, #92]	; 0x5c
	Assert(xdmac);
	Assert(channel_num < XDMACCHID_NUMBER);
	Assert(cfg);
	
	xdmac_channel_get_interrupt_status( xdmac, channel_num);
	xdmac_channel_set_source_addr(xdmac, channel_num, cfg->mbr_sa);
  40153e:	6853      	ldr	r3, [r2, #4]
 */
static inline void xdmac_channel_set_source_addr(Xdmac *xdmac, uint32_t channel_num, uint32_t src_addr)
{
	Assert(xdmac);
	Assert(channel_num < XDMACCHID_NUMBER);
	xdmac->XDMAC_CHID[channel_num].XDMAC_CSA = src_addr;
  401540:	660b      	str	r3, [r1, #96]	; 0x60
	xdmac_channel_set_destination_addr(xdmac, channel_num, cfg->mbr_da);
  401542:	6893      	ldr	r3, [r2, #8]
 */
static inline void xdmac_channel_set_destination_addr(Xdmac *xdmac, uint32_t channel_num, uint32_t dst_addr)
{
	Assert(xdmac);
	Assert(channel_num < XDMACCHID_NUMBER);
	xdmac->XDMAC_CHID[channel_num].XDMAC_CDA = dst_addr;
  401544:	664b      	str	r3, [r1, #100]	; 0x64
 */
static inline void xdmac_channel_set_microblock_control(Xdmac *xdmac, uint32_t channel_num, uint32_t ublen)
{
	Assert(xdmac);
	Assert(channel_num < XDMACCHID_NUMBER);
	xdmac->XDMAC_CHID[channel_num].XDMAC_CUBC = XDMAC_CUBC_UBLEN(ublen);
  401546:	6813      	ldr	r3, [r2, #0]
  401548:	f023 437f 	bic.w	r3, r3, #4278190080	; 0xff000000
  40154c:	670b      	str	r3, [r1, #112]	; 0x70
 */
static inline void xdmac_channel_set_block_control(Xdmac *xdmac, uint32_t channel_num, uint32_t blen)
{
	Assert(xdmac);
	Assert(channel_num < XDMACCHID_NUMBER);
	xdmac->XDMAC_CHID[channel_num].XDMAC_CBC = XDMAC_CBC_BLEN(blen);
  40154e:	6913      	ldr	r3, [r2, #16]
  401550:	f3c3 030b 	ubfx	r3, r3, #0, #12
  401554:	674b      	str	r3, [r1, #116]	; 0x74
	xdmac_channel_set_microblock_control(xdmac, channel_num, cfg->mbr_ubc);
	xdmac_channel_set_block_control(xdmac, channel_num, cfg->mbr_bc);
	xdmac_channel_set_datastride_mempattern(xdmac, channel_num, cfg->mbr_ds);
  401556:	6953      	ldr	r3, [r2, #20]
 */
static inline void xdmac_channel_set_datastride_mempattern(Xdmac *xdmac, uint32_t channel_num, uint32_t dds_msp)
{
	Assert(xdmac);
	Assert(channel_num < XDMACCHID_NUMBER);
	xdmac->XDMAC_CHID[channel_num].XDMAC_CDS_MSP = dds_msp;
  401558:	67cb      	str	r3, [r1, #124]	; 0x7c
static inline void xdmac_channel_set_source_microblock_stride(Xdmac *xdmac,
		uint32_t channel_num, uint32_t subs)
{
	Assert(xdmac);
	Assert(channel_num < XDMACCHID_NUMBER);
	xdmac->XDMAC_CHID[channel_num].XDMAC_CSUS = XDMAC_CSUS_SUBS(subs);
  40155a:	6993      	ldr	r3, [r2, #24]
  40155c:	f023 437f 	bic.w	r3, r3, #4278190080	; 0xff000000
  401560:	f8c1 3080 	str.w	r3, [r1, #128]	; 0x80
static inline void xdmac_channel_set_destination_microblock_stride(Xdmac *xdmac,
		uint32_t channel_num, uint32_t dubs)
{
	Assert(xdmac);
	Assert(channel_num < XDMACCHID_NUMBER);
	xdmac->XDMAC_CHID[channel_num].XDMAC_CDUS = XDMAC_CDUS_DUBS(dubs);
  401564:	69d3      	ldr	r3, [r2, #28]
  401566:	f023 437f 	bic.w	r3, r3, #4278190080	; 0xff000000
  40156a:	f8c1 3084 	str.w	r3, [r1, #132]	; 0x84
	xdmac_channel_set_source_microblock_stride(xdmac, channel_num, cfg->mbr_sus);
	xdmac_channel_set_destination_microblock_stride(xdmac, channel_num, cfg->mbr_dus);
	xdmac_channel_set_config(xdmac, channel_num, cfg->mbr_cfg );
  40156e:	68d3      	ldr	r3, [r2, #12]
	xdmac->XDMAC_CHID[channel_num].XDMAC_CC = config;
  401570:	678b      	str	r3, [r1, #120]	; 0x78
  401572:	4770      	bx	lr

00401574 <board_init>:
	Pio *base = arch_ioport_port_to_base(port);

	if (mode & IOPORT_MODE_PULLUP) {
		base->PIO_PUER = mask;
	} else {
		base->PIO_PUDR = mask;
  401574:	4b33      	ldr	r3, [pc, #204]	; (401644 <board_init+0xd0>)
  401576:	f04f 5280 	mov.w	r2, #268435456	; 0x10000000
  40157a:	661a      	str	r2, [r3, #96]	; 0x60

#if defined(IOPORT_MODE_PULLDOWN)
	if (mode & IOPORT_MODE_PULLDOWN) {
		base->PIO_PPDER = mask;
	} else {
		base->PIO_PPDDR = mask;
  40157c:	f8c3 2090 	str.w	r2, [r3, #144]	; 0x90
#endif

	if (mode & IOPORT_MODE_OPEN_DRAIN) {
		base->PIO_MDER = mask;
	} else {
		base->PIO_MDDR = mask;
  401580:	655a      	str	r2, [r3, #84]	; 0x54
	}

	if (mode & (IOPORT_MODE_GLITCH_FILTER | IOPORT_MODE_DEBOUNCE)) {
		base->PIO_IFER = mask;
	} else {
		base->PIO_IFDR = mask;
  401582:	625a      	str	r2, [r3, #36]	; 0x24
#endif
	} else {
#if SAM3U || SAM3XA
		base->PIO_SCIFSR = mask;
#else
		base->PIO_IFSCDR = mask;
  401584:	f8c3 2080 	str.w	r2, [r3, #128]	; 0x80
	}
#else
	if (mode & IOPORT_MODE_MUX_BIT0) {
		base->PIO_ABCDSR[0] |= mask;
	} else {
		base->PIO_ABCDSR[0] &= ~mask;
  401588:	6f19      	ldr	r1, [r3, #112]	; 0x70
  40158a:	f021 5180 	bic.w	r1, r1, #268435456	; 0x10000000
  40158e:	6719      	str	r1, [r3, #112]	; 0x70
	}

	if (mode & IOPORT_MODE_MUX_BIT1) {
		base->PIO_ABCDSR[1] |= mask;
  401590:	6f59      	ldr	r1, [r3, #116]	; 0x74
  401592:	4311      	orrs	r1, r2
  401594:	6759      	str	r1, [r3, #116]	; 0x74
	arch_ioport_port_to_base(port)->PIO_PDR = mask;
  401596:	605a      	str	r2, [r3, #4]
		base->PIO_PUDR = mask;
  401598:	f04f 7200 	mov.w	r2, #33554432	; 0x2000000
  40159c:	661a      	str	r2, [r3, #96]	; 0x60
		base->PIO_PPDDR = mask;
  40159e:	f8c3 2090 	str.w	r2, [r3, #144]	; 0x90
		base->PIO_MDDR = mask;
  4015a2:	655a      	str	r2, [r3, #84]	; 0x54
		base->PIO_IFDR = mask;
  4015a4:	625a      	str	r2, [r3, #36]	; 0x24
		base->PIO_IFSCDR = mask;
  4015a6:	f8c3 2080 	str.w	r2, [r3, #128]	; 0x80
		base->PIO_ABCDSR[0] |= mask;
  4015aa:	6f19      	ldr	r1, [r3, #112]	; 0x70
  4015ac:	4311      	orrs	r1, r2
  4015ae:	6719      	str	r1, [r3, #112]	; 0x70
		base->PIO_ABCDSR[1] |= mask;
  4015b0:	6f59      	ldr	r1, [r3, #116]	; 0x74
  4015b2:	4311      	orrs	r1, r2
  4015b4:	6759      	str	r1, [r3, #116]	; 0x74
	arch_ioport_port_to_base(port)->PIO_PDR = mask;
  4015b6:	605a      	str	r2, [r3, #4]
		base->PIO_PUDR = mask;
  4015b8:	f04f 4280 	mov.w	r2, #1073741824	; 0x40000000
  4015bc:	661a      	str	r2, [r3, #96]	; 0x60
		base->PIO_PPDDR = mask;
  4015be:	f8c3 2090 	str.w	r2, [r3, #144]	; 0x90
		base->PIO_MDDR = mask;
  4015c2:	655a      	str	r2, [r3, #84]	; 0x54
		base->PIO_IFDR = mask;
  4015c4:	625a      	str	r2, [r3, #36]	; 0x24
		base->PIO_IFSCDR = mask;
  4015c6:	f8c3 2080 	str.w	r2, [r3, #128]	; 0x80
		base->PIO_ABCDSR[0] &= ~mask;
  4015ca:	6f19      	ldr	r1, [r3, #112]	; 0x70
  4015cc:	f021 4180 	bic.w	r1, r1, #1073741824	; 0x40000000
  4015d0:	6719      	str	r1, [r3, #112]	; 0x70
		base->PIO_ABCDSR[1] |= mask;
  4015d2:	6f59      	ldr	r1, [r3, #116]	; 0x74
  4015d4:	4311      	orrs	r1, r2
  4015d6:	6759      	str	r1, [r3, #116]	; 0x74
	arch_ioport_port_to_base(port)->PIO_PDR = mask;
  4015d8:	605a      	str	r2, [r3, #4]
		base->PIO_PUDR = mask;
  4015da:	f04f 4200 	mov.w	r2, #2147483648	; 0x80000000
  4015de:	661a      	str	r2, [r3, #96]	; 0x60
		base->PIO_PPDDR = mask;
  4015e0:	f8c3 2090 	str.w	r2, [r3, #144]	; 0x90
		base->PIO_MDDR = mask;
  4015e4:	655a      	str	r2, [r3, #84]	; 0x54
		base->PIO_IFDR = mask;
  4015e6:	625a      	str	r2, [r3, #36]	; 0x24
		base->PIO_IFSCDR = mask;
  4015e8:	f8c3 2080 	str.w	r2, [r3, #128]	; 0x80
		base->PIO_ABCDSR[0] &= ~mask;
  4015ec:	6f19      	ldr	r1, [r3, #112]	; 0x70
  4015ee:	f021 4100 	bic.w	r1, r1, #2147483648	; 0x80000000
  4015f2:	6719      	str	r1, [r3, #112]	; 0x70
		base->PIO_ABCDSR[1] |= mask;
  4015f4:	6f59      	ldr	r1, [r3, #116]	; 0x74
  4015f6:	4311      	orrs	r1, r2
  4015f8:	6759      	str	r1, [r3, #116]	; 0x74
	arch_ioport_port_to_base(port)->PIO_PDR = mask;
  4015fa:	605a      	str	r2, [r3, #4]
		base->PIO_PUDR = mask;
  4015fc:	f04f 6280 	mov.w	r2, #67108864	; 0x4000000
  401600:	661a      	str	r2, [r3, #96]	; 0x60
		base->PIO_PPDDR = mask;
  401602:	f8c3 2090 	str.w	r2, [r3, #144]	; 0x90
		base->PIO_MDDR = mask;
  401606:	655a      	str	r2, [r3, #84]	; 0x54
		base->PIO_IFDR = mask;
  401608:	625a      	str	r2, [r3, #36]	; 0x24
		base->PIO_IFSCDR = mask;
  40160a:	f8c3 2080 	str.w	r2, [r3, #128]	; 0x80
		base->PIO_ABCDSR[0] &= ~mask;
  40160e:	6f19      	ldr	r1, [r3, #112]	; 0x70
  401610:	f021 6180 	bic.w	r1, r1, #67108864	; 0x4000000
  401614:	6719      	str	r1, [r3, #112]	; 0x70
		base->PIO_ABCDSR[1] |= mask;
  401616:	6f59      	ldr	r1, [r3, #116]	; 0x74
  401618:	4311      	orrs	r1, r2
  40161a:	6759      	str	r1, [r3, #116]	; 0x74
	arch_ioport_port_to_base(port)->PIO_PDR = mask;
  40161c:	605a      	str	r2, [r3, #4]
		base->PIO_PUDR = mask;
  40161e:	f04f 6200 	mov.w	r2, #134217728	; 0x8000000
  401622:	661a      	str	r2, [r3, #96]	; 0x60
		base->PIO_PPDDR = mask;
  401624:	f8c3 2090 	str.w	r2, [r3, #144]	; 0x90
		base->PIO_MDDR = mask;
  401628:	655a      	str	r2, [r3, #84]	; 0x54
		base->PIO_IFDR = mask;
  40162a:	625a      	str	r2, [r3, #36]	; 0x24
		base->PIO_IFSCDR = mask;
  40162c:	f8c3 2080 	str.w	r2, [r3, #128]	; 0x80
		base->PIO_ABCDSR[0] &= ~mask;
  401630:	6f19      	ldr	r1, [r3, #112]	; 0x70
  401632:	f021 6100 	bic.w	r1, r1, #134217728	; 0x8000000
  401636:	6719      	str	r1, [r3, #112]	; 0x70
		base->PIO_ABCDSR[1] |= mask;
  401638:	6f59      	ldr	r1, [r3, #116]	; 0x74
  40163a:	4311      	orrs	r1, r2
  40163c:	6759      	str	r1, [r3, #116]	; 0x74
	arch_ioport_port_to_base(port)->PIO_PDR = mask;
  40163e:	605a      	str	r2, [r3, #4]
  401640:	4770      	bx	lr
  401642:	bf00      	nop
  401644:	400e0e00 	.word	0x400e0e00

00401648 <Dummy_Handler>:

/**
 * \brief Default interrupt handler for unused IRQs.
 */
void Dummy_Handler(void)
{
  401648:	e7fe      	b.n	401648 <Dummy_Handler>
	...

0040164c <Reset_Handler>:
{
  40164c:	b508      	push	{r3, lr}
        if (pSrc != pDest) {
  40164e:	4b23      	ldr	r3, [pc, #140]	; (4016dc <Reset_Handler+0x90>)
  401650:	4a23      	ldr	r2, [pc, #140]	; (4016e0 <Reset_Handler+0x94>)
  401652:	429a      	cmp	r2, r3
  401654:	d010      	beq.n	401678 <Reset_Handler+0x2c>
                for (; pDest < &_erelocate;) {
  401656:	4b23      	ldr	r3, [pc, #140]	; (4016e4 <Reset_Handler+0x98>)
  401658:	4a20      	ldr	r2, [pc, #128]	; (4016dc <Reset_Handler+0x90>)
  40165a:	429a      	cmp	r2, r3
  40165c:	d20c      	bcs.n	401678 <Reset_Handler+0x2c>
  40165e:	3b01      	subs	r3, #1
  401660:	1a9b      	subs	r3, r3, r2
  401662:	f023 0303 	bic.w	r3, r3, #3
  401666:	3304      	adds	r3, #4
  401668:	4413      	add	r3, r2
  40166a:	491d      	ldr	r1, [pc, #116]	; (4016e0 <Reset_Handler+0x94>)
                        *pDest++ = *pSrc++;
  40166c:	f851 0b04 	ldr.w	r0, [r1], #4
  401670:	f842 0b04 	str.w	r0, [r2], #4
                for (; pDest < &_erelocate;) {
  401674:	429a      	cmp	r2, r3
  401676:	d1f9      	bne.n	40166c <Reset_Handler+0x20>
        for (pDest = &_szero; pDest < &_ezero;) {
  401678:	4b1b      	ldr	r3, [pc, #108]	; (4016e8 <Reset_Handler+0x9c>)
  40167a:	4a1c      	ldr	r2, [pc, #112]	; (4016ec <Reset_Handler+0xa0>)
  40167c:	429a      	cmp	r2, r3
  40167e:	d20a      	bcs.n	401696 <Reset_Handler+0x4a>
  401680:	3b01      	subs	r3, #1
  401682:	1a9b      	subs	r3, r3, r2
  401684:	f023 0303 	bic.w	r3, r3, #3
  401688:	3304      	adds	r3, #4
  40168a:	4413      	add	r3, r2
                *pDest++ = 0;
  40168c:	2100      	movs	r1, #0
  40168e:	f842 1b04 	str.w	r1, [r2], #4
        for (pDest = &_szero; pDest < &_ezero;) {
  401692:	4293      	cmp	r3, r2
  401694:	d1fb      	bne.n	40168e <Reset_Handler+0x42>
        SCB->VTOR = ((uint32_t) pSrc & SCB_VTOR_TBLOFF_Msk);
  401696:	4a16      	ldr	r2, [pc, #88]	; (4016f0 <Reset_Handler+0xa4>)
  401698:	4b16      	ldr	r3, [pc, #88]	; (4016f4 <Reset_Handler+0xa8>)
  40169a:	f023 037f 	bic.w	r3, r3, #127	; 0x7f
  40169e:	6093      	str	r3, [r2, #8]
 */
__attribute__( ( always_inline ) ) __STATIC_INLINE uint32_t __get_PRIMASK(void)
{
  uint32_t result;

  __ASM volatile ("MRS %0, primask" : "=r" (result) );
  4016a0:	f3ef 8310 	mrs	r3, PRIMASK
  __ASM volatile ("cpsid i" : : : "memory");
  4016a4:	b672      	cpsid	i
    This function ensures the apparent order of the explicit memory operations before
    and after the instruction, without ensuring their completion.
 */
__attribute__( ( always_inline ) ) __STATIC_INLINE void __DMB(void)
{
  __ASM volatile ("dmb");
  4016a6:	f3bf 8f5f 	dmb	sy
static volatile bool     cpu_irq_prev_interrupt_state;

static inline irqflags_t cpu_irq_save(void)
{
	irqflags_t flags = cpu_irq_is_enabled();
	cpu_irq_disable();
  4016aa:	2100      	movs	r1, #0
  4016ac:	4a12      	ldr	r2, [pc, #72]	; (4016f8 <Reset_Handler+0xac>)
  4016ae:	7011      	strb	r1, [r2, #0]
 */
__always_inline static void fpu_enable(void)
{
	irqflags_t flags;
	flags = cpu_irq_save();
	REG_CPACR |=  (0xFu << 20);
  4016b0:	4912      	ldr	r1, [pc, #72]	; (4016fc <Reset_Handler+0xb0>)
  4016b2:	680a      	ldr	r2, [r1, #0]
  4016b4:	f442 0270 	orr.w	r2, r2, #15728640	; 0xf00000
  4016b8:	600a      	str	r2, [r1, #0]
  __ASM volatile ("dsb");
  4016ba:	f3bf 8f4f 	dsb	sy
  __ASM volatile ("isb");
  4016be:	f3bf 8f6f 	isb	sy
	return (flags);
}

static inline void cpu_irq_restore(irqflags_t flags)
{
	if (cpu_irq_is_enabled_flags(flags))
  4016c2:	b92b      	cbnz	r3, 4016d0 <Reset_Handler+0x84>
		cpu_irq_enable();
  4016c4:	2201      	movs	r2, #1
  4016c6:	4b0c      	ldr	r3, [pc, #48]	; (4016f8 <Reset_Handler+0xac>)
  4016c8:	701a      	strb	r2, [r3, #0]
  __ASM volatile ("dmb");
  4016ca:	f3bf 8f5f 	dmb	sy
  __ASM volatile ("cpsie i" : : : "memory");
  4016ce:	b662      	cpsie	i
        __libc_init_array();
  4016d0:	4b0b      	ldr	r3, [pc, #44]	; (401700 <Reset_Handler+0xb4>)
  4016d2:	4798      	blx	r3
        main();
  4016d4:	4b0b      	ldr	r3, [pc, #44]	; (401704 <Reset_Handler+0xb8>)
  4016d6:	4798      	blx	r3
  4016d8:	e7fe      	b.n	4016d8 <Reset_Handler+0x8c>
  4016da:	bf00      	nop
  4016dc:	20400000 	.word	0x20400000
  4016e0:	004026ec 	.word	0x004026ec
  4016e4:	20400444 	.word	0x20400444
  4016e8:	2043e550 	.word	0x2043e550
  4016ec:	20400448 	.word	0x20400448
  4016f0:	e000ed00 	.word	0xe000ed00
  4016f4:	00400000 	.word	0x00400000
  4016f8:	2040000a 	.word	0x2040000a
  4016fc:	e000ed88 	.word	0xe000ed88
  401700:	0040223d 	.word	0x0040223d
  401704:	00401f59 	.word	0x00401f59

00401708 <SystemCoreClockUpdate>:
}

void SystemCoreClockUpdate( void )
{
  /* Determine clock frequency according to clock register values */
  switch (PMC->PMC_MCKR & (uint32_t) PMC_MCKR_CSS_Msk)
  401708:	4b3b      	ldr	r3, [pc, #236]	; (4017f8 <SystemCoreClockUpdate+0xf0>)
  40170a:	6b1b      	ldr	r3, [r3, #48]	; 0x30
  40170c:	f003 0303 	and.w	r3, r3, #3
  401710:	2b01      	cmp	r3, #1
  401712:	d01d      	beq.n	401750 <SystemCoreClockUpdate+0x48>
  401714:	b183      	cbz	r3, 401738 <SystemCoreClockUpdate+0x30>
  401716:	2b02      	cmp	r3, #2
  401718:	d036      	beq.n	401788 <SystemCoreClockUpdate+0x80>

    default:
    break;
  }

  if ( (PMC->PMC_MCKR & PMC_MCKR_PRES_Msk) == PMC_MCKR_PRES_CLK_3 )
  40171a:	4b37      	ldr	r3, [pc, #220]	; (4017f8 <SystemCoreClockUpdate+0xf0>)
  40171c:	6b1b      	ldr	r3, [r3, #48]	; 0x30
  40171e:	f003 0370 	and.w	r3, r3, #112	; 0x70
  401722:	2b70      	cmp	r3, #112	; 0x70
  401724:	d05f      	beq.n	4017e6 <SystemCoreClockUpdate+0xde>
  {
    SystemCoreClock /= 3U;
  }
  else
  {
    SystemCoreClock >>= ((PMC->PMC_MCKR & PMC_MCKR_PRES_Msk) >> PMC_MCKR_PRES_Pos);
  401726:	4b34      	ldr	r3, [pc, #208]	; (4017f8 <SystemCoreClockUpdate+0xf0>)
  401728:	6b1a      	ldr	r2, [r3, #48]	; 0x30
  40172a:	4934      	ldr	r1, [pc, #208]	; (4017fc <SystemCoreClockUpdate+0xf4>)
  40172c:	f3c2 1202 	ubfx	r2, r2, #4, #3
  401730:	680b      	ldr	r3, [r1, #0]
  401732:	40d3      	lsrs	r3, r2
  401734:	600b      	str	r3, [r1, #0]
  401736:	4770      	bx	lr
      if ( SUPC->SUPC_SR & SUPC_SR_OSCSEL )
  401738:	4b31      	ldr	r3, [pc, #196]	; (401800 <SystemCoreClockUpdate+0xf8>)
  40173a:	695b      	ldr	r3, [r3, #20]
  40173c:	f013 0f80 	tst.w	r3, #128	; 0x80
        SystemCoreClock = CHIP_FREQ_XTAL_32K;
  401740:	bf14      	ite	ne
  401742:	f44f 4200 	movne.w	r2, #32768	; 0x8000
        SystemCoreClock = CHIP_FREQ_SLCK_RC;
  401746:	f44f 42fa 	moveq.w	r2, #32000	; 0x7d00
  40174a:	4b2c      	ldr	r3, [pc, #176]	; (4017fc <SystemCoreClockUpdate+0xf4>)
  40174c:	601a      	str	r2, [r3, #0]
  40174e:	e7e4      	b.n	40171a <SystemCoreClockUpdate+0x12>
      if ( PMC->CKGR_MOR & CKGR_MOR_MOSCSEL )
  401750:	4b29      	ldr	r3, [pc, #164]	; (4017f8 <SystemCoreClockUpdate+0xf0>)
  401752:	6a1b      	ldr	r3, [r3, #32]
  401754:	f013 7f80 	tst.w	r3, #16777216	; 0x1000000
  401758:	d003      	beq.n	401762 <SystemCoreClockUpdate+0x5a>
        SystemCoreClock = CHIP_FREQ_XTAL_12M;
  40175a:	4a2a      	ldr	r2, [pc, #168]	; (401804 <SystemCoreClockUpdate+0xfc>)
  40175c:	4b27      	ldr	r3, [pc, #156]	; (4017fc <SystemCoreClockUpdate+0xf4>)
  40175e:	601a      	str	r2, [r3, #0]
  401760:	e7db      	b.n	40171a <SystemCoreClockUpdate+0x12>
        SystemCoreClock = CHIP_FREQ_MAINCK_RC_4MHZ;
  401762:	4a29      	ldr	r2, [pc, #164]	; (401808 <SystemCoreClockUpdate+0x100>)
  401764:	4b25      	ldr	r3, [pc, #148]	; (4017fc <SystemCoreClockUpdate+0xf4>)
  401766:	601a      	str	r2, [r3, #0]
        switch ( PMC->CKGR_MOR & CKGR_MOR_MOSCRCF_Msk )
  401768:	4b23      	ldr	r3, [pc, #140]	; (4017f8 <SystemCoreClockUpdate+0xf0>)
  40176a:	6a1b      	ldr	r3, [r3, #32]
  40176c:	f003 0370 	and.w	r3, r3, #112	; 0x70
  401770:	2b10      	cmp	r3, #16
  401772:	d005      	beq.n	401780 <SystemCoreClockUpdate+0x78>
  401774:	2b20      	cmp	r3, #32
  401776:	d1d0      	bne.n	40171a <SystemCoreClockUpdate+0x12>
            SystemCoreClock *= 3U;
  401778:	4a22      	ldr	r2, [pc, #136]	; (401804 <SystemCoreClockUpdate+0xfc>)
  40177a:	4b20      	ldr	r3, [pc, #128]	; (4017fc <SystemCoreClockUpdate+0xf4>)
  40177c:	601a      	str	r2, [r3, #0]
          break;
  40177e:	e7cc      	b.n	40171a <SystemCoreClockUpdate+0x12>
            SystemCoreClock *= 2U;
  401780:	4a22      	ldr	r2, [pc, #136]	; (40180c <SystemCoreClockUpdate+0x104>)
  401782:	4b1e      	ldr	r3, [pc, #120]	; (4017fc <SystemCoreClockUpdate+0xf4>)
  401784:	601a      	str	r2, [r3, #0]
          break;
  401786:	e7c8      	b.n	40171a <SystemCoreClockUpdate+0x12>
      if ( PMC->CKGR_MOR & CKGR_MOR_MOSCSEL )
  401788:	4b1b      	ldr	r3, [pc, #108]	; (4017f8 <SystemCoreClockUpdate+0xf0>)
  40178a:	6a1b      	ldr	r3, [r3, #32]
  40178c:	f013 7f80 	tst.w	r3, #16777216	; 0x1000000
  401790:	d016      	beq.n	4017c0 <SystemCoreClockUpdate+0xb8>
        SystemCoreClock = CHIP_FREQ_XTAL_12M ;
  401792:	4a1c      	ldr	r2, [pc, #112]	; (401804 <SystemCoreClockUpdate+0xfc>)
  401794:	4b19      	ldr	r3, [pc, #100]	; (4017fc <SystemCoreClockUpdate+0xf4>)
  401796:	601a      	str	r2, [r3, #0]
      if ( (uint32_t) (PMC->PMC_MCKR & (uint32_t) PMC_MCKR_CSS_Msk) == PMC_MCKR_CSS_PLLA_CLK )
  401798:	4b17      	ldr	r3, [pc, #92]	; (4017f8 <SystemCoreClockUpdate+0xf0>)
  40179a:	6b1b      	ldr	r3, [r3, #48]	; 0x30
  40179c:	f003 0303 	and.w	r3, r3, #3
  4017a0:	2b02      	cmp	r3, #2
  4017a2:	d1ba      	bne.n	40171a <SystemCoreClockUpdate+0x12>
        SystemCoreClock *= ((((PMC->CKGR_PLLAR) & CKGR_PLLAR_MULA_Msk) >> CKGR_PLLAR_MULA_Pos) + 1U);
  4017a4:	4a14      	ldr	r2, [pc, #80]	; (4017f8 <SystemCoreClockUpdate+0xf0>)
  4017a6:	6a91      	ldr	r1, [r2, #40]	; 0x28
        SystemCoreClock /= ((((PMC->CKGR_PLLAR) & CKGR_PLLAR_DIVA_Msk) >> CKGR_PLLAR_DIVA_Pos));
  4017a8:	6a92      	ldr	r2, [r2, #40]	; 0x28
  4017aa:	4814      	ldr	r0, [pc, #80]	; (4017fc <SystemCoreClockUpdate+0xf4>)
        SystemCoreClock *= ((((PMC->CKGR_PLLAR) & CKGR_PLLAR_MULA_Msk) >> CKGR_PLLAR_MULA_Pos) + 1U);
  4017ac:	f3c1 410a 	ubfx	r1, r1, #16, #11
  4017b0:	6803      	ldr	r3, [r0, #0]
  4017b2:	fb01 3303 	mla	r3, r1, r3, r3
        SystemCoreClock /= ((((PMC->CKGR_PLLAR) & CKGR_PLLAR_DIVA_Msk) >> CKGR_PLLAR_DIVA_Pos));
  4017b6:	b2d2      	uxtb	r2, r2
  4017b8:	fbb3 f3f2 	udiv	r3, r3, r2
  4017bc:	6003      	str	r3, [r0, #0]
  4017be:	e7ac      	b.n	40171a <SystemCoreClockUpdate+0x12>
        SystemCoreClock = CHIP_FREQ_MAINCK_RC_4MHZ;
  4017c0:	4a11      	ldr	r2, [pc, #68]	; (401808 <SystemCoreClockUpdate+0x100>)
  4017c2:	4b0e      	ldr	r3, [pc, #56]	; (4017fc <SystemCoreClockUpdate+0xf4>)
  4017c4:	601a      	str	r2, [r3, #0]
        switch ( PMC->CKGR_MOR & CKGR_MOR_MOSCRCF_Msk )
  4017c6:	4b0c      	ldr	r3, [pc, #48]	; (4017f8 <SystemCoreClockUpdate+0xf0>)
  4017c8:	6a1b      	ldr	r3, [r3, #32]
  4017ca:	f003 0370 	and.w	r3, r3, #112	; 0x70
  4017ce:	2b10      	cmp	r3, #16
  4017d0:	d005      	beq.n	4017de <SystemCoreClockUpdate+0xd6>
  4017d2:	2b20      	cmp	r3, #32
  4017d4:	d1e0      	bne.n	401798 <SystemCoreClockUpdate+0x90>
            SystemCoreClock *= 3U;
  4017d6:	4a0b      	ldr	r2, [pc, #44]	; (401804 <SystemCoreClockUpdate+0xfc>)
  4017d8:	4b08      	ldr	r3, [pc, #32]	; (4017fc <SystemCoreClockUpdate+0xf4>)
  4017da:	601a      	str	r2, [r3, #0]
          break;
  4017dc:	e7dc      	b.n	401798 <SystemCoreClockUpdate+0x90>
            SystemCoreClock *= 2U;
  4017de:	4a0b      	ldr	r2, [pc, #44]	; (40180c <SystemCoreClockUpdate+0x104>)
  4017e0:	4b06      	ldr	r3, [pc, #24]	; (4017fc <SystemCoreClockUpdate+0xf4>)
  4017e2:	601a      	str	r2, [r3, #0]
          break;
  4017e4:	e7d8      	b.n	401798 <SystemCoreClockUpdate+0x90>
    SystemCoreClock /= 3U;
  4017e6:	4a05      	ldr	r2, [pc, #20]	; (4017fc <SystemCoreClockUpdate+0xf4>)
  4017e8:	6813      	ldr	r3, [r2, #0]
  4017ea:	4909      	ldr	r1, [pc, #36]	; (401810 <SystemCoreClockUpdate+0x108>)
  4017ec:	fba1 1303 	umull	r1, r3, r1, r3
  4017f0:	085b      	lsrs	r3, r3, #1
  4017f2:	6013      	str	r3, [r2, #0]
  4017f4:	4770      	bx	lr
  4017f6:	bf00      	nop
  4017f8:	400e0600 	.word	0x400e0600
  4017fc:	2040000c 	.word	0x2040000c
  401800:	400e1810 	.word	0x400e1810
  401804:	00b71b00 	.word	0x00b71b00
  401808:	003d0900 	.word	0x003d0900
  40180c:	007a1200 	.word	0x007a1200
  401810:	aaaaaaab 	.word	0xaaaaaaab

00401814 <system_init_flash>:
 * Initialize flash.
 */
void system_init_flash( uint32_t ul_clk )
{
  /* Set FWS for embedded Flash access according to operating frequency */
  if ( ul_clk < CHIP_FREQ_FWS_0 )
  401814:	4b12      	ldr	r3, [pc, #72]	; (401860 <system_init_flash+0x4c>)
  401816:	4298      	cmp	r0, r3
  401818:	d911      	bls.n	40183e <system_init_flash+0x2a>
  {
    EFC->EEFC_FMR = EEFC_FMR_FWS(0)|EEFC_FMR_CLOE;
  }
  else
  {
    if (ul_clk < CHIP_FREQ_FWS_1)
  40181a:	4b12      	ldr	r3, [pc, #72]	; (401864 <system_init_flash+0x50>)
  40181c:	4298      	cmp	r0, r3
  40181e:	d913      	bls.n	401848 <system_init_flash+0x34>
    {
      EFC->EEFC_FMR = EEFC_FMR_FWS(1)|EEFC_FMR_CLOE;
    }
    else
    {
      if (ul_clk < CHIP_FREQ_FWS_2)
  401820:	4b11      	ldr	r3, [pc, #68]	; (401868 <system_init_flash+0x54>)
  401822:	4298      	cmp	r0, r3
  401824:	d914      	bls.n	401850 <system_init_flash+0x3c>
      {
        EFC->EEFC_FMR = EEFC_FMR_FWS(2)|EEFC_FMR_CLOE;
      }
      else
      {
        if ( ul_clk < CHIP_FREQ_FWS_3 )
  401826:	4b11      	ldr	r3, [pc, #68]	; (40186c <system_init_flash+0x58>)
  401828:	4298      	cmp	r0, r3
  40182a:	d915      	bls.n	401858 <system_init_flash+0x44>
        {
          EFC->EEFC_FMR = EEFC_FMR_FWS(3)|EEFC_FMR_CLOE;
        }
        else
        {
          if ( ul_clk < CHIP_FREQ_FWS_4 )
  40182c:	4b10      	ldr	r3, [pc, #64]	; (401870 <system_init_flash+0x5c>)
  40182e:	4298      	cmp	r0, r3
          {
            EFC->EEFC_FMR = EEFC_FMR_FWS(4)|EEFC_FMR_CLOE;
  401830:	bf94      	ite	ls
  401832:	f04f 2204 	movls.w	r2, #67109888	; 0x4000400
          }
          else
          {
            EFC->EEFC_FMR = EEFC_FMR_FWS(5)|EEFC_FMR_CLOE;
  401836:	4a0f      	ldrhi	r2, [pc, #60]	; (401874 <system_init_flash+0x60>)
  401838:	4b0f      	ldr	r3, [pc, #60]	; (401878 <system_init_flash+0x64>)
  40183a:	601a      	str	r2, [r3, #0]
  40183c:	4770      	bx	lr
    EFC->EEFC_FMR = EEFC_FMR_FWS(0)|EEFC_FMR_CLOE;
  40183e:	f04f 6280 	mov.w	r2, #67108864	; 0x4000000
  401842:	4b0d      	ldr	r3, [pc, #52]	; (401878 <system_init_flash+0x64>)
  401844:	601a      	str	r2, [r3, #0]
  401846:	4770      	bx	lr
      EFC->EEFC_FMR = EEFC_FMR_FWS(1)|EEFC_FMR_CLOE;
  401848:	4a0c      	ldr	r2, [pc, #48]	; (40187c <system_init_flash+0x68>)
  40184a:	4b0b      	ldr	r3, [pc, #44]	; (401878 <system_init_flash+0x64>)
  40184c:	601a      	str	r2, [r3, #0]
  40184e:	4770      	bx	lr
        EFC->EEFC_FMR = EEFC_FMR_FWS(2)|EEFC_FMR_CLOE;
  401850:	4a0b      	ldr	r2, [pc, #44]	; (401880 <system_init_flash+0x6c>)
  401852:	4b09      	ldr	r3, [pc, #36]	; (401878 <system_init_flash+0x64>)
  401854:	601a      	str	r2, [r3, #0]
  401856:	4770      	bx	lr
          EFC->EEFC_FMR = EEFC_FMR_FWS(3)|EEFC_FMR_CLOE;
  401858:	4a0a      	ldr	r2, [pc, #40]	; (401884 <system_init_flash+0x70>)
  40185a:	4b07      	ldr	r3, [pc, #28]	; (401878 <system_init_flash+0x64>)
  40185c:	601a      	str	r2, [r3, #0]
  40185e:	4770      	bx	lr
  401860:	01312cff 	.word	0x01312cff
  401864:	026259ff 	.word	0x026259ff
  401868:	039386ff 	.word	0x039386ff
  40186c:	04c4b3ff 	.word	0x04c4b3ff
  401870:	05f5e0ff 	.word	0x05f5e0ff
  401874:	04000500 	.word	0x04000500
  401878:	400e0c00 	.word	0x400e0c00
  40187c:	04000100 	.word	0x04000100
  401880:	04000200 	.word	0x04000200
  401884:	04000300 	.word	0x04000300

00401888 <enableSourceClk>:
		base->PIO_PUDR = mask;
  401888:	4b0e      	ldr	r3, [pc, #56]	; (4018c4 <enableSourceClk+0x3c>)
  40188a:	f44f 3200 	mov.w	r2, #131072	; 0x20000
  40188e:	661a      	str	r2, [r3, #96]	; 0x60
		base->PIO_PPDDR = mask;
  401890:	f8c3 2090 	str.w	r2, [r3, #144]	; 0x90
		base->PIO_MDDR = mask;
  401894:	655a      	str	r2, [r3, #84]	; 0x54
		base->PIO_IFDR = mask;
  401896:	625a      	str	r2, [r3, #36]	; 0x24
		base->PIO_IFSCDR = mask;
  401898:	f8c3 2080 	str.w	r2, [r3, #128]	; 0x80
		base->PIO_ABCDSR[0] |= mask;
  40189c:	6f19      	ldr	r1, [r3, #112]	; 0x70
  40189e:	4311      	orrs	r1, r2
  4018a0:	6719      	str	r1, [r3, #112]	; 0x70
	} else {
		base->PIO_ABCDSR[1] &= ~mask;
  4018a2:	6f59      	ldr	r1, [r3, #116]	; 0x74
  4018a4:	f421 3100 	bic.w	r1, r1, #131072	; 0x20000
  4018a8:	6759      	str	r1, [r3, #116]	; 0x74
	arch_ioport_port_to_base(port)->PIO_PDR = mask;
  4018aa:	605a      	str	r2, [r3, #4]
	//Sets PCK1 as clock output using Main Clocks
	//pmc_enable_periph_clk( ID_PIOA ); //Sets PIO clock
	ioport_set_pin_mode(SCK1_PIN,IOPORT_MODE_MUX_B);
	ioport_disable_pin(SCK1_PIN);//Not sure if this is necessary

	PMC->PMC_SCER = (PMC_SCER_PCK1);
  4018ac:	4a06      	ldr	r2, [pc, #24]	; (4018c8 <enableSourceClk+0x40>)
  4018ae:	f44f 7300 	mov.w	r3, #512	; 0x200
  4018b2:	6013      	str	r3, [r2, #0]
	#endif
	#ifdef EV76C454_SUBSAMP //Trying to run MCU slower
		PMC->PMC_PCK[1] = (PMC->PMC_PCK[1] & ~(uint32_t)PMC_PCK_CSS_Msk)|(PMC_PCK_CSS_PLLA_CLK)|PMC_PCK_PRES(2); //Should make output = 48MHz
	#endif
	#ifdef EV76C541 //Trying to run MCU slower
		PMC->PMC_PCK[1] = (PMC->PMC_PCK[1] & ~(uint32_t)PMC_PCK_CSS_Msk)|(PMC_PCK_CSS_PLLA_CLK)|PMC_PCK_PRES(5); //Should make output = 24MHz. Sensor divids by 4
  4018b4:	6c53      	ldr	r3, [r2, #68]	; 0x44
  4018b6:	f023 0357 	bic.w	r3, r3, #87	; 0x57
  4018ba:	f043 0352 	orr.w	r3, r3, #82	; 0x52
  4018be:	6453      	str	r3, [r2, #68]	; 0x44
  4018c0:	4770      	bx	lr
  4018c2:	bf00      	nop
  4018c4:	400e0e00 	.word	0x400e0e00
  4018c8:	400e0600 	.word	0x400e0600

004018cc <spiWrite>:
	//PMC->PMC_PCK[1] = (PMC->PMC_PCK[1] & ~(uint32_t)PMC_PCK_CSS_Msk)|(PMC_PCK_CSS_MAIN_CLK)|PMC_PCK_PRES(0); //Originally prescaler was (3)


}

void spiWrite(uint8_t reg, uint16_t val) {
  4018cc:	e92d 47f0 	stmdb	sp!, {r4, r5, r6, r7, r8, r9, sl, lr}
  4018d0:	460c      	mov	r4, r1
	uint8_t count = 0;
	reg = reg|0x80; //Sets write bit to 1
  4018d2:	f040 0680 	orr.w	r6, r0, #128	; 0x80
		bool level)
{
	Pio *base = arch_ioport_pin_to_base(pin);

	if (level) {
		base->PIO_SODR = arch_ioport_pin_to_mask(pin);
  4018d6:	4f28      	ldr	r7, [pc, #160]	; (401978 <spiWrite+0xac>)
  4018d8:	f04f 0801 	mov.w	r8, #1
  4018dc:	f8c7 8030 	str.w	r8, [r7, #48]	; 0x30
	ioport_set_pin_level(PIO_PB0_IDX, 1);
	delay_us(10);
  4018e0:	20f3      	movs	r0, #243	; 0xf3
  4018e2:	4d26      	ldr	r5, [pc, #152]	; (40197c <spiWrite+0xb0>)
  4018e4:	47a8      	blx	r5
	} else {
		base->PIO_CODR = arch_ioport_pin_to_mask(pin);
  4018e6:	f8c7 8034 	str.w	r8, [r7, #52]	; 0x34
	ioport_set_pin_level(PIO_PB0_IDX, 0);
	delay_us(10);
  4018ea:	20f3      	movs	r0, #243	; 0xf3
  4018ec:	47a8      	blx	r5
  4018ee:	2508      	movs	r5, #8
	for(count=0;count<8;count++){
		if (reg & 0x80)                                 // Check for a 1
			ioport_set_pin_level(PIO_PB4_IDX, 1);   
		else
			ioport_set_pin_level(PIO_PB4_IDX, 0);
		delay_us(10);
  4018f0:	f04f 0af3 	mov.w	sl, #243	; 0xf3
  4018f4:	f8df 9084 	ldr.w	r9, [pc, #132]	; 40197c <spiWrite+0xb0>
  4018f8:	e011      	b.n	40191e <spiWrite+0x52>
		base->PIO_SODR = arch_ioport_pin_to_mask(pin);
  4018fa:	2310      	movs	r3, #16
  4018fc:	633b      	str	r3, [r7, #48]	; 0x30
  4018fe:	4650      	mov	r0, sl
  401900:	47c8      	blx	r9
  401902:	f04f 0820 	mov.w	r8, #32
  401906:	f8c7 8030 	str.w	r8, [r7, #48]	; 0x30
		ioport_set_pin_level(PIO_PB5_IDX, 1); 
		delay_us(10);
  40190a:	4650      	mov	r0, sl
  40190c:	47c8      	blx	r9
		base->PIO_CODR = arch_ioport_pin_to_mask(pin);
  40190e:	f8c7 8034 	str.w	r8, [r7, #52]	; 0x34
		ioport_set_pin_level(PIO_PB5_IDX, 0); 
		reg = reg<<1;
  401912:	0076      	lsls	r6, r6, #1
  401914:	b2f6      	uxtb	r6, r6
  401916:	1e6b      	subs	r3, r5, #1
	for(count=0;count<8;count++){
  401918:	f013 05ff 	ands.w	r5, r3, #255	; 0xff
  40191c:	d005      	beq.n	40192a <spiWrite+0x5e>
		if (reg & 0x80)                                 // Check for a 1
  40191e:	f016 0f80 	tst.w	r6, #128	; 0x80
  401922:	d1ea      	bne.n	4018fa <spiWrite+0x2e>
  401924:	2310      	movs	r3, #16
  401926:	637b      	str	r3, [r7, #52]	; 0x34
  401928:	e7e9      	b.n	4018fe <spiWrite+0x32>
  40192a:	2510      	movs	r5, #16
  40192c:	4e12      	ldr	r6, [pc, #72]	; (401978 <spiWrite+0xac>)
	for(count=0;count<16;count++){
		if (val & 0x8000)                                 // Check for a 1
			ioport_set_pin_level(PIO_PB4_IDX, 1);
		else
			ioport_set_pin_level(PIO_PB4_IDX, 0);
		delay_us(10);
  40192e:	f04f 09f3 	mov.w	r9, #243	; 0xf3
  401932:	f8df 8048 	ldr.w	r8, [pc, #72]	; 40197c <spiWrite+0xb0>
  401936:	e00e      	b.n	401956 <spiWrite+0x8a>
		base->PIO_SODR = arch_ioport_pin_to_mask(pin);
  401938:	2310      	movs	r3, #16
  40193a:	6333      	str	r3, [r6, #48]	; 0x30
  40193c:	4648      	mov	r0, r9
  40193e:	47c0      	blx	r8
  401940:	2720      	movs	r7, #32
  401942:	6337      	str	r7, [r6, #48]	; 0x30
		ioport_set_pin_level(PIO_PB5_IDX, 1);
		delay_us(10);
  401944:	4648      	mov	r0, r9
  401946:	47c0      	blx	r8
		base->PIO_CODR = arch_ioport_pin_to_mask(pin);
  401948:	6377      	str	r7, [r6, #52]	; 0x34
		ioport_set_pin_level(PIO_PB5_IDX, 0);
		val = val<<1;
  40194a:	0064      	lsls	r4, r4, #1
  40194c:	b2a4      	uxth	r4, r4
  40194e:	1e6b      	subs	r3, r5, #1
	for(count=0;count<16;count++){
  401950:	f013 05ff 	ands.w	r5, r3, #255	; 0xff
  401954:	d005      	beq.n	401962 <spiWrite+0x96>
		if (val & 0x8000)                                 // Check for a 1
  401956:	f414 4f00 	tst.w	r4, #32768	; 0x8000
  40195a:	d1ed      	bne.n	401938 <spiWrite+0x6c>
  40195c:	2310      	movs	r3, #16
  40195e:	6373      	str	r3, [r6, #52]	; 0x34
  401960:	e7ec      	b.n	40193c <spiWrite+0x70>
	}
	delay_us(10);
  401962:	20f3      	movs	r0, #243	; 0xf3
  401964:	4c05      	ldr	r4, [pc, #20]	; (40197c <spiWrite+0xb0>)
  401966:	47a0      	blx	r4
		base->PIO_SODR = arch_ioport_pin_to_mask(pin);
  401968:	2201      	movs	r2, #1
  40196a:	4b03      	ldr	r3, [pc, #12]	; (401978 <spiWrite+0xac>)
  40196c:	631a      	str	r2, [r3, #48]	; 0x30
	ioport_set_pin_level(PIO_PB0_IDX, 1);
	delay_us(10);
  40196e:	20f3      	movs	r0, #243	; 0xf3
  401970:	47a0      	blx	r4
  401972:	e8bd 87f0 	ldmia.w	sp!, {r4, r5, r6, r7, r8, r9, sl, pc}
  401976:	bf00      	nop
  401978:	400e1000 	.word	0x400e1000
  40197c:	20400001 	.word	0x20400001

00401980 <imagingSensorConfigureEV76C541>:
	//Should always end with clock low and chip select high
}
void imagingSensorConfigureEV76C541() { //SPI configuration of sensor
  401980:	b5f0      	push	{r4, r5, r6, r7, lr}
  401982:	b0a1      	sub	sp, #132	; 0x84
	uint16_t value = 0x0000;
	uint8_t reg = 0x00;

	// ----- These initialize the registers from the EV76V541 Initialization Values PDF
	uint8_t initReg[42] = {0x07,0x3A,0x3F,0x47,0x48,0x49,
  401984:	4e2a      	ldr	r6, [pc, #168]	; (401a30 <imagingSensorConfigureEV76C541+0xb0>)
  401986:	ac15      	add	r4, sp, #84	; 0x54
  401988:	4635      	mov	r5, r6
  40198a:	cd0f      	ldmia	r5!, {r0, r1, r2, r3}
  40198c:	c40f      	stmia	r4!, {r0, r1, r2, r3}
  40198e:	cd0f      	ldmia	r5!, {r0, r1, r2, r3}
  401990:	c40f      	stmia	r4!, {r0, r1, r2, r3}
  401992:	e895 0007 	ldmia.w	r5, {r0, r1, r2}
  401996:	c403      	stmia	r4!, {r0, r1}
  401998:	8022      	strh	r2, [r4, #0]
						   0x51,0x52,0x53,0x54,0x55,0x56,
						   0x57,0x58,0x59,0x5A,0x5B,0x5C,
						   0x5E,0x67,0x68,0x69,0x6A,0x6B,
						   0x6C,0x6E,0x6F,0x70,0x71,0x73,
						   0x79,0x7A,0x7B,0x41,0x46,0x6D};
	uint16_t initValue[42] = {0x0A06,0x80AF,0x1E1E,0x034F,0xFFFD,0x8D6F,
  40199a:	2254      	movs	r2, #84	; 0x54
  40199c:	f106 012c 	add.w	r1, r6, #44	; 0x2c
  4019a0:	4668      	mov	r0, sp
  4019a2:	4b24      	ldr	r3, [pc, #144]	; (401a34 <imagingSensorConfigureEV76C541+0xb4>)
  4019a4:	4798      	blx	r3
  4019a6:	f10d 0453 	add.w	r4, sp, #83	; 0x53
  4019aa:	f1ad 0502 	sub.w	r5, sp, #2
  4019ae:	f10d 077d 	add.w	r7, sp, #125	; 0x7d
							  0x5257,0x4452,0x0541,0x5471,0x0941,0x5470,
							  0x0871,0x0941,0x0745,0x0541,0x5471,0x5053,
							  0x2000,0x308A,0x0101,0x9922,0x4300,0x516E};

	for (uint8_t i=0;i<42;i++)
		spiWrite(initReg[i],initValue[i]);
  4019b2:	4e21      	ldr	r6, [pc, #132]	; (401a38 <imagingSensorConfigureEV76C541+0xb8>)
  4019b4:	f835 1f02 	ldrh.w	r1, [r5, #2]!
  4019b8:	f814 0f01 	ldrb.w	r0, [r4, #1]!
  4019bc:	47b0      	blx	r6
	for (uint8_t i=0;i<42;i++)
  4019be:	42bc      	cmp	r4, r7
  4019c0:	d1f8      	bne.n	4019b4 <imagingSensorConfigureEV76C541+0x34>

	//reg-miscel1
	reg = 0x06;
	value = 0x345A; //Default value
	value &= 0xFF00; //Sets the knee point of 10 to 8 bit conversion. Using direct 10 to 8 bit conversion with 0 knee point
	spiWrite(reg,value);
  4019c2:	f44f 5150 	mov.w	r1, #13312	; 0x3400
  4019c6:	2006      	movs	r0, #6
  4019c8:	4c1b      	ldr	r4, [pc, #108]	; (401a38 <imagingSensorConfigureEV76C541+0xb8>)
  4019ca:	47a0      	blx	r4
	value = 0x0A06; //Value that is set on startup. Not sure about the bottom 4 bits
	value |= 1<<13; //LEN Invert 
	value |= 1<<12; //FEN Invert
	//value = value&0b1111110111111111; //Clamp_auto_en
	value |= (0<<5)|(0<<4); //Test pattern selection. 0 is video output
	spiWrite(reg,value);
  4019cc:	f643 2106 	movw	r1, #14854	; 0x3a06
  4019d0:	2007      	movs	r0, #7
  4019d2:	47a0      	blx	r4

	//Clock configuration
	reg = 0x08;
	value = 0xDF22; //Default value
	value = 0b1101010100100010; //Selects source of clocks and downsample factors
	spiWrite(reg,value);
  4019d4:	f24d 5122 	movw	r1, #54562	; 0xd522
  4019d8:	2008      	movs	r0, #8
  4019da:	47a0      	blx	r4
	value = 0x0000;
	value |= (1<<9); //binning division factor (1,2 or 4)
	value |= 1<<4; //range compression for 10 to 8 bit. uses knee defined in 0x06
	//value |= 1<<0; //bin ROI1
	//value = 0b0000000000000001; //Last bit bins pixels, middle bits sets bin division factor
	spiWrite(reg,value);
  4019dc:	f44f 7104 	mov.w	r1, #528	; 0x210
  4019e0:	200a      	movs	r0, #10
  4019e2:	47a0      	blx	r4
	//Control configuration
	reg = 0x0B;
	value = 0x0005; //Default value. sets overlap mode and Trig pin polarity
	value |= 1<<8; //Trig pin enabled
	value = value&(0xFFFE); //Turns standby mode off
	spiWrite(reg,value);
  4019e4:	f44f 7182 	mov.w	r1, #260	; 0x104
  4019e8:	200b      	movs	r0, #11
  4019ea:	47a0      	blx	r4
	//-------------- ROI1 control Regs
	//ROI1 int time
	reg = 0x0E;
	value = 682; //Int time in number of lines. time for 1 line = 15.4us*57MHz/(CLK_CTRL in MHz)
	//682 lines at 12MHz clock should get us 20FPS
	spiWrite(reg,value);
  4019ec:	f240 21aa 	movw	r1, #682	; 0x2aa
  4019f0:	200e      	movs	r0, #14
  4019f2:	47a0      	blx	r4

	//Analog and digital Gain
	reg = 0x11;
	value = 0; //Default gain of 1. Top 8 are analog, bottom 8 are digital
	switch (gain){
  4019f4:	4b11      	ldr	r3, [pc, #68]	; (401a3c <imagingSensorConfigureEV76C541+0xbc>)
  4019f6:	681b      	ldr	r3, [r3, #0]
  4019f8:	2b04      	cmp	r3, #4
  4019fa:	d013      	beq.n	401a24 <imagingSensorConfigureEV76C541+0xa4>
  4019fc:	2b08      	cmp	r3, #8
  4019fe:	d014      	beq.n	401a2a <imagingSensorConfigureEV76C541+0xaa>
		case (1):
			value = 0;
  401a00:	2b02      	cmp	r3, #2
  401a02:	bf0c      	ite	eq
  401a04:	f44f 7100 	moveq.w	r1, #512	; 0x200
  401a08:	2100      	movne	r1, #0
		default:
			value = 0;
			break;
	}
	//value |= 0x0040; //Add some digital gain (2x)
	spiWrite(reg,value);
  401a0a:	2011      	movs	r0, #17
  401a0c:	4c0a      	ldr	r4, [pc, #40]	; (401a38 <imagingSensorConfigureEV76C541+0xb8>)
  401a0e:	47a0      	blx	r4
	//spiWrite(reg,value);

	//Vertical size
	reg = 0x15;
	value = 704; //704lines. Max is 752
	spiWrite(reg,value);
  401a10:	f44f 7130 	mov.w	r1, #704	; 0x2c0
  401a14:	2015      	movs	r0, #21
  401a16:	47a0      	blx	r4

	//Sub-sampling RO1
	reg = 0x1A;
	value = (8<<8)|(8<<0); //2 x 2 down sample
	spiWrite(reg,value);
  401a18:	f640 0108 	movw	r1, #2056	; 0x808
  401a1c:	201a      	movs	r0, #26
  401a1e:	47a0      	blx	r4
}
  401a20:	b021      	add	sp, #132	; 0x84
  401a22:	bdf0      	pop	{r4, r5, r6, r7, pc}
			value = (4<<8);
  401a24:	f44f 6180 	mov.w	r1, #1024	; 0x400
			break;
  401a28:	e7ef      	b.n	401a0a <imagingSensorConfigureEV76C541+0x8a>
			value = (6<<8);
  401a2a:	f44f 61c0 	mov.w	r1, #1536	; 0x600
			break;
  401a2e:	e7ec      	b.n	401a0a <imagingSensorConfigureEV76C541+0x8a>
  401a30:	00402644 	.word	0x00402644
  401a34:	0040228d 	.word	0x0040228d
  401a38:	004018cd 	.word	0x004018cd
  401a3c:	20400010 	.word	0x20400010

00401a40 <imagingSensorParamInit>:
}

void imagingSensorParamInit() {
	
	
	PIOA->PIO_PCMR |= PIO_PCMR_DSIZE(D_SIZE);
  401a40:	4a03      	ldr	r2, [pc, #12]	; (401a50 <imagingSensorParamInit+0x10>)
  401a42:	f8d2 3150 	ldr.w	r3, [r2, #336]	; 0x150
  401a46:	f043 0320 	orr.w	r3, r3, #32
  401a4a:	f8c2 3150 	str.w	r3, [r2, #336]	; 0x150
  401a4e:	4770      	bx	lr
  401a50:	400e0e00 	.word	0x400e0e00

00401a54 <imagingSensorDMAInit>:
	PIOA->PIO_PCMR |= PIO_PCMR_HALFS;
	if (FRSTS == 1)
	PIOA->PIO_PCMR |= PIO_PCMR_FRSTS;
}

void imagingSensorDMAInit() {
  401a54:	b508      	push	{r3, lr}
	//Single Block With Single Microblock Transfer
	uint32_t channelStatus = 0;
	/* Initialize and enable DMA controller */
	pmc_enable_periph_clk(ID_XDMAC);
  401a56:	203a      	movs	r0, #58	; 0x3a
  401a58:	4b05      	ldr	r3, [pc, #20]	; (401a70 <imagingSensorDMAInit+0x1c>)
  401a5a:	4798      	blx	r3
  NVIC->ICPR[((uint32_t)(IRQn) >> 5)] = (1 << ((uint32_t)(IRQn) & 0x1F)); /* Clear pending interrupt */
  401a5c:	4b05      	ldr	r3, [pc, #20]	; (401a74 <imagingSensorDMAInit+0x20>)
  401a5e:	f04f 6280 	mov.w	r2, #67108864	; 0x4000000
  401a62:	f8c3 2184 	str.w	r2, [r3, #388]	; 0x184
    NVIC->IP[(uint32_t)(IRQn)]            = ((priority << (8 - __NVIC_PRIO_BITS)) & 0xff); } /* set Priority for device specific Interrupts  */
  401a66:	2120      	movs	r1, #32
  401a68:	f883 133a 	strb.w	r1, [r3, #826]	; 0x33a
  NVIC->ISER[(uint32_t)((int32_t)IRQn) >> 5] = (uint32_t)(1 << ((uint32_t)((int32_t)IRQn) & (uint32_t)0x1F)); /* enable interrupt */
  401a6c:	605a      	str	r2, [r3, #4]
  401a6e:	bd08      	pop	{r3, pc}
  401a70:	004014e5 	.word	0x004014e5
  401a74:	e000e100 	.word	0xe000e100

00401a78 <imagingSensorStartDMA>:

void imagingSensorStartDMA() {
	
	uint32_t channelStatus = 0;

	XDMAC->XDMAC_GD =(XDMAC_GD_DI0 << IMAGING_SENSOR_XDMAC_CH); //disables DMA channel
  401a78:	4b23      	ldr	r3, [pc, #140]	; (401b08 <imagingSensorStartDMA+0x90>)
  401a7a:	2202      	movs	r2, #2
  401a7c:	621a      	str	r2, [r3, #32]

	channelStatus = XDMAC->XDMAC_GS; //Global status of XDMAC channels. Should make sure IMAGING_SENSOR_XDMAC_CH is available
  401a7e:	6a5a      	ldr	r2, [r3, #36]	; 0x24
	XDMAC->XDMAC_CHID[IMAGING_SENSOR_XDMAC_CH].XDMAC_CIS;//clears interrupt status bit
  401a80:	f8d3 209c 	ldr.w	r2, [r3, #156]	; 0x9c
	XDMAC->XDMAC_CHID[IMAGING_SENSOR_XDMAC_CH].XDMAC_CSA = (uint32_t)&(PIOA->PIO_PCRHR); //source address
  401a84:	4a21      	ldr	r2, [pc, #132]	; (401b0c <imagingSensorStartDMA+0x94>)
  401a86:	f8c3 20a0 	str.w	r2, [r3, #160]	; 0xa0
			break;
	}
	#endif

	#ifdef EV76C541
	switch(frameNumber%3){
  401a8a:	4b21      	ldr	r3, [pc, #132]	; (401b10 <imagingSensorStartDMA+0x98>)
  401a8c:	681a      	ldr	r2, [r3, #0]
  401a8e:	4b21      	ldr	r3, [pc, #132]	; (401b14 <imagingSensorStartDMA+0x9c>)
  401a90:	fba3 1302 	umull	r1, r3, r3, r2
  401a94:	085b      	lsrs	r3, r3, #1
  401a96:	eb03 0343 	add.w	r3, r3, r3, lsl #1
  401a9a:	1ad3      	subs	r3, r2, r3
  401a9c:	2b01      	cmp	r3, #1
  401a9e:	d029      	beq.n	401af4 <imagingSensorStartDMA+0x7c>
  401aa0:	b31b      	cbz	r3, 401aea <imagingSensorStartDMA+0x72>
  401aa2:	2b02      	cmp	r3, #2
  401aa4:	d02b      	beq.n	401afe <imagingSensorStartDMA+0x86>
		XDMAC->XDMAC_CHID[IMAGING_SENSOR_XDMAC_CH].XDMAC_CDA = (uint32_t)imageBuffer2;
		break;
	}
	#endif

	XDMAC->XDMAC_CHID[IMAGING_SENSOR_XDMAC_CH].XDMAC_CUBC = XDMAC_CUBC_UBLEN(NUM_PIXEL_WORDS);
  401aa6:	4b18      	ldr	r3, [pc, #96]	; (401b08 <imagingSensorStartDMA+0x90>)
  401aa8:	f44f 42a5 	mov.w	r2, #21120	; 0x5280
  401aac:	f8c3 20b0 	str.w	r2, [r3, #176]	; 0xb0
	XDMAC->XDMAC_CHID[IMAGING_SENSOR_XDMAC_CH].XDMAC_CC = XDMAC_CC_TYPE_PER_TRAN |
  401ab0:	4a19      	ldr	r2, [pc, #100]	; (401b18 <imagingSensorStartDMA+0xa0>)
  401ab2:	f8c3 20b8 	str.w	r2, [r3, #184]	; 0xb8
	XDMAC_CC_SAM_FIXED_AM | //fixed source memory
	XDMAC_CC_DAM_INCREMENTED_AM | //increment destination memory
	XDMAC_CC_PERID(XDAMC_CHANNEL_HWID_PIOA); // Peripheral ID for Parallel Capture

	//Clearing the following registers indicates that the linked list is disabled and that there is only 1 block
	XDMAC->XDMAC_CHID[IMAGING_SENSOR_XDMAC_CH].XDMAC_CNDC = 0;
  401ab6:	2200      	movs	r2, #0
  401ab8:	f8c3 20ac 	str.w	r2, [r3, #172]	; 0xac
	XDMAC->XDMAC_CHID[IMAGING_SENSOR_XDMAC_CH].XDMAC_CBC = 0;
  401abc:	f8c3 20b4 	str.w	r2, [r3, #180]	; 0xb4
	XDMAC->XDMAC_CHID[IMAGING_SENSOR_XDMAC_CH].XDMAC_CDS_MSP = 0;
  401ac0:	f8c3 20bc 	str.w	r2, [r3, #188]	; 0xbc
	XDMAC->XDMAC_CHID[IMAGING_SENSOR_XDMAC_CH].XDMAC_CSUS = 0;
  401ac4:	f8c3 20c0 	str.w	r2, [r3, #192]	; 0xc0
	XDMAC->XDMAC_CHID[IMAGING_SENSOR_XDMAC_CH].XDMAC_CDUS = 0;
  401ac8:	f8c3 20c4 	str.w	r2, [r3, #196]	; 0xc4

	XDMAC->XDMAC_CHID[IMAGING_SENSOR_XDMAC_CH].XDMAC_CIE |= XDMAC_CIE_BIE; //Enables end of block interrupt
  401acc:	f8d3 2090 	ldr.w	r2, [r3, #144]	; 0x90
  401ad0:	f042 0201 	orr.w	r2, r2, #1
  401ad4:	f8c3 2090 	str.w	r2, [r3, #144]	; 0x90
	XDMAC->XDMAC_GIE |= (XDMAC_GIE_IE0 <<IMAGING_SENSOR_XDMAC_CH); //Enables channel interrupt
  401ad8:	68da      	ldr	r2, [r3, #12]
  401ada:	f042 0202 	orr.w	r2, r2, #2
  401ade:	60da      	str	r2, [r3, #12]
	XDMAC->XDMAC_GE |= (XDMAC_GE_EN0 << IMAGING_SENSOR_XDMAC_CH); //Enables DMA channel
  401ae0:	69da      	ldr	r2, [r3, #28]
  401ae2:	f042 0202 	orr.w	r2, r2, #2
  401ae6:	61da      	str	r2, [r3, #28]
  401ae8:	4770      	bx	lr
		XDMAC->XDMAC_CHID[IMAGING_SENSOR_XDMAC_CH].XDMAC_CDA = (uint32_t)imageBuffer0;
  401aea:	4b07      	ldr	r3, [pc, #28]	; (401b08 <imagingSensorStartDMA+0x90>)
  401aec:	4a0b      	ldr	r2, [pc, #44]	; (401b1c <imagingSensorStartDMA+0xa4>)
  401aee:	f8c3 20a4 	str.w	r2, [r3, #164]	; 0xa4
		break;
  401af2:	e7d8      	b.n	401aa6 <imagingSensorStartDMA+0x2e>
		XDMAC->XDMAC_CHID[IMAGING_SENSOR_XDMAC_CH].XDMAC_CDA = (uint32_t)imageBuffer1;
  401af4:	4b04      	ldr	r3, [pc, #16]	; (401b08 <imagingSensorStartDMA+0x90>)
  401af6:	4a0a      	ldr	r2, [pc, #40]	; (401b20 <imagingSensorStartDMA+0xa8>)
  401af8:	f8c3 20a4 	str.w	r2, [r3, #164]	; 0xa4
		break;
  401afc:	e7d3      	b.n	401aa6 <imagingSensorStartDMA+0x2e>
		XDMAC->XDMAC_CHID[IMAGING_SENSOR_XDMAC_CH].XDMAC_CDA = (uint32_t)imageBuffer2;
  401afe:	4b02      	ldr	r3, [pc, #8]	; (401b08 <imagingSensorStartDMA+0x90>)
  401b00:	4a08      	ldr	r2, [pc, #32]	; (401b24 <imagingSensorStartDMA+0xac>)
  401b02:	f8c3 20a4 	str.w	r2, [r3, #164]	; 0xa4
		break;
  401b06:	e7ce      	b.n	401aa6 <imagingSensorStartDMA+0x2e>
  401b08:	40078000 	.word	0x40078000
  401b0c:	400e0f64 	.word	0x400e0f64
  401b10:	204004a0 	.word	0x204004a0
  401b14:	aaaaaaab 	.word	0xaaaaaaab
  401b18:	22043001 	.word	0x22043001
  401b1c:	204004a8 	.word	0x204004a8
  401b20:	20414ea8 	.word	0x20414ea8
  401b24:	204298a8 	.word	0x204298a8

00401b28 <imagingSensorItInit>:
void imagingSensorItInit() {
	//PIOA->PIO_PCIER = PIO_PCISR_DRDY; //Enable Data Ready Interrupt
	//PIOA->PIO_PCIDR |= (PIO_PCIDR_RXBUFF)|(PIO_PCIDR_ENDRX)|(PIO_PCIDR_OVRE); //Makes sure other interrupts are disabled

	//PIOA->PIO_PCIER = (PIO_PCIDR_OVRE); //Enable Data Ready Interrupt
	PIOA->PIO_PCIDR |= (PIO_PCIDR_DRDY)|(PIO_PCIDR_RXBUFF)|(PIO_PCIDR_ENDRX)|(PIO_PCIDR_OVRE); //Makes sure other interrupts are disabled
  401b28:	4a03      	ldr	r2, [pc, #12]	; (401b38 <imagingSensorItInit+0x10>)
  401b2a:	f8d2 3158 	ldr.w	r3, [r2, #344]	; 0x158
  401b2e:	f043 030f 	orr.w	r3, r3, #15
  401b32:	f8c2 3158 	str.w	r3, [r2, #344]	; 0x158
  401b36:	4770      	bx	lr
  401b38:	400e0e00 	.word	0x400e0e00

00401b3c <imageSensorVSyncItInit>:
}

void imageSensorVSyncItInit() {
	PIOA->PIO_PER		|= VSYNC_MASK; //PIO Enable. Takes control away from peripheral (is this OK?)
  401b3c:	4b12      	ldr	r3, [pc, #72]	; (401b88 <imageSensorVSyncItInit+0x4c>)
  401b3e:	681a      	ldr	r2, [r3, #0]
  401b40:	f442 4280 	orr.w	r2, r2, #16384	; 0x4000
  401b44:	601a      	str	r2, [r3, #0]
	PIOA->PIO_ODR		|= VSYNC_MASK; //Disables output on this pin.
  401b46:	695a      	ldr	r2, [r3, #20]
  401b48:	f442 4280 	orr.w	r2, r2, #16384	; 0x4000
  401b4c:	615a      	str	r2, [r3, #20]
	PIOA->PIO_PPDER		|= VSYNC_MASK; //Enables pulldown resistor
  401b4e:	f8d3 2094 	ldr.w	r2, [r3, #148]	; 0x94
  401b52:	f442 4280 	orr.w	r2, r2, #16384	; 0x4000
  401b56:	f8c3 2094 	str.w	r2, [r3, #148]	; 0x94
	
	PIOA->PIO_IER		|= VSYNC_MASK; //Enables the input change interrupt
  401b5a:	6c1a      	ldr	r2, [r3, #64]	; 0x40
  401b5c:	f442 4280 	orr.w	r2, r2, #16384	; 0x4000
  401b60:	641a      	str	r2, [r3, #64]	; 0x40
	PIOA->PIO_AIMER		|= VSYNC_MASK; //Enables additional Interrupt modes
  401b62:	f8d3 20b0 	ldr.w	r2, [r3, #176]	; 0xb0
  401b66:	f442 4280 	orr.w	r2, r2, #16384	; 0x4000
  401b6a:	f8c3 20b0 	str.w	r2, [r3, #176]	; 0xb0
	PIOA->PIO_ESR		|= VSYNC_MASK; //Enables edge detect. (Edge detect is on by default)
  401b6e:	f8d3 20c0 	ldr.w	r2, [r3, #192]	; 0xc0
  401b72:	f442 4280 	orr.w	r2, r2, #16384	; 0x4000
  401b76:	f8c3 20c0 	str.w	r2, [r3, #192]	; 0xc0
	PIOA->PIO_FELLSR	|= VSYNC_MASK; //Edge detect is for falling edge (Falling edge is on by default)
  401b7a:	f8d3 20d0 	ldr.w	r2, [r3, #208]	; 0xd0
  401b7e:	f442 4280 	orr.w	r2, r2, #16384	; 0x4000
  401b82:	f8c3 20d0 	str.w	r2, [r3, #208]	; 0xd0
  401b86:	4770      	bx	lr
  401b88:	400e0e00 	.word	0x400e0e00

00401b8c <imageSensorHSyncItInit>:
	//		printf("VSync is set as input");
	
}

void imageSensorHSyncItInit() {
	PIOA->PIO_PER		|= HSYNC_MASK; //PIO Enable. Takes control away from peripheral (is this OK?)
  401b8c:	4b12      	ldr	r3, [pc, #72]	; (401bd8 <imageSensorHSyncItInit+0x4c>)
  401b8e:	681a      	ldr	r2, [r3, #0]
  401b90:	f442 1200 	orr.w	r2, r2, #2097152	; 0x200000
  401b94:	601a      	str	r2, [r3, #0]
	PIOA->PIO_ODR		|= HSYNC_MASK; //Disables output on this pin.
  401b96:	695a      	ldr	r2, [r3, #20]
  401b98:	f442 1200 	orr.w	r2, r2, #2097152	; 0x200000
  401b9c:	615a      	str	r2, [r3, #20]
	PIOA->PIO_PPDER		|= HSYNC_MASK; //Enables pulldown resistor
  401b9e:	f8d3 2094 	ldr.w	r2, [r3, #148]	; 0x94
  401ba2:	f442 1200 	orr.w	r2, r2, #2097152	; 0x200000
  401ba6:	f8c3 2094 	str.w	r2, [r3, #148]	; 0x94
	
	PIOA->PIO_IER		|= HSYNC_MASK; //Enables the input change interrupt
  401baa:	6c1a      	ldr	r2, [r3, #64]	; 0x40
  401bac:	f442 1200 	orr.w	r2, r2, #2097152	; 0x200000
  401bb0:	641a      	str	r2, [r3, #64]	; 0x40
	PIOA->PIO_AIMER		|= HSYNC_MASK; //Enables additional Interrupt modes
  401bb2:	f8d3 20b0 	ldr.w	r2, [r3, #176]	; 0xb0
  401bb6:	f442 1200 	orr.w	r2, r2, #2097152	; 0x200000
  401bba:	f8c3 20b0 	str.w	r2, [r3, #176]	; 0xb0
	PIOA->PIO_ESR		|= HSYNC_MASK; //Enables edge detect. (Edge detect is on by default)
  401bbe:	f8d3 20c0 	ldr.w	r2, [r3, #192]	; 0xc0
  401bc2:	f442 1200 	orr.w	r2, r2, #2097152	; 0x200000
  401bc6:	f8c3 20c0 	str.w	r2, [r3, #192]	; 0xc0
	PIOA->PIO_FELLSR	|= HSYNC_MASK; //Edge detect is for falling edge (Falling edge is on by default)
  401bca:	f8d3 20d0 	ldr.w	r2, [r3, #208]	; 0xd0
  401bce:	f442 1200 	orr.w	r2, r2, #2097152	; 0x200000
  401bd2:	f8c3 20d0 	str.w	r2, [r3, #208]	; 0xd0
  401bd6:	4770      	bx	lr
  401bd8:	400e0e00 	.word	0x400e0e00

00401bdc <imagingSensorLoadHeader>:
	
	
}
void imagingSensorLoadHeader(){
  401bdc:	b500      	push	{lr}
  401bde:	f5ad 7d01 	sub.w	sp, sp, #516	; 0x204
	uint8_t headerTemp[SDMMC_BLOCK_SIZE] = {0};
  401be2:	f44f 7200 	mov.w	r2, #512	; 0x200
  401be6:	2100      	movs	r1, #0
  401be8:	4668      	mov	r0, sp
  401bea:	4b0e      	ldr	r3, [pc, #56]	; (401c24 <imagingSensorLoadHeader+0x48>)
  401bec:	4798      	blx	r3
	uint32_t *header = (uint32_t *)headerTemp;

	uint32_t writeKey[4] = {0};
	sd_mmc_init_read_blocks(SD_SLOT_NB,HEADER_SECTOR,1);
  401bee:	2201      	movs	r2, #1
  401bf0:	f240 31ff 	movw	r1, #1023	; 0x3ff
  401bf4:	2000      	movs	r0, #0
  401bf6:	4b0c      	ldr	r3, [pc, #48]	; (401c28 <imagingSensorLoadHeader+0x4c>)
  401bf8:	4798      	blx	r3
	sd_mmc_start_read_blocks(headerTemp,1);
  401bfa:	2101      	movs	r1, #1
  401bfc:	4668      	mov	r0, sp
  401bfe:	4b0b      	ldr	r3, [pc, #44]	; (401c2c <imagingSensorLoadHeader+0x50>)
  401c00:	4798      	blx	r3
	sd_mmc_wait_end_of_read_blocks(false);
  401c02:	2000      	movs	r0, #0
  401c04:	4b0a      	ldr	r3, [pc, #40]	; (401c30 <imagingSensorLoadHeader+0x54>)
  401c06:	4798      	blx	r3

	gain				= header[HEADER_GAIN_POS];
  401c08:	9a04      	ldr	r2, [sp, #16]
  401c0a:	4b0a      	ldr	r3, [pc, #40]	; (401c34 <imagingSensorLoadHeader+0x58>)
  401c0c:	601a      	str	r2, [r3, #0]
	//ledValue			= ((100- header[HEADER_LED_POS])*0x0FFF)/100; //header should be between 0 and 100; Used for DAC
	ledValue			= header[HEADER_LED_POS]; //header should be between 0 and 255;
  401c0e:	9a05      	ldr	r2, [sp, #20]
  401c10:	4b09      	ldr	r3, [pc, #36]	; (401c38 <imagingSensorLoadHeader+0x5c>)
  401c12:	601a      	str	r2, [r3, #0]
	numFramesToRecord	= header[HEADER_NUM_FRAMES_POS];
  401c14:	9a06      	ldr	r2, [sp, #24]
  401c16:	4b09      	ldr	r3, [pc, #36]	; (401c3c <imagingSensorLoadHeader+0x60>)
  401c18:	601a      	str	r2, [r3, #0]


}
  401c1a:	f50d 7d01 	add.w	sp, sp, #516	; 0x204
  401c1e:	f85d fb04 	ldr.w	pc, [sp], #4
  401c22:	bf00      	nop
  401c24:	004023c1 	.word	0x004023c1
  401c28:	00400941 	.word	0x00400941
  401c2c:	00400a15 	.word	0x00400a15
  401c30:	00400a3d 	.word	0x00400a3d
  401c34:	20400010 	.word	0x20400010
  401c38:	2043e2a8 	.word	0x2043e2a8
  401c3c:	2043e2b0 	.word	0x2043e2b0

00401c40 <imagingSensorCaptureEnable>:
void imagingSensorCaptureEnable() {
	PIOA->PIO_PCMR |= PIO_PCMR_PCEN ;
  401c40:	4a03      	ldr	r2, [pc, #12]	; (401c50 <imagingSensorCaptureEnable+0x10>)
  401c42:	f8d2 3150 	ldr.w	r3, [r2, #336]	; 0x150
  401c46:	f043 0301 	orr.w	r3, r3, #1
  401c4a:	f8c2 3150 	str.w	r3, [r2, #336]	; 0x150
  401c4e:	4770      	bx	lr
  401c50:	400e0e00 	.word	0x400e0e00

00401c54 <imagingSensorCaptureDisable>:
	
}

void imagingSensorCaptureDisable() {
	PIOA->PIO_PCMR &= (uint32_t)(~PIO_PCMR_PCEN) ;
  401c54:	4a03      	ldr	r2, [pc, #12]	; (401c64 <imagingSensorCaptureDisable+0x10>)
  401c56:	f8d2 3150 	ldr.w	r3, [r2, #336]	; 0x150
  401c5a:	f023 0301 	bic.w	r3, r3, #1
  401c5e:	f8c2 3150 	str.w	r3, [r2, #336]	; 0x150
  401c62:	4770      	bx	lr
  401c64:	400e0e00 	.word	0x400e0e00

00401c68 <imagingSensorSetup>:
void imagingSensorSetup() {
  401c68:	b508      	push	{r3, lr}
	imagingSensorCaptureDisable();//makes sure PIo Capture is disabled
  401c6a:	4b0f      	ldr	r3, [pc, #60]	; (401ca8 <imagingSensorSetup+0x40>)
  401c6c:	4798      	blx	r3
	pmc_enable_periph_clk( ID_PIOA ); //Sets PIO clock
  401c6e:	200a      	movs	r0, #10
  401c70:	4b0e      	ldr	r3, [pc, #56]	; (401cac <imagingSensorSetup+0x44>)
  401c72:	4798      	blx	r3
  NVIC->ICPR[((uint32_t)(IRQn) >> 5)] = (1 << ((uint32_t)(IRQn) & 0x1F)); /* Clear pending interrupt */
  401c74:	4b0e      	ldr	r3, [pc, #56]	; (401cb0 <imagingSensorSetup+0x48>)
  401c76:	f44f 6280 	mov.w	r2, #1024	; 0x400
  401c7a:	f8c3 2180 	str.w	r2, [r3, #384]	; 0x180
    NVIC->IP[(uint32_t)(IRQn)]            = ((priority << (8 - __NVIC_PRIO_BITS)) & 0xff); } /* set Priority for device specific Interrupts  */
  401c7e:	2140      	movs	r1, #64	; 0x40
  401c80:	f883 130a 	strb.w	r1, [r3, #778]	; 0x30a
  NVIC->ISER[(uint32_t)((int32_t)IRQn) >> 5] = (uint32_t)(1 << ((uint32_t)((int32_t)IRQn) & (uint32_t)0x1F)); /* enable interrupt */
  401c84:	601a      	str	r2, [r3, #0]
	imagingSensorItInit(); //Sets up interrupts //Might need to change interrupts for DMA transfer
  401c86:	4b0b      	ldr	r3, [pc, #44]	; (401cb4 <imagingSensorSetup+0x4c>)
  401c88:	4798      	blx	r3
	imagingSensorDMAInit();
  401c8a:	4b0b      	ldr	r3, [pc, #44]	; (401cb8 <imagingSensorSetup+0x50>)
  401c8c:	4798      	blx	r3
	imagingSensorParamInit(); //Configures PIO Capture settings
  401c8e:	4b0b      	ldr	r3, [pc, #44]	; (401cbc <imagingSensorSetup+0x54>)
  401c90:	4798      	blx	r3
	imageSensorVSyncItInit();//Sets up VSync interrupt to detect end of frame
  401c92:	4b0b      	ldr	r3, [pc, #44]	; (401cc0 <imagingSensorSetup+0x58>)
  401c94:	4798      	blx	r3
	imageSensorHSyncItInit();
  401c96:	4b0b      	ldr	r3, [pc, #44]	; (401cc4 <imagingSensorSetup+0x5c>)
  401c98:	4798      	blx	r3
	packetCMOS.chip = IMAGING_SENSOR_ADR;
  401c9a:	4b0b      	ldr	r3, [pc, #44]	; (401cc8 <imagingSensorSetup+0x60>)
  401c9c:	2200      	movs	r2, #0
  401c9e:	741a      	strb	r2, [r3, #16]
	packetCMOS.addr_length = 1;
  401ca0:	2201      	movs	r2, #1
  401ca2:	605a      	str	r2, [r3, #4]
  401ca4:	bd08      	pop	{r3, pc}
  401ca6:	bf00      	nop
  401ca8:	00401c55 	.word	0x00401c55
  401cac:	004014e5 	.word	0x004014e5
  401cb0:	e000e100 	.word	0xe000e100
  401cb4:	00401b29 	.word	0x00401b29
  401cb8:	00401a55 	.word	0x00401a55
  401cbc:	00401a41 	.word	0x00401a41
  401cc0:	00401b3d 	.word	0x00401b3d
  401cc4:	00401b8d 	.word	0x00401b8d
  401cc8:	2043e308 	.word	0x2043e308

00401ccc <checkVSync>:
}

void checkVSync() {
  401ccc:	b508      	push	{r3, lr}
	if (pcISR & VSYNC_MASK) { //VSync signal is detected. End of frame capture
  401cce:	4b3b      	ldr	r3, [pc, #236]	; (401dbc <checkVSync+0xf0>)
  401cd0:	681b      	ldr	r3, [r3, #0]
  401cd2:	f413 4f80 	tst.w	r3, #16384	; 0x4000
  401cd6:	d009      	beq.n	401cec <checkVSync+0x20>
		
		//frameNumber++;
		//if (frameNumber%10==1)
		//	ioport_toggle_pin_level(PIO_PD1_IDX);

		if (captureEnabled && startRecording) {
  401cd8:	4b39      	ldr	r3, [pc, #228]	; (401dc0 <checkVSync+0xf4>)
  401cda:	781b      	ldrb	r3, [r3, #0]
  401cdc:	b113      	cbz	r3, 401ce4 <checkVSync+0x18>
  401cde:	4b39      	ldr	r3, [pc, #228]	; (401dc4 <checkVSync+0xf8>)
  401ce0:	781b      	ldrb	r3, [r3, #0]
  401ce2:	b923      	cbnz	r3, 401cee <checkVSync+0x22>

			#endif
			//testPoint = 1;
			//------------------------------------------------
		}
		else if(startRecording) { //waits for the first VSync to start capture. This makes sure we capture a full first frame
  401ce4:	4b37      	ldr	r3, [pc, #220]	; (401dc4 <checkVSync+0xf8>)
  401ce6:	781b      	ldrb	r3, [r3, #0]
  401ce8:	2b00      	cmp	r3, #0
  401cea:	d15a      	bne.n	401da2 <checkVSync+0xd6>
  401cec:	bd08      	pop	{r3, pc}
			captureEnabled = 0;
  401cee:	2300      	movs	r3, #0
  401cf0:	4a33      	ldr	r2, [pc, #204]	; (401dc0 <checkVSync+0xf4>)
  401cf2:	7013      	strb	r3, [r2, #0]
			startRecording = 0;
  401cf4:	4a33      	ldr	r2, [pc, #204]	; (401dc4 <checkVSync+0xf8>)
  401cf6:	7013      	strb	r3, [r2, #0]
			imagingSensorCaptureDisable();
  401cf8:	4b33      	ldr	r3, [pc, #204]	; (401dc8 <checkVSync+0xfc>)
  401cfa:	4798      	blx	r3
			switch (frameNumber%3)
  401cfc:	4b33      	ldr	r3, [pc, #204]	; (401dcc <checkVSync+0x100>)
  401cfe:	681a      	ldr	r2, [r3, #0]
  401d00:	4b33      	ldr	r3, [pc, #204]	; (401dd0 <checkVSync+0x104>)
  401d02:	fba3 1302 	umull	r1, r3, r3, r2
  401d06:	085b      	lsrs	r3, r3, #1
  401d08:	eb03 0343 	add.w	r3, r3, r3, lsl #1
  401d0c:	1ad3      	subs	r3, r2, r3
  401d0e:	2b01      	cmp	r3, #1
  401d10:	d02b      	beq.n	401d6a <checkVSync+0x9e>
  401d12:	b1e3      	cbz	r3, 401d4e <checkVSync+0x82>
  401d14:	2b02      	cmp	r3, #2
  401d16:	d036      	beq.n	401d86 <checkVSync+0xba>
			lineCount = 0;
  401d18:	2300      	movs	r3, #0
  401d1a:	4a2e      	ldr	r2, [pc, #184]	; (401dd4 <checkVSync+0x108>)
  401d1c:	6013      	str	r3, [r2, #0]
			frameNumber++;
  401d1e:	4a2b      	ldr	r2, [pc, #172]	; (401dcc <checkVSync+0x100>)
  401d20:	6811      	ldr	r1, [r2, #0]
  401d22:	3101      	adds	r1, #1
  401d24:	6011      	str	r1, [r2, #0]
			overflowCount = 0;
  401d26:	492c      	ldr	r1, [pc, #176]	; (401dd8 <checkVSync+0x10c>)
  401d28:	600b      	str	r3, [r1, #0]
			xferDMAComplete = 0;
  401d2a:	492c      	ldr	r1, [pc, #176]	; (401ddc <checkVSync+0x110>)
  401d2c:	600b      	str	r3, [r1, #0]
			if (frameNumber<=sdImageWriteFrameNum +2) {
  401d2e:	4b2c      	ldr	r3, [pc, #176]	; (401de0 <checkVSync+0x114>)
  401d30:	681b      	ldr	r3, [r3, #0]
  401d32:	6812      	ldr	r2, [r2, #0]
  401d34:	3302      	adds	r3, #2
  401d36:	4293      	cmp	r3, r2
  401d38:	d3d8      	bcc.n	401cec <checkVSync+0x20>
				startRecording = 1;
  401d3a:	2301      	movs	r3, #1
  401d3c:	4a21      	ldr	r2, [pc, #132]	; (401dc4 <checkVSync+0xf8>)
  401d3e:	7013      	strb	r3, [r2, #0]
				captureEnabled = 1;
  401d40:	4a1f      	ldr	r2, [pc, #124]	; (401dc0 <checkVSync+0xf4>)
  401d42:	7013      	strb	r3, [r2, #0]
				imagingSensorStartDMA();
  401d44:	4b27      	ldr	r3, [pc, #156]	; (401de4 <checkVSync+0x118>)
  401d46:	4798      	blx	r3
				imagingSensorCaptureEnable();
  401d48:	4b27      	ldr	r3, [pc, #156]	; (401de8 <checkVSync+0x11c>)
  401d4a:	4798      	blx	r3
  401d4c:	bd08      	pop	{r3, pc}
				imageBuffer0[buffSize-1] = frameNumber;
  401d4e:	4b1f      	ldr	r3, [pc, #124]	; (401dcc <checkVSync+0x100>)
  401d50:	6819      	ldr	r1, [r3, #0]
  401d52:	4b26      	ldr	r3, [pc, #152]	; (401dec <checkVSync+0x120>)
  401d54:	4a26      	ldr	r2, [pc, #152]	; (401df0 <checkVSync+0x124>)
  401d56:	5099      	str	r1, [r3, r2]
				imageBuffer0[buffSize-3] = lineCount;
  401d58:	4a1e      	ldr	r2, [pc, #120]	; (401dd4 <checkVSync+0x108>)
  401d5a:	6811      	ldr	r1, [r2, #0]
  401d5c:	4a25      	ldr	r2, [pc, #148]	; (401df4 <checkVSync+0x128>)
  401d5e:	5099      	str	r1, [r3, r2]
				imageBuffer0[buffSize-4] = xferDMAComplete; //Overflow flag
  401d60:	4a1e      	ldr	r2, [pc, #120]	; (401ddc <checkVSync+0x110>)
  401d62:	6811      	ldr	r1, [r2, #0]
  401d64:	4a24      	ldr	r2, [pc, #144]	; (401df8 <checkVSync+0x12c>)
  401d66:	5099      	str	r1, [r3, r2]
				break;
  401d68:	e7d6      	b.n	401d18 <checkVSync+0x4c>
				imageBuffer1[buffSize-1] = frameNumber;
  401d6a:	4b18      	ldr	r3, [pc, #96]	; (401dcc <checkVSync+0x100>)
  401d6c:	6819      	ldr	r1, [r3, #0]
  401d6e:	4b23      	ldr	r3, [pc, #140]	; (401dfc <checkVSync+0x130>)
  401d70:	4a1f      	ldr	r2, [pc, #124]	; (401df0 <checkVSync+0x124>)
  401d72:	5099      	str	r1, [r3, r2]
				imageBuffer1[buffSize-3] = lineCount;
  401d74:	4a17      	ldr	r2, [pc, #92]	; (401dd4 <checkVSync+0x108>)
  401d76:	6811      	ldr	r1, [r2, #0]
  401d78:	4a1e      	ldr	r2, [pc, #120]	; (401df4 <checkVSync+0x128>)
  401d7a:	5099      	str	r1, [r3, r2]
				imageBuffer1[buffSize-4] = xferDMAComplete; //Overflow flag
  401d7c:	4a17      	ldr	r2, [pc, #92]	; (401ddc <checkVSync+0x110>)
  401d7e:	6811      	ldr	r1, [r2, #0]
  401d80:	4a1d      	ldr	r2, [pc, #116]	; (401df8 <checkVSync+0x12c>)
  401d82:	5099      	str	r1, [r3, r2]
				break;
  401d84:	e7c8      	b.n	401d18 <checkVSync+0x4c>
				imageBuffer2[buffSize-1] = frameNumber;
  401d86:	4b11      	ldr	r3, [pc, #68]	; (401dcc <checkVSync+0x100>)
  401d88:	6819      	ldr	r1, [r3, #0]
  401d8a:	4b1d      	ldr	r3, [pc, #116]	; (401e00 <checkVSync+0x134>)
  401d8c:	4a18      	ldr	r2, [pc, #96]	; (401df0 <checkVSync+0x124>)
  401d8e:	5099      	str	r1, [r3, r2]
				imageBuffer2[buffSize-3] = lineCount;
  401d90:	4a10      	ldr	r2, [pc, #64]	; (401dd4 <checkVSync+0x108>)
  401d92:	6811      	ldr	r1, [r2, #0]
  401d94:	4a17      	ldr	r2, [pc, #92]	; (401df4 <checkVSync+0x128>)
  401d96:	5099      	str	r1, [r3, r2]
				imageBuffer2[buffSize-4] = xferDMAComplete; //Overflow flag
  401d98:	4a10      	ldr	r2, [pc, #64]	; (401ddc <checkVSync+0x110>)
  401d9a:	6811      	ldr	r1, [r2, #0]
  401d9c:	4a16      	ldr	r2, [pc, #88]	; (401df8 <checkVSync+0x12c>)
  401d9e:	5099      	str	r1, [r3, r2]
				break;
  401da0:	e7ba      	b.n	401d18 <checkVSync+0x4c>
			captureEnabled = 1;
  401da2:	2201      	movs	r2, #1
  401da4:	4b06      	ldr	r3, [pc, #24]	; (401dc0 <checkVSync+0xf4>)
  401da6:	701a      	strb	r2, [r3, #0]
			
			//frameNumber = 0;
			lineCount = 0;
  401da8:	2300      	movs	r3, #0
  401daa:	4a0a      	ldr	r2, [pc, #40]	; (401dd4 <checkVSync+0x108>)
  401dac:	6013      	str	r3, [r2, #0]
			overflowCount = 0;
  401dae:	4a0a      	ldr	r2, [pc, #40]	; (401dd8 <checkVSync+0x10c>)
  401db0:	6013      	str	r3, [r2, #0]
			imagingSensorStartDMA();
  401db2:	4b0c      	ldr	r3, [pc, #48]	; (401de4 <checkVSync+0x118>)
  401db4:	4798      	blx	r3
			imagingSensorCaptureEnable();
  401db6:	4b0c      	ldr	r3, [pc, #48]	; (401de8 <checkVSync+0x11c>)
  401db8:	4798      	blx	r3

		//Need to add an overflow check.
		//Added a check to make sure pixelWordCount == NUM_PIXEL/4
		//Consider adding HSync to label each row in case missing pixels is an issue
	}
}
  401dba:	e797      	b.n	401cec <checkVSync+0x20>
  401dbc:	2043e2b8 	.word	0x2043e2b8
  401dc0:	2040049c 	.word	0x2040049c
  401dc4:	2043e2c0 	.word	0x2043e2c0
  401dc8:	00401c55 	.word	0x00401c55
  401dcc:	204004a0 	.word	0x204004a0
  401dd0:	aaaaaaab 	.word	0xaaaaaaab
  401dd4:	2043e2ac 	.word	0x2043e2ac
  401dd8:	2043e2b4 	.word	0x2043e2b4
  401ddc:	2043e2c8 	.word	0x2043e2c8
  401de0:	2043e2bc 	.word	0x2043e2bc
  401de4:	00401a79 	.word	0x00401a79
  401de8:	00401c41 	.word	0x00401c41
  401dec:	204004a8 	.word	0x204004a8
  401df0:	000149fc 	.word	0x000149fc
  401df4:	000149f4 	.word	0x000149f4
  401df8:	000149f0 	.word	0x000149f0
  401dfc:	20414ea8 	.word	0x20414ea8
  401e00:	204298a8 	.word	0x204298a8

00401e04 <PIOA_Handler>:
void PIOA_Handler(void) {
  401e04:	b508      	push	{r3, lr}
	pcISR = PIOA->PIO_ISR;
  401e06:	4b0a      	ldr	r3, [pc, #40]	; (401e30 <PIOA_Handler+0x2c>)
  401e08:	6cda      	ldr	r2, [r3, #76]	; 0x4c
  401e0a:	4b0a      	ldr	r3, [pc, #40]	; (401e34 <PIOA_Handler+0x30>)
  401e0c:	601a      	str	r2, [r3, #0]
	if (pcISR & HSYNC_MASK) {
  401e0e:	681b      	ldr	r3, [r3, #0]
  401e10:	f413 1f00 	tst.w	r3, #2097152	; 0x200000
  401e14:	d004      	beq.n	401e20 <PIOA_Handler+0x1c>
		if (captureEnabled == 1)
  401e16:	4b08      	ldr	r3, [pc, #32]	; (401e38 <PIOA_Handler+0x34>)
  401e18:	781b      	ldrb	r3, [r3, #0]
  401e1a:	b2db      	uxtb	r3, r3
  401e1c:	2b01      	cmp	r3, #1
  401e1e:	d002      	beq.n	401e26 <PIOA_Handler+0x22>
			lineCount++;
	}
	checkVSync();
  401e20:	4b06      	ldr	r3, [pc, #24]	; (401e3c <PIOA_Handler+0x38>)
  401e22:	4798      	blx	r3
  401e24:	bd08      	pop	{r3, pc}
			lineCount++;
  401e26:	4a06      	ldr	r2, [pc, #24]	; (401e40 <PIOA_Handler+0x3c>)
  401e28:	6813      	ldr	r3, [r2, #0]
  401e2a:	3301      	adds	r3, #1
  401e2c:	6013      	str	r3, [r2, #0]
  401e2e:	e7f7      	b.n	401e20 <PIOA_Handler+0x1c>
  401e30:	400e0e00 	.word	0x400e0e00
  401e34:	2043e2b8 	.word	0x2043e2b8
  401e38:	2040049c 	.word	0x2040049c
  401e3c:	00401ccd 	.word	0x00401ccd
  401e40:	2043e2ac 	.word	0x2043e2ac

00401e44 <XDMAC_Handler>:

void XDMAC_Handler(void)
{
	uint32_t dma_status;

	dma_status = XDMAC->XDMAC_CHID[IMAGING_SENSOR_XDMAC_CH].XDMAC_CIS;
  401e44:	4b04      	ldr	r3, [pc, #16]	; (401e58 <XDMAC_Handler+0x14>)
  401e46:	f8d3 309c 	ldr.w	r3, [r3, #156]	; 0x9c

	if (dma_status & XDMAC_CIS_BIS) {
  401e4a:	f013 0f01 	tst.w	r3, #1
  401e4e:	d002      	beq.n	401e56 <XDMAC_Handler+0x12>
		xferDMAComplete = 1;
  401e50:	2201      	movs	r2, #1
  401e52:	4b02      	ldr	r3, [pc, #8]	; (401e5c <XDMAC_Handler+0x18>)
  401e54:	601a      	str	r2, [r3, #0]
  401e56:	4770      	bx	lr
  401e58:	40078000 	.word	0x40078000
  401e5c:	2043e2c8 	.word	0x2043e2c8

00401e60 <PWM_Init>:
volatile uint32_t test[128];

//Holds PWM channel information
pwm_channel_t g_pwm_channel_led;

void PWM_Init() {
  401e60:	b570      	push	{r4, r5, r6, lr}
  401e62:	b084      	sub	sp, #16
	pmc_enable_periph_clk(ID_PWM0);
  401e64:	201f      	movs	r0, #31
  401e66:	4b20      	ldr	r3, [pc, #128]	; (401ee8 <PWM_Init+0x88>)
  401e68:	4798      	blx	r3

	matrix_set_system_io(matrix_get_system_io() | CCFG_SYSIO_SYSIO12);
  401e6a:	4b20      	ldr	r3, [pc, #128]	; (401eec <PWM_Init+0x8c>)
  401e6c:	4798      	blx	r3
  401e6e:	f440 5080 	orr.w	r0, r0, #4096	; 0x1000
  401e72:	4b1f      	ldr	r3, [pc, #124]	; (401ef0 <PWM_Init+0x90>)
  401e74:	4798      	blx	r3
		base->PIO_PUDR = mask;
  401e76:	4b1f      	ldr	r3, [pc, #124]	; (401ef4 <PWM_Init+0x94>)
  401e78:	2401      	movs	r4, #1
  401e7a:	661c      	str	r4, [r3, #96]	; 0x60
		base->PIO_PPDDR = mask;
  401e7c:	f8c3 4090 	str.w	r4, [r3, #144]	; 0x90
		base->PIO_MDDR = mask;
  401e80:	655c      	str	r4, [r3, #84]	; 0x54
		base->PIO_IFDR = mask;
  401e82:	625c      	str	r4, [r3, #36]	; 0x24
		base->PIO_IFSCDR = mask;
  401e84:	f8c3 4080 	str.w	r4, [r3, #128]	; 0x80
		base->PIO_ABCDSR[0] &= ~mask;
  401e88:	6f1a      	ldr	r2, [r3, #112]	; 0x70
  401e8a:	f022 0201 	bic.w	r2, r2, #1
  401e8e:	671a      	str	r2, [r3, #112]	; 0x70
		base->PIO_ABCDSR[1] &= ~mask;
  401e90:	6f5a      	ldr	r2, [r3, #116]	; 0x74
  401e92:	f022 0201 	bic.w	r2, r2, #1
  401e96:	675a      	str	r2, [r3, #116]	; 0x74
	arch_ioport_port_to_base(port)->PIO_PDR = mask;
  401e98:	605c      	str	r4, [r3, #4]
	ioport_set_pin_mode(PWM_LED_PIN,PWM_LED_MODE); //Sets GPIO PIN to PWM Peripheral
	ioport_disable_pin(PWM_LED_PIN);

	pwm_channel_disable(PWM0, PWM_LED_CHANNEL);
  401e9a:	4e17      	ldr	r6, [pc, #92]	; (401ef8 <PWM_Init+0x98>)
  401e9c:	2100      	movs	r1, #0
  401e9e:	4630      	mov	r0, r6
  401ea0:	4b16      	ldr	r3, [pc, #88]	; (401efc <PWM_Init+0x9c>)
  401ea2:	4798      	blx	r3
	
	pwm_clock_t clock_setting = {
  401ea4:	4b16      	ldr	r3, [pc, #88]	; (401f00 <PWM_Init+0xa0>)
  401ea6:	9301      	str	r3, [sp, #4]
  401ea8:	2500      	movs	r5, #0
  401eaa:	9502      	str	r5, [sp, #8]
  401eac:	4b15      	ldr	r3, [pc, #84]	; (401f04 <PWM_Init+0xa4>)
  401eae:	9303      	str	r3, [sp, #12]
		.ul_clka = PWM_FREQUENCY * PWM_PERIOD_VALUE,
		.ul_clkb = 0,
		.ul_mck = sysclk_get_cpu_hz()/2 //Might need or not need to divide by 2 to get the correct clock
	};

	pwm_init(PWM0, &clock_setting);
  401eb0:	a901      	add	r1, sp, #4
  401eb2:	4630      	mov	r0, r6
  401eb4:	4b14      	ldr	r3, [pc, #80]	; (401f08 <PWM_Init+0xa8>)
  401eb6:	4798      	blx	r3

	/* Initialize PWM channel for LED0 */
	/* Period is left-aligned */
	g_pwm_channel_led.alignment = PWM_ALIGN_LEFT;
  401eb8:	4914      	ldr	r1, [pc, #80]	; (401f0c <PWM_Init+0xac>)
  401eba:	810d      	strh	r5, [r1, #8]
	/* Output waveform starts at a high level */
	g_pwm_channel_led.polarity = PWM_HIGH;
  401ebc:	728c      	strb	r4, [r1, #10]
	/* Use PWM clock A as source clock */
	g_pwm_channel_led.ul_prescaler = PWM_CMR_CPRE_CLKA;
  401ebe:	230b      	movs	r3, #11
  401ec0:	604b      	str	r3, [r1, #4]
	/* Period value of output waveform */
	g_pwm_channel_led.ul_period = PWM_PERIOD_VALUE;
  401ec2:	23ff      	movs	r3, #255	; 0xff
  401ec4:	610b      	str	r3, [r1, #16]
	/* Duty cycle value of output waveform */
	g_pwm_channel_led.ul_duty = INIT_DUTY_VALUE;
  401ec6:	2305      	movs	r3, #5
  401ec8:	60cb      	str	r3, [r1, #12]
	g_pwm_channel_led.channel = PWM_LED_CHANNEL;
  401eca:	600d      	str	r5, [r1, #0]
	pwm_channel_init(PWM0, &g_pwm_channel_led);
  401ecc:	4630      	mov	r0, r6
  401ece:	4b10      	ldr	r3, [pc, #64]	; (401f10 <PWM_Init+0xb0>)
  401ed0:	4798      	blx	r3

	/* Disable channel counter event interrupt */
	pwm_channel_disable_interrupt(PWM0, PWM_LED_CHANNEL, 0);
  401ed2:	462a      	mov	r2, r5
  401ed4:	4629      	mov	r1, r5
  401ed6:	4630      	mov	r0, r6
  401ed8:	4b0e      	ldr	r3, [pc, #56]	; (401f14 <PWM_Init+0xb4>)
  401eda:	4798      	blx	r3
	//Enable PWM output
	pwm_channel_enable(PWM0,PWM_LED_CHANNEL);
  401edc:	4629      	mov	r1, r5
  401ede:	4630      	mov	r0, r6
  401ee0:	4b0d      	ldr	r3, [pc, #52]	; (401f18 <PWM_Init+0xb8>)
  401ee2:	4798      	blx	r3
	
}
  401ee4:	b004      	add	sp, #16
  401ee6:	bd70      	pop	{r4, r5, r6, pc}
  401ee8:	004014e5 	.word	0x004014e5
  401eec:	004010a5 	.word	0x004010a5
  401ef0:	00401081 	.word	0x00401081
  401ef4:	400e0e00 	.word	0x400e0e00
  401ef8:	40020000 	.word	0x40020000
  401efc:	004012dd 	.word	0x004012dd
  401f00:	0003e418 	.word	0x0003e418
  401f04:	044aa200 	.word	0x044aa200
  401f08:	00401109 	.word	0x00401109
  401f0c:	2043e2cc 	.word	0x2043e2cc
  401f10:	0040114d 	.word	0x0040114d
  401f14:	004012e7 	.word	0x004012e7
  401f18:	004012d3 	.word	0x004012d3

00401f1c <SPI_BitBag_init>:

	twihs_master_init(TWIHS1,&twihsOpt);
	//twihs_enable_master_mode(TWIHS1);
}

void SPI_BitBag_init() {
  401f1c:	b508      	push	{r3, lr}
	pmc_enable_periph_clk(ID_PIOB);
  401f1e:	200b      	movs	r0, #11
  401f20:	4b09      	ldr	r3, [pc, #36]	; (401f48 <SPI_BitBag_init+0x2c>)
  401f22:	4798      	blx	r3
	matrix_set_system_io(matrix_get_system_io() | CCFG_SYSIO_SYSIO4 | CCFG_SYSIO_SYSIO5);
  401f24:	4b09      	ldr	r3, [pc, #36]	; (401f4c <SPI_BitBag_init+0x30>)
  401f26:	4798      	blx	r3
  401f28:	f040 0030 	orr.w	r0, r0, #48	; 0x30
  401f2c:	4b08      	ldr	r3, [pc, #32]	; (401f50 <SPI_BitBag_init+0x34>)
  401f2e:	4798      	blx	r3
		base->PIO_OER = arch_ioport_pin_to_mask(pin);
  401f30:	4b08      	ldr	r3, [pc, #32]	; (401f54 <SPI_BitBag_init+0x38>)
  401f32:	2210      	movs	r2, #16
  401f34:	611a      	str	r2, [r3, #16]
	base->PIO_OWER = arch_ioport_pin_to_mask(pin);
  401f36:	f8c3 20a0 	str.w	r2, [r3, #160]	; 0xa0
		base->PIO_CODR = arch_ioport_pin_to_mask(pin);
  401f3a:	635a      	str	r2, [r3, #52]	; 0x34
		base->PIO_OER = arch_ioport_pin_to_mask(pin);
  401f3c:	2220      	movs	r2, #32
  401f3e:	611a      	str	r2, [r3, #16]
	base->PIO_OWER = arch_ioport_pin_to_mask(pin);
  401f40:	f8c3 20a0 	str.w	r2, [r3, #160]	; 0xa0
		base->PIO_CODR = arch_ioport_pin_to_mask(pin);
  401f44:	635a      	str	r2, [r3, #52]	; 0x34
  401f46:	bd08      	pop	{r3, pc}
  401f48:	004014e5 	.word	0x004014e5
  401f4c:	004010a5 	.word	0x004010a5
  401f50:	00401081 	.word	0x00401081
  401f54:	400e1000 	.word	0x400e1000

00401f58 <main>:
	ioport_set_pin_dir(SPI_BB_SCK_PIN, IOPORT_DIR_OUTPUT);
	ioport_set_pin_level(SPI_BB_SCK_PIN, 0);
}

int main (void)
{
  401f58:	e92d 4ff0 	stmdb	sp!, {r4, r5, r6, r7, r8, r9, sl, fp, lr}
  401f5c:	b083      	sub	sp, #12

	uint32_t writeNum = 0;
	uint32_t writeFrameNum = 0;
	WDT->WDT_MR = WDT_MR_WDDIS; //Disables WDT
  401f5e:	f44f 4200 	mov.w	r2, #32768	; 0x8000
  401f62:	4b8f      	ldr	r3, [pc, #572]	; (4021a0 <main+0x248>)
  401f64:	605a      	str	r2, [r3, #4]

	//SCB_EnableICache();
	//SCB_EnableDCache();

	irq_initialize_vectors();
	cpu_irq_enable();
  401f66:	2201      	movs	r2, #1
  401f68:	4b8e      	ldr	r3, [pc, #568]	; (4021a4 <main+0x24c>)
  401f6a:	701a      	strb	r2, [r3, #0]
  401f6c:	f3bf 8f5f 	dmb	sy
  401f70:	b662      	cpsie	i

	sysclk_init();
  401f72:	4b8d      	ldr	r3, [pc, #564]	; (4021a8 <main+0x250>)
  401f74:	4798      	blx	r3
	board_init(); //Sets up sdcard slot pins
  401f76:	4b8d      	ldr	r3, [pc, #564]	; (4021ac <main+0x254>)
  401f78:	4798      	blx	r3
 *
 * \param ul_id Id (number) of the peripheral clock.
 */
static inline void sysclk_enable_peripheral_clock(uint32_t ul_id)
{
	pmc_enable_periph_clk(ul_id);
  401f7a:	200a      	movs	r0, #10
  401f7c:	4c8c      	ldr	r4, [pc, #560]	; (4021b0 <main+0x258>)
  401f7e:	47a0      	blx	r4
  401f80:	200b      	movs	r0, #11
  401f82:	47a0      	blx	r4
  401f84:	2010      	movs	r0, #16
  401f86:	47a0      	blx	r4
	ioport_init(); //turns on all peripheral clocks. could remove this to save power

	//----- CMOS Sensor Stuff
	enableSourceClk(); //Turns on SCK1 from MCU to drive CMOS sensor
  401f88:	4b8a      	ldr	r3, [pc, #552]	; (4021b4 <main+0x25c>)
  401f8a:	4798      	blx	r3
	//

	time_tick_init();
  401f8c:	4b8a      	ldr	r3, [pc, #552]	; (4021b8 <main+0x260>)
  401f8e:	4798      	blx	r3
	PWM_Init();
  401f90:	4b8a      	ldr	r3, [pc, #552]	; (4021bc <main+0x264>)
  401f92:	4798      	blx	r3
	//DACC_init(); //The DAC cannot run at 1.8V. This needs to be replaced with PWM to drive the LED current source
	//DACC_updateOutput(0x0FFF,1);
	#ifdef EV76C541
		SPI_BitBag_init();
  401f94:	4b8a      	ldr	r3, [pc, #552]	; (4021c0 <main+0x268>)
  401f96:	4798      	blx	r3
	#endif
	//tick_start = time_tick_get();
	//time_ms = time_tick_calc_delay(tick_start, time_tick_get());

	//----- Enable control of LED
	pmc_enable_periph_clk(ID_PIOD);	
  401f98:	2010      	movs	r0, #16
  401f9a:	47a0      	blx	r4
		base->PIO_OER = arch_ioport_pin_to_mask(pin);
  401f9c:	4b89      	ldr	r3, [pc, #548]	; (4021c4 <main+0x26c>)
  401f9e:	2202      	movs	r2, #2
  401fa0:	611a      	str	r2, [r3, #16]
	base->PIO_OWER = arch_ioport_pin_to_mask(pin);
  401fa2:	f8c3 20a0 	str.w	r2, [r3, #160]	; 0xa0
		base->PIO_CODR = arch_ioport_pin_to_mask(pin);
  401fa6:	635a      	str	r2, [r3, #52]	; 0x34
	ioport_set_pin_dir(LED_PIN, IOPORT_DIR_OUTPUT);
	ioport_set_pin_level(LED_PIN, 0);
	//-----

	tick_start = time_tick_get();
  401fa8:	4b87      	ldr	r3, [pc, #540]	; (4021c8 <main+0x270>)
  401faa:	4798      	blx	r3
  401fac:	4b87      	ldr	r3, [pc, #540]	; (4021cc <main+0x274>)
  401fae:	6018      	str	r0, [r3, #0]
	while (time_tick_calc_delay(tick_start, time_tick_get()) <100) {}
  401fb0:	461e      	mov	r6, r3
  401fb2:	4d85      	ldr	r5, [pc, #532]	; (4021c8 <main+0x270>)
  401fb4:	4c86      	ldr	r4, [pc, #536]	; (4021d0 <main+0x278>)
  401fb6:	6837      	ldr	r7, [r6, #0]
  401fb8:	47a8      	blx	r5
  401fba:	4601      	mov	r1, r0
  401fbc:	4638      	mov	r0, r7
  401fbe:	47a0      	blx	r4
  401fc0:	2863      	cmp	r0, #99	; 0x63
  401fc2:	d9f8      	bls.n	401fb6 <main+0x5e>

	//----- Enable control of enable pin for LED Driver
	pmc_enable_periph_clk(ID_PIOB);
  401fc4:	200b      	movs	r0, #11
  401fc6:	4d7a      	ldr	r5, [pc, #488]	; (4021b0 <main+0x258>)
  401fc8:	47a8      	blx	r5
		base->PIO_OER = arch_ioport_pin_to_mask(pin);
  401fca:	4c82      	ldr	r4, [pc, #520]	; (4021d4 <main+0x27c>)
  401fcc:	f44f 5380 	mov.w	r3, #4096	; 0x1000
  401fd0:	6123      	str	r3, [r4, #16]
	base->PIO_OWER = arch_ioport_pin_to_mask(pin);
  401fd2:	f8c4 30a0 	str.w	r3, [r4, #160]	; 0xa0
		base->PIO_CODR = arch_ioport_pin_to_mask(pin);
  401fd6:	6363      	str	r3, [r4, #52]	; 0x34
	ioport_set_pin_level(ENT_PIN, 0);

	//-----

	//----- Enable control of sensor control pins
	pmc_enable_periph_clk(ID_PIOB);
  401fd8:	200b      	movs	r0, #11
  401fda:	47a8      	blx	r5
		base->PIO_OER = arch_ioport_pin_to_mask(pin);
  401fdc:	2302      	movs	r3, #2
  401fde:	6123      	str	r3, [r4, #16]
	base->PIO_OWER = arch_ioport_pin_to_mask(pin);
  401fe0:	f8c4 30a0 	str.w	r3, [r4, #160]	; 0xa0
		base->PIO_CODR = arch_ioport_pin_to_mask(pin);
  401fe4:	6363      	str	r3, [r4, #52]	; 0x34

	ioport_set_pin_dir(RESETB_PIN, IOPORT_DIR_OUTPUT);
	ioport_set_pin_level(RESETB_PIN, 0); //not sure if this can stay high the whole time.

	tick_start = time_tick_get();
  401fe6:	4b78      	ldr	r3, [pc, #480]	; (4021c8 <main+0x270>)
  401fe8:	4798      	blx	r3
  401fea:	4b78      	ldr	r3, [pc, #480]	; (4021cc <main+0x274>)
  401fec:	6018      	str	r0, [r3, #0]
	while (time_tick_calc_delay(tick_start, time_tick_get()) <100) {}
  401fee:	461e      	mov	r6, r3
  401ff0:	4d75      	ldr	r5, [pc, #468]	; (4021c8 <main+0x270>)
  401ff2:	4c77      	ldr	r4, [pc, #476]	; (4021d0 <main+0x278>)
  401ff4:	6837      	ldr	r7, [r6, #0]
  401ff6:	47a8      	blx	r5
  401ff8:	4601      	mov	r1, r0
  401ffa:	4638      	mov	r0, r7
  401ffc:	47a0      	blx	r4
  401ffe:	2863      	cmp	r0, #99	; 0x63
  402000:	d9f8      	bls.n	401ff4 <main+0x9c>
		base->PIO_SODR = arch_ioport_pin_to_mask(pin);
  402002:	4b74      	ldr	r3, [pc, #464]	; (4021d4 <main+0x27c>)
  402004:	2202      	movs	r2, #2
  402006:	631a      	str	r2, [r3, #48]	; 0x30
		base->PIO_OER = arch_ioport_pin_to_mask(pin);
  402008:	2201      	movs	r2, #1
  40200a:	611a      	str	r2, [r3, #16]
	base->PIO_OWER = arch_ioport_pin_to_mask(pin);
  40200c:	f8c3 20a0 	str.w	r2, [r3, #160]	; 0xa0
		base->PIO_SODR = arch_ioport_pin_to_mask(pin);
  402010:	631a      	str	r2, [r3, #48]	; 0x30
		base->PIO_OER = arch_ioport_pin_to_mask(pin);
  402012:	2204      	movs	r2, #4
  402014:	611a      	str	r2, [r3, #16]
	base->PIO_OWER = arch_ioport_pin_to_mask(pin);
  402016:	f8c3 20a0 	str.w	r2, [r3, #160]	; 0xa0
		base->PIO_CODR = arch_ioport_pin_to_mask(pin);
  40201a:	635a      	str	r2, [r3, #52]	; 0x34

	//pmc_switch_pck_to_mck(ID_PIOA, 1);


	//----- SD Init Stuff
	sd_mmc_init();
  40201c:	4b6e      	ldr	r3, [pc, #440]	; (4021d8 <main+0x280>)
  40201e:	4798      	blx	r3
	//

	//--------------------------------------------Remove comments below after debugging I2C
	while (sd_mmc_check(SD_SLOT_NB) != SD_MMC_OK) {
  402020:	2500      	movs	r5, #0
  402022:	4c6e      	ldr	r4, [pc, #440]	; (4021dc <main+0x284>)
  402024:	4628      	mov	r0, r5
  402026:	47a0      	blx	r4
  402028:	2800      	cmp	r0, #0
  40202a:	d1fb      	bne.n	402024 <main+0xcc>
		////Maybe turn LED off
	}
	//
//
	if (sd_mmc_get_type(SD_SLOT_NB) == (CARD_TYPE_SD|CARD_TYPE_HC)) {
  40202c:	4b6c      	ldr	r3, [pc, #432]	; (4021e0 <main+0x288>)
  40202e:	4798      	blx	r3
	////This is the correct type of card (SDHC)
	//
	}
	//
	//-------------------------------------------------------------------------------------------
	uint32_t sdCapacity = sd_mmc_get_capacity(SD_SLOT_NB); //in KB
  402030:	2000      	movs	r0, #0
  402032:	4b6c      	ldr	r3, [pc, #432]	; (4021e4 <main+0x28c>)
  402034:	4798      	blx	r3
	////	testPoint++;
	////}
	////----- CMOS Sensor Stuff
	////enableSourceClk(); //Turns on SCK1 from MCU to drive CMOS sensor

	imagingSensorLoadHeader();
  402036:	4b6c      	ldr	r3, [pc, #432]	; (4021e8 <main+0x290>)
  402038:	4798      	blx	r3
	if (ledValue >= PWM_PERIOD_VALUE)
  40203a:	4b6c      	ldr	r3, [pc, #432]	; (4021ec <main+0x294>)
  40203c:	681b      	ldr	r3, [r3, #0]
  40203e:	2bfe      	cmp	r3, #254	; 0xfe
  402040:	d902      	bls.n	402048 <main+0xf0>
		ledValue = 0;
  402042:	2200      	movs	r2, #0
  402044:	4b69      	ldr	r3, [pc, #420]	; (4021ec <main+0x294>)
  402046:	601a      	str	r2, [r3, #0]
	pwm_channel_update_duty(PWM0, &g_pwm_channel_led, ledValue);
  402048:	4b68      	ldr	r3, [pc, #416]	; (4021ec <main+0x294>)
  40204a:	681a      	ldr	r2, [r3, #0]
  40204c:	4968      	ldr	r1, [pc, #416]	; (4021f0 <main+0x298>)
  40204e:	4869      	ldr	r0, [pc, #420]	; (4021f4 <main+0x29c>)
  402050:	4b69      	ldr	r3, [pc, #420]	; (4021f8 <main+0x2a0>)
  402052:	4798      	blx	r3

	imagingSensorSetup(); //sets interrupts, configs IO pins for DMA CMOS sensor
  402054:	4b69      	ldr	r3, [pc, #420]	; (4021fc <main+0x2a4>)
  402056:	4798      	blx	r3

	#ifdef EV76C541
		imagingSensorConfigureEV76C541();
  402058:	4b69      	ldr	r3, [pc, #420]	; (402200 <main+0x2a8>)
  40205a:	4798      	blx	r3
	#else
		imagingSensorConfigure(); //I2C config sensor
	#endif

	tick_start = time_tick_get();
  40205c:	4b5a      	ldr	r3, [pc, #360]	; (4021c8 <main+0x270>)
  40205e:	4798      	blx	r3
  402060:	4b5a      	ldr	r3, [pc, #360]	; (4021cc <main+0x274>)
  402062:	6018      	str	r0, [r3, #0]
	while (time_tick_calc_delay(tick_start, time_tick_get()) <5000) {}
  402064:	461e      	mov	r6, r3
  402066:	4d58      	ldr	r5, [pc, #352]	; (4021c8 <main+0x270>)
  402068:	4c59      	ldr	r4, [pc, #356]	; (4021d0 <main+0x278>)
  40206a:	6837      	ldr	r7, [r6, #0]
  40206c:	47a8      	blx	r5
  40206e:	4601      	mov	r1, r0
  402070:	4638      	mov	r0, r7
  402072:	47a0      	blx	r4
  402074:	f241 3387 	movw	r3, #4999	; 0x1387
  402078:	4298      	cmp	r0, r3
  40207a:	d9f6      	bls.n	40206a <main+0x112>
	//numFramesToRecord  =300;
	
	//DACC_updateOutput(ledValue,1);
//
	
	sd_mmc_init_write_blocks(SD_SLOT_NB,STARTING_BLOCK,50*NB_BLOCKS_PER_FRAME);	
  40207c:	f242 023a 	movw	r2, #8250	; 0x203a
  402080:	f44f 6180 	mov.w	r1, #1024	; 0x400
  402084:	2000      	movs	r0, #0
  402086:	4b5f      	ldr	r3, [pc, #380]	; (402204 <main+0x2ac>)
  402088:	4798      	blx	r3
	uint32_t curBlock = STARTING_BLOCK;
	uint32_t writeLineCount = 0;
	uint32_t writeCount = 0;
	tick_start = time_tick_get();
  40208a:	4b4f      	ldr	r3, [pc, #316]	; (4021c8 <main+0x270>)
  40208c:	4798      	blx	r3
  40208e:	4b4f      	ldr	r3, [pc, #316]	; (4021cc <main+0x274>)
  402090:	6018      	str	r0, [r3, #0]
	startRecording = 1;
  402092:	2201      	movs	r2, #1
  402094:	4b5c      	ldr	r3, [pc, #368]	; (402208 <main+0x2b0>)
  402096:	701a      	strb	r2, [r3, #0]
		base->PIO_SODR = arch_ioport_pin_to_mask(pin);
  402098:	4b4e      	ldr	r3, [pc, #312]	; (4021d4 <main+0x27c>)
  40209a:	2204      	movs	r2, #4
  40209c:	631a      	str	r2, [r3, #48]	; 0x30
  40209e:	f44f 5280 	mov.w	r2, #4096	; 0x1000
  4020a2:	631a      	str	r2, [r3, #48]	; 0x30
  4020a4:	2202      	movs	r2, #2
  4020a6:	f503 6380 	add.w	r3, r3, #1024	; 0x400
  4020aa:	631a      	str	r2, [r3, #48]	; 0x30
	uint32_t curBlock = STARTING_BLOCK;
  4020ac:	f44f 6980 	mov.w	r9, #1024	; 0x400
	uint32_t writeFrameNum = 0;
  4020b0:	2400      	movs	r4, #0
					case (0):
					imageBuffer0[buffSize-2] = time_tick_calc_delay(tick_start, time_tick_get());
					sd_mmc_start_write_blocks(&imageBuffer0[0],NB_BLOCKS_PER_WRITE);//NB_BLOCKS_PER_WRITE
					break;
					case (1):
					imageBuffer1[buffSize-2] = time_tick_calc_delay(tick_start, time_tick_get());
  4020b2:	4f46      	ldr	r7, [pc, #280]	; (4021cc <main+0x274>)
  4020b4:	4e44      	ldr	r6, [pc, #272]	; (4021c8 <main+0x270>)
  4020b6:	4d46      	ldr	r5, [pc, #280]	; (4021d0 <main+0x278>)
  4020b8:	f8df a178 	ldr.w	sl, [pc, #376]	; 402234 <main+0x2dc>
  4020bc:	f8df 8178 	ldr.w	r8, [pc, #376]	; 402238 <main+0x2e0>
  4020c0:	eb0a 0b08 	add.w	fp, sl, r8
  4020c4:	e02f      	b.n	402126 <main+0x1ce>
					imageBuffer0[buffSize-2] = time_tick_calc_delay(tick_start, time_tick_get());
  4020c6:	683b      	ldr	r3, [r7, #0]
  4020c8:	9301      	str	r3, [sp, #4]
  4020ca:	47b0      	blx	r6
  4020cc:	4601      	mov	r1, r0
  4020ce:	9801      	ldr	r0, [sp, #4]
  4020d0:	47a8      	blx	r5
  4020d2:	4b4e      	ldr	r3, [pc, #312]	; (40220c <main+0x2b4>)
  4020d4:	f843 0008 	str.w	r0, [r3, r8]
					sd_mmc_start_write_blocks(&imageBuffer0[0],NB_BLOCKS_PER_WRITE);//NB_BLOCKS_PER_WRITE
  4020d8:	21a5      	movs	r1, #165	; 0xa5
  4020da:	4618      	mov	r0, r3
  4020dc:	4b4c      	ldr	r3, [pc, #304]	; (402210 <main+0x2b8>)
  4020de:	4798      	blx	r3
					sd_mmc_start_write_blocks(&imageBuffer2[0],NB_BLOCKS_PER_WRITE);//NB_BLOCKS_PER_WRITE
					break;
				}			
			#endif

			sd_mmc_wait_end_of_write_blocks(false);
  4020e0:	2000      	movs	r0, #0
  4020e2:	4b4c      	ldr	r3, [pc, #304]	; (402214 <main+0x2bc>)
  4020e4:	4798      	blx	r3
			writeFrameNum++;	
  4020e6:	3401      	adds	r4, #1
			sdImageWriteFrameNum = writeFrameNum;
  4020e8:	4b4b      	ldr	r3, [pc, #300]	; (402218 <main+0x2c0>)
  4020ea:	601c      	str	r4, [r3, #0]

			#ifdef EV76C541
				startRecording = 1;
  4020ec:	2201      	movs	r2, #1
  4020ee:	4b46      	ldr	r3, [pc, #280]	; (402208 <main+0x2b0>)
  4020f0:	701a      	strb	r2, [r3, #0]
			#endif
			#ifdef EV76C454
				startRecording = 1;
			#endif
			
			if (writeFrameNum%50 == 0) {
  4020f2:	4b4a      	ldr	r3, [pc, #296]	; (40221c <main+0x2c4>)
  4020f4:	fba3 2304 	umull	r2, r3, r3, r4
  4020f8:	091b      	lsrs	r3, r3, #4
  4020fa:	2232      	movs	r2, #50	; 0x32
  4020fc:	fb02 4313 	mls	r3, r2, r3, r4
  402100:	2b00      	cmp	r3, #0
  402102:	d03c      	beq.n	40217e <main+0x226>

		//valueLED = (valueLED+400)&0x0FFF; //higher value less bright
		//DACC_updateOutput(valueLED,1);

		//if (frameNumber>=numFramesToRecord){ //end at number of frames
		if (time_tick_calc_delay(tick_start, time_tick_get())>=numFramesToRecord*1000){
  402104:	683b      	ldr	r3, [r7, #0]
  402106:	9301      	str	r3, [sp, #4]
  402108:	47b0      	blx	r6
  40210a:	4601      	mov	r1, r0
  40210c:	9801      	ldr	r0, [sp, #4]
  40210e:	47a8      	blx	r5
  402110:	4b43      	ldr	r3, [pc, #268]	; (402220 <main+0x2c8>)
  402112:	681a      	ldr	r2, [r3, #0]
  402114:	f44f 737a 	mov.w	r3, #1000	; 0x3e8
  402118:	fb03 f302 	mul.w	r3, r3, r2
  40211c:	4298      	cmp	r0, r3
  40211e:	d236      	bcs.n	40218e <main+0x236>
			while(1){}
		}
//			startRecording = 1;


		testPoint = 0;	
  402120:	2200      	movs	r2, #0
  402122:	4b40      	ldr	r3, [pc, #256]	; (402224 <main+0x2cc>)
  402124:	601a      	str	r2, [r3, #0]
		if (frameNumber > writeFrameNum) {
  402126:	4b40      	ldr	r3, [pc, #256]	; (402228 <main+0x2d0>)
  402128:	681b      	ldr	r3, [r3, #0]
  40212a:	429c      	cmp	r4, r3
  40212c:	d2ea      	bcs.n	402104 <main+0x1ac>
				switch (writeFrameNum%3)
  40212e:	4b3f      	ldr	r3, [pc, #252]	; (40222c <main+0x2d4>)
  402130:	fba3 2304 	umull	r2, r3, r3, r4
  402134:	085b      	lsrs	r3, r3, #1
  402136:	eb03 0343 	add.w	r3, r3, r3, lsl #1
  40213a:	1ae3      	subs	r3, r4, r3
  40213c:	2b01      	cmp	r3, #1
  40213e:	d011      	beq.n	402164 <main+0x20c>
  402140:	2b00      	cmp	r3, #0
  402142:	d0c0      	beq.n	4020c6 <main+0x16e>
  402144:	2b02      	cmp	r3, #2
  402146:	d1cb      	bne.n	4020e0 <main+0x188>
					imageBuffer2[buffSize-2] = time_tick_calc_delay(tick_start, time_tick_get());
  402148:	683b      	ldr	r3, [r7, #0]
  40214a:	9301      	str	r3, [sp, #4]
  40214c:	47b0      	blx	r6
  40214e:	4601      	mov	r1, r0
  402150:	9801      	ldr	r0, [sp, #4]
  402152:	47a8      	blx	r5
  402154:	4b36      	ldr	r3, [pc, #216]	; (402230 <main+0x2d8>)
  402156:	f843 0008 	str.w	r0, [r3, r8]
					sd_mmc_start_write_blocks(&imageBuffer2[0],NB_BLOCKS_PER_WRITE);//NB_BLOCKS_PER_WRITE
  40215a:	21a5      	movs	r1, #165	; 0xa5
  40215c:	4618      	mov	r0, r3
  40215e:	4b2c      	ldr	r3, [pc, #176]	; (402210 <main+0x2b8>)
  402160:	4798      	blx	r3
					break;
  402162:	e7bd      	b.n	4020e0 <main+0x188>
					imageBuffer1[buffSize-2] = time_tick_calc_delay(tick_start, time_tick_get());
  402164:	683b      	ldr	r3, [r7, #0]
  402166:	9301      	str	r3, [sp, #4]
  402168:	47b0      	blx	r6
  40216a:	4601      	mov	r1, r0
  40216c:	9801      	ldr	r0, [sp, #4]
  40216e:	47a8      	blx	r5
  402170:	f8cb 0000 	str.w	r0, [fp]
					sd_mmc_start_write_blocks(&imageBuffer1[0],NB_BLOCKS_PER_WRITE);//NB_BLOCKS_PER_WRITE
  402174:	21a5      	movs	r1, #165	; 0xa5
  402176:	4650      	mov	r0, sl
  402178:	4b25      	ldr	r3, [pc, #148]	; (402210 <main+0x2b8>)
  40217a:	4798      	blx	r3
					break;
  40217c:	e7b0      	b.n	4020e0 <main+0x188>
				curBlock+= 50*NB_BLOCKS_PER_FRAME;
  40217e:	f242 023a 	movw	r2, #8250	; 0x203a
  402182:	4491      	add	r9, r2
				sd_mmc_init_write_blocks(SD_SLOT_NB,curBlock,50*NB_BLOCKS_PER_FRAME);
  402184:	4649      	mov	r1, r9
  402186:	2000      	movs	r0, #0
  402188:	4b1e      	ldr	r3, [pc, #120]	; (402204 <main+0x2ac>)
  40218a:	4798      	blx	r3
  40218c:	e7ba      	b.n	402104 <main+0x1ac>
		base->PIO_CODR = arch_ioport_pin_to_mask(pin);
  40218e:	2202      	movs	r2, #2
  402190:	4b0c      	ldr	r3, [pc, #48]	; (4021c4 <main+0x26c>)
  402192:	635a      	str	r2, [r3, #52]	; 0x34
  402194:	f44f 5280 	mov.w	r2, #4096	; 0x1000
  402198:	f5a3 6380 	sub.w	r3, r3, #1024	; 0x400
  40219c:	635a      	str	r2, [r3, #52]	; 0x34
  40219e:	e7fe      	b.n	40219e <main+0x246>
  4021a0:	400e1850 	.word	0x400e1850
  4021a4:	2040000a 	.word	0x2040000a
  4021a8:	00401351 	.word	0x00401351
  4021ac:	00401575 	.word	0x00401575
  4021b0:	004014e5 	.word	0x004014e5
  4021b4:	00401889 	.word	0x00401889
  4021b8:	00401309 	.word	0x00401309
  4021bc:	00401e61 	.word	0x00401e61
  4021c0:	00401f1d 	.word	0x00401f1d
  4021c4:	400e1400 	.word	0x400e1400
  4021c8:	00401335 	.word	0x00401335
  4021cc:	2043e320 	.word	0x2043e320
  4021d0:	00401341 	.word	0x00401341
  4021d4:	400e1000 	.word	0x400e1000
  4021d8:	0040027d 	.word	0x0040027d
  4021dc:	0040029d 	.word	0x0040029d
  4021e0:	004008f9 	.word	0x004008f9
  4021e4:	0040091d 	.word	0x0040091d
  4021e8:	00401bdd 	.word	0x00401bdd
  4021ec:	2043e2a8 	.word	0x2043e2a8
  4021f0:	2043e2cc 	.word	0x2043e2cc
  4021f4:	40020000 	.word	0x40020000
  4021f8:	004012b7 	.word	0x004012b7
  4021fc:	00401c69 	.word	0x00401c69
  402200:	00401981 	.word	0x00401981
  402204:	00400aa5 	.word	0x00400aa5
  402208:	2043e2c0 	.word	0x2043e2c0
  40220c:	204004a8 	.word	0x204004a8
  402210:	00400b31 	.word	0x00400b31
  402214:	00400b59 	.word	0x00400b59
  402218:	2043e2bc 	.word	0x2043e2bc
  40221c:	51eb851f 	.word	0x51eb851f
  402220:	2043e2b0 	.word	0x2043e2b0
  402224:	2043e2c4 	.word	0x2043e2c4
  402228:	204004a0 	.word	0x204004a0
  40222c:	aaaaaaab 	.word	0xaaaaaaab
  402230:	204298a8 	.word	0x204298a8
  402234:	20414ea8 	.word	0x20414ea8
  402238:	000149f8 	.word	0x000149f8

0040223c <__libc_init_array>:
  40223c:	b570      	push	{r4, r5, r6, lr}
  40223e:	4e0f      	ldr	r6, [pc, #60]	; (40227c <__libc_init_array+0x40>)
  402240:	4d0f      	ldr	r5, [pc, #60]	; (402280 <__libc_init_array+0x44>)
  402242:	1b76      	subs	r6, r6, r5
  402244:	10b6      	asrs	r6, r6, #2
  402246:	bf18      	it	ne
  402248:	2400      	movne	r4, #0
  40224a:	d005      	beq.n	402258 <__libc_init_array+0x1c>
  40224c:	3401      	adds	r4, #1
  40224e:	f855 3b04 	ldr.w	r3, [r5], #4
  402252:	4798      	blx	r3
  402254:	42a6      	cmp	r6, r4
  402256:	d1f9      	bne.n	40224c <__libc_init_array+0x10>
  402258:	4e0a      	ldr	r6, [pc, #40]	; (402284 <__libc_init_array+0x48>)
  40225a:	4d0b      	ldr	r5, [pc, #44]	; (402288 <__libc_init_array+0x4c>)
  40225c:	1b76      	subs	r6, r6, r5
  40225e:	f000 fa33 	bl	4026c8 <_init>
  402262:	10b6      	asrs	r6, r6, #2
  402264:	bf18      	it	ne
  402266:	2400      	movne	r4, #0
  402268:	d006      	beq.n	402278 <__libc_init_array+0x3c>
  40226a:	3401      	adds	r4, #1
  40226c:	f855 3b04 	ldr.w	r3, [r5], #4
  402270:	4798      	blx	r3
  402272:	42a6      	cmp	r6, r4
  402274:	d1f9      	bne.n	40226a <__libc_init_array+0x2e>
  402276:	bd70      	pop	{r4, r5, r6, pc}
  402278:	bd70      	pop	{r4, r5, r6, pc}
  40227a:	bf00      	nop
  40227c:	004026d4 	.word	0x004026d4
  402280:	004026d4 	.word	0x004026d4
  402284:	004026dc 	.word	0x004026dc
  402288:	004026d4 	.word	0x004026d4

0040228c <memcpy>:
  40228c:	4684      	mov	ip, r0
  40228e:	ea41 0300 	orr.w	r3, r1, r0
  402292:	f013 0303 	ands.w	r3, r3, #3
  402296:	d16d      	bne.n	402374 <memcpy+0xe8>
  402298:	3a40      	subs	r2, #64	; 0x40
  40229a:	d341      	bcc.n	402320 <memcpy+0x94>
  40229c:	f851 3b04 	ldr.w	r3, [r1], #4
  4022a0:	f840 3b04 	str.w	r3, [r0], #4
  4022a4:	f851 3b04 	ldr.w	r3, [r1], #4
  4022a8:	f840 3b04 	str.w	r3, [r0], #4
  4022ac:	f851 3b04 	ldr.w	r3, [r1], #4
  4022b0:	f840 3b04 	str.w	r3, [r0], #4
  4022b4:	f851 3b04 	ldr.w	r3, [r1], #4
  4022b8:	f840 3b04 	str.w	r3, [r0], #4
  4022bc:	f851 3b04 	ldr.w	r3, [r1], #4
  4022c0:	f840 3b04 	str.w	r3, [r0], #4
  4022c4:	f851 3b04 	ldr.w	r3, [r1], #4
  4022c8:	f840 3b04 	str.w	r3, [r0], #4
  4022cc:	f851 3b04 	ldr.w	r3, [r1], #4
  4022d0:	f840 3b04 	str.w	r3, [r0], #4
  4022d4:	f851 3b04 	ldr.w	r3, [r1], #4
  4022d8:	f840 3b04 	str.w	r3, [r0], #4
  4022dc:	f851 3b04 	ldr.w	r3, [r1], #4
  4022e0:	f840 3b04 	str.w	r3, [r0], #4
  4022e4:	f851 3b04 	ldr.w	r3, [r1], #4
  4022e8:	f840 3b04 	str.w	r3, [r0], #4
  4022ec:	f851 3b04 	ldr.w	r3, [r1], #4
  4022f0:	f840 3b04 	str.w	r3, [r0], #4
  4022f4:	f851 3b04 	ldr.w	r3, [r1], #4
  4022f8:	f840 3b04 	str.w	r3, [r0], #4
  4022fc:	f851 3b04 	ldr.w	r3, [r1], #4
  402300:	f840 3b04 	str.w	r3, [r0], #4
  402304:	f851 3b04 	ldr.w	r3, [r1], #4
  402308:	f840 3b04 	str.w	r3, [r0], #4
  40230c:	f851 3b04 	ldr.w	r3, [r1], #4
  402310:	f840 3b04 	str.w	r3, [r0], #4
  402314:	f851 3b04 	ldr.w	r3, [r1], #4
  402318:	f840 3b04 	str.w	r3, [r0], #4
  40231c:	3a40      	subs	r2, #64	; 0x40
  40231e:	d2bd      	bcs.n	40229c <memcpy+0x10>
  402320:	3230      	adds	r2, #48	; 0x30
  402322:	d311      	bcc.n	402348 <memcpy+0xbc>
  402324:	f851 3b04 	ldr.w	r3, [r1], #4
  402328:	f840 3b04 	str.w	r3, [r0], #4
  40232c:	f851 3b04 	ldr.w	r3, [r1], #4
  402330:	f840 3b04 	str.w	r3, [r0], #4
  402334:	f851 3b04 	ldr.w	r3, [r1], #4
  402338:	f840 3b04 	str.w	r3, [r0], #4
  40233c:	f851 3b04 	ldr.w	r3, [r1], #4
  402340:	f840 3b04 	str.w	r3, [r0], #4
  402344:	3a10      	subs	r2, #16
  402346:	d2ed      	bcs.n	402324 <memcpy+0x98>
  402348:	320c      	adds	r2, #12
  40234a:	d305      	bcc.n	402358 <memcpy+0xcc>
  40234c:	f851 3b04 	ldr.w	r3, [r1], #4
  402350:	f840 3b04 	str.w	r3, [r0], #4
  402354:	3a04      	subs	r2, #4
  402356:	d2f9      	bcs.n	40234c <memcpy+0xc0>
  402358:	3204      	adds	r2, #4
  40235a:	d008      	beq.n	40236e <memcpy+0xe2>
  40235c:	07d2      	lsls	r2, r2, #31
  40235e:	bf1c      	itt	ne
  402360:	f811 3b01 	ldrbne.w	r3, [r1], #1
  402364:	f800 3b01 	strbne.w	r3, [r0], #1
  402368:	d301      	bcc.n	40236e <memcpy+0xe2>
  40236a:	880b      	ldrh	r3, [r1, #0]
  40236c:	8003      	strh	r3, [r0, #0]
  40236e:	4660      	mov	r0, ip
  402370:	4770      	bx	lr
  402372:	bf00      	nop
  402374:	2a08      	cmp	r2, #8
  402376:	d313      	bcc.n	4023a0 <memcpy+0x114>
  402378:	078b      	lsls	r3, r1, #30
  40237a:	d08d      	beq.n	402298 <memcpy+0xc>
  40237c:	f010 0303 	ands.w	r3, r0, #3
  402380:	d08a      	beq.n	402298 <memcpy+0xc>
  402382:	f1c3 0304 	rsb	r3, r3, #4
  402386:	1ad2      	subs	r2, r2, r3
  402388:	07db      	lsls	r3, r3, #31
  40238a:	bf1c      	itt	ne
  40238c:	f811 3b01 	ldrbne.w	r3, [r1], #1
  402390:	f800 3b01 	strbne.w	r3, [r0], #1
  402394:	d380      	bcc.n	402298 <memcpy+0xc>
  402396:	f831 3b02 	ldrh.w	r3, [r1], #2
  40239a:	f820 3b02 	strh.w	r3, [r0], #2
  40239e:	e77b      	b.n	402298 <memcpy+0xc>
  4023a0:	3a04      	subs	r2, #4
  4023a2:	d3d9      	bcc.n	402358 <memcpy+0xcc>
  4023a4:	3a01      	subs	r2, #1
  4023a6:	f811 3b01 	ldrb.w	r3, [r1], #1
  4023aa:	f800 3b01 	strb.w	r3, [r0], #1
  4023ae:	d2f9      	bcs.n	4023a4 <memcpy+0x118>
  4023b0:	780b      	ldrb	r3, [r1, #0]
  4023b2:	7003      	strb	r3, [r0, #0]
  4023b4:	784b      	ldrb	r3, [r1, #1]
  4023b6:	7043      	strb	r3, [r0, #1]
  4023b8:	788b      	ldrb	r3, [r1, #2]
  4023ba:	7083      	strb	r3, [r0, #2]
  4023bc:	4660      	mov	r0, ip
  4023be:	4770      	bx	lr

004023c0 <memset>:
  4023c0:	b470      	push	{r4, r5, r6}
  4023c2:	0786      	lsls	r6, r0, #30
  4023c4:	d046      	beq.n	402454 <memset+0x94>
  4023c6:	1e54      	subs	r4, r2, #1
  4023c8:	2a00      	cmp	r2, #0
  4023ca:	d041      	beq.n	402450 <memset+0x90>
  4023cc:	b2ca      	uxtb	r2, r1
  4023ce:	4603      	mov	r3, r0
  4023d0:	e002      	b.n	4023d8 <memset+0x18>
  4023d2:	f114 34ff 	adds.w	r4, r4, #4294967295
  4023d6:	d33b      	bcc.n	402450 <memset+0x90>
  4023d8:	f803 2b01 	strb.w	r2, [r3], #1
  4023dc:	079d      	lsls	r5, r3, #30
  4023de:	d1f8      	bne.n	4023d2 <memset+0x12>
  4023e0:	2c03      	cmp	r4, #3
  4023e2:	d92e      	bls.n	402442 <memset+0x82>
  4023e4:	b2cd      	uxtb	r5, r1
  4023e6:	ea45 2505 	orr.w	r5, r5, r5, lsl #8
  4023ea:	2c0f      	cmp	r4, #15
  4023ec:	ea45 4505 	orr.w	r5, r5, r5, lsl #16
  4023f0:	d919      	bls.n	402426 <memset+0x66>
  4023f2:	f103 0210 	add.w	r2, r3, #16
  4023f6:	4626      	mov	r6, r4
  4023f8:	3e10      	subs	r6, #16
  4023fa:	2e0f      	cmp	r6, #15
  4023fc:	f842 5c10 	str.w	r5, [r2, #-16]
  402400:	f842 5c0c 	str.w	r5, [r2, #-12]
  402404:	f842 5c08 	str.w	r5, [r2, #-8]
  402408:	f842 5c04 	str.w	r5, [r2, #-4]
  40240c:	f102 0210 	add.w	r2, r2, #16
  402410:	d8f2      	bhi.n	4023f8 <memset+0x38>
  402412:	f1a4 0210 	sub.w	r2, r4, #16
  402416:	f022 020f 	bic.w	r2, r2, #15
  40241a:	f004 040f 	and.w	r4, r4, #15
  40241e:	3210      	adds	r2, #16
  402420:	2c03      	cmp	r4, #3
  402422:	4413      	add	r3, r2
  402424:	d90d      	bls.n	402442 <memset+0x82>
  402426:	461e      	mov	r6, r3
  402428:	4622      	mov	r2, r4
  40242a:	3a04      	subs	r2, #4
  40242c:	2a03      	cmp	r2, #3
  40242e:	f846 5b04 	str.w	r5, [r6], #4
  402432:	d8fa      	bhi.n	40242a <memset+0x6a>
  402434:	1f22      	subs	r2, r4, #4
  402436:	f022 0203 	bic.w	r2, r2, #3
  40243a:	3204      	adds	r2, #4
  40243c:	4413      	add	r3, r2
  40243e:	f004 0403 	and.w	r4, r4, #3
  402442:	b12c      	cbz	r4, 402450 <memset+0x90>
  402444:	b2c9      	uxtb	r1, r1
  402446:	441c      	add	r4, r3
  402448:	f803 1b01 	strb.w	r1, [r3], #1
  40244c:	429c      	cmp	r4, r3
  40244e:	d1fb      	bne.n	402448 <memset+0x88>
  402450:	bc70      	pop	{r4, r5, r6}
  402452:	4770      	bx	lr
  402454:	4614      	mov	r4, r2
  402456:	4603      	mov	r3, r0
  402458:	e7c2      	b.n	4023e0 <memset+0x20>
  40245a:	bf00      	nop

0040245c <register_fini>:
  40245c:	4b02      	ldr	r3, [pc, #8]	; (402468 <register_fini+0xc>)
  40245e:	b113      	cbz	r3, 402466 <register_fini+0xa>
  402460:	4802      	ldr	r0, [pc, #8]	; (40246c <register_fini+0x10>)
  402462:	f000 b805 	b.w	402470 <atexit>
  402466:	4770      	bx	lr
  402468:	00000000 	.word	0x00000000
  40246c:	0040247d 	.word	0x0040247d

00402470 <atexit>:
  402470:	2300      	movs	r3, #0
  402472:	4601      	mov	r1, r0
  402474:	461a      	mov	r2, r3
  402476:	4618      	mov	r0, r3
  402478:	f000 b81e 	b.w	4024b8 <__register_exitproc>

0040247c <__libc_fini_array>:
  40247c:	b538      	push	{r3, r4, r5, lr}
  40247e:	4c0a      	ldr	r4, [pc, #40]	; (4024a8 <__libc_fini_array+0x2c>)
  402480:	4d0a      	ldr	r5, [pc, #40]	; (4024ac <__libc_fini_array+0x30>)
  402482:	1b64      	subs	r4, r4, r5
  402484:	10a4      	asrs	r4, r4, #2
  402486:	d00a      	beq.n	40249e <__libc_fini_array+0x22>
  402488:	f104 4380 	add.w	r3, r4, #1073741824	; 0x40000000
  40248c:	3b01      	subs	r3, #1
  40248e:	eb05 0583 	add.w	r5, r5, r3, lsl #2
  402492:	3c01      	subs	r4, #1
  402494:	f855 3904 	ldr.w	r3, [r5], #-4
  402498:	4798      	blx	r3
  40249a:	2c00      	cmp	r4, #0
  40249c:	d1f9      	bne.n	402492 <__libc_fini_array+0x16>
  40249e:	e8bd 4038 	ldmia.w	sp!, {r3, r4, r5, lr}
  4024a2:	f000 b91b 	b.w	4026dc <_fini>
  4024a6:	bf00      	nop
  4024a8:	004026ec 	.word	0x004026ec
  4024ac:	004026e8 	.word	0x004026e8

004024b0 <__retarget_lock_acquire_recursive>:
  4024b0:	4770      	bx	lr
  4024b2:	bf00      	nop

004024b4 <__retarget_lock_release_recursive>:
  4024b4:	4770      	bx	lr
  4024b6:	bf00      	nop

004024b8 <__register_exitproc>:
  4024b8:	e92d 43f8 	stmdb	sp!, {r3, r4, r5, r6, r7, r8, r9, lr}
  4024bc:	4d2c      	ldr	r5, [pc, #176]	; (402570 <__register_exitproc+0xb8>)
  4024be:	4606      	mov	r6, r0
  4024c0:	6828      	ldr	r0, [r5, #0]
  4024c2:	4698      	mov	r8, r3
  4024c4:	460f      	mov	r7, r1
  4024c6:	4691      	mov	r9, r2
  4024c8:	f7ff fff2 	bl	4024b0 <__retarget_lock_acquire_recursive>
  4024cc:	4b29      	ldr	r3, [pc, #164]	; (402574 <__register_exitproc+0xbc>)
  4024ce:	681c      	ldr	r4, [r3, #0]
  4024d0:	f8d4 3148 	ldr.w	r3, [r4, #328]	; 0x148
  4024d4:	2b00      	cmp	r3, #0
  4024d6:	d03e      	beq.n	402556 <__register_exitproc+0x9e>
  4024d8:	685a      	ldr	r2, [r3, #4]
  4024da:	2a1f      	cmp	r2, #31
  4024dc:	dc1c      	bgt.n	402518 <__register_exitproc+0x60>
  4024de:	f102 0e01 	add.w	lr, r2, #1
  4024e2:	b176      	cbz	r6, 402502 <__register_exitproc+0x4a>
  4024e4:	eb03 0182 	add.w	r1, r3, r2, lsl #2
  4024e8:	2401      	movs	r4, #1
  4024ea:	f8c1 9088 	str.w	r9, [r1, #136]	; 0x88
  4024ee:	f8d3 0188 	ldr.w	r0, [r3, #392]	; 0x188
  4024f2:	4094      	lsls	r4, r2
  4024f4:	4320      	orrs	r0, r4
  4024f6:	2e02      	cmp	r6, #2
  4024f8:	f8c3 0188 	str.w	r0, [r3, #392]	; 0x188
  4024fc:	f8c1 8108 	str.w	r8, [r1, #264]	; 0x108
  402500:	d023      	beq.n	40254a <__register_exitproc+0x92>
  402502:	3202      	adds	r2, #2
  402504:	f8c3 e004 	str.w	lr, [r3, #4]
  402508:	6828      	ldr	r0, [r5, #0]
  40250a:	f843 7022 	str.w	r7, [r3, r2, lsl #2]
  40250e:	f7ff ffd1 	bl	4024b4 <__retarget_lock_release_recursive>
  402512:	2000      	movs	r0, #0
  402514:	e8bd 83f8 	ldmia.w	sp!, {r3, r4, r5, r6, r7, r8, r9, pc}
  402518:	4b17      	ldr	r3, [pc, #92]	; (402578 <__register_exitproc+0xc0>)
  40251a:	b30b      	cbz	r3, 402560 <__register_exitproc+0xa8>
  40251c:	f44f 70c8 	mov.w	r0, #400	; 0x190
  402520:	f3af 8000 	nop.w
  402524:	4603      	mov	r3, r0
  402526:	b1d8      	cbz	r0, 402560 <__register_exitproc+0xa8>
  402528:	f8d4 2148 	ldr.w	r2, [r4, #328]	; 0x148
  40252c:	6002      	str	r2, [r0, #0]
  40252e:	2100      	movs	r1, #0
  402530:	6041      	str	r1, [r0, #4]
  402532:	460a      	mov	r2, r1
  402534:	f8c4 0148 	str.w	r0, [r4, #328]	; 0x148
  402538:	f04f 0e01 	mov.w	lr, #1
  40253c:	f8c0 1188 	str.w	r1, [r0, #392]	; 0x188
  402540:	f8c0 118c 	str.w	r1, [r0, #396]	; 0x18c
  402544:	2e00      	cmp	r6, #0
  402546:	d0dc      	beq.n	402502 <__register_exitproc+0x4a>
  402548:	e7cc      	b.n	4024e4 <__register_exitproc+0x2c>
  40254a:	f8d3 118c 	ldr.w	r1, [r3, #396]	; 0x18c
  40254e:	430c      	orrs	r4, r1
  402550:	f8c3 418c 	str.w	r4, [r3, #396]	; 0x18c
  402554:	e7d5      	b.n	402502 <__register_exitproc+0x4a>
  402556:	f504 73a6 	add.w	r3, r4, #332	; 0x14c
  40255a:	f8c4 3148 	str.w	r3, [r4, #328]	; 0x148
  40255e:	e7bb      	b.n	4024d8 <__register_exitproc+0x20>
  402560:	6828      	ldr	r0, [r5, #0]
  402562:	f7ff ffa7 	bl	4024b4 <__retarget_lock_release_recursive>
  402566:	f04f 30ff 	mov.w	r0, #4294967295
  40256a:	e8bd 83f8 	ldmia.w	sp!, {r3, r4, r5, r6, r7, r8, r9, pc}
  40256e:	bf00      	nop
  402570:	20400440 	.word	0x20400440
  402574:	004026c4 	.word	0x004026c4
  402578:	00000000 	.word	0x00000000

0040257c <mmc_trans_multipliers>:
  40257c:	00000000 0000000a 0000000c 0000000d     ................
  40258c:	0000000f 00000014 0000001a 0000001e     ................
  40259c:	00000023 00000028 0000002d 00000034     #...(...-...4...
  4025ac:	00000037 0000003c 00000046 00000050     7...<...F...P...

004025bc <sd_mmc_trans_units>:
  4025bc:	0000000a 00000064 000003e8 00002710     ....d........'..
	...

004025d8 <sd_trans_multipliers>:
  4025d8:	00000000 0000000a 0000000c 0000000d     ................
  4025e8:	0000000f 00000014 00000019 0000001e     ................
  4025f8:	00000023 00000028 0000002d 00000032     #...(...-...2...
  402608:	00000037 0000003c 00000046 00000050     7...<...F...P...
  402618:	00000001 00000002 00000004 00000008     ................
  402628:	00000010 00000020 00000040 00000080     .... ...@.......
  402638:	00000100 00000200 00000400 473f3a07     .............:?G
  402648:	4b4a4948 4f4e4d4c 54535251 58575655     HIJKLMNOQRSTUVWX
  402658:	5c5b5a59 6968675e 6e6c6b6a 7371706f     YZ[\^ghijklnopqs
  402668:	417b7a79 00006d46 80af0a06 034f1e1e     yz{AFm........O.
  402678:	8d6ffffd 0127bac8 161c0b1e 0124a0b9     ..o...'.......$.
  402688:	8383308c 6f8c053d 3f44053c 053c3f4e     .0..=..o<.D?N?<.
  402698:	0760708b 6f8c053d 44525257 54710541     .p`.=..oWRRDA.qT
  4026a8:	54700941 09410871 05410745 50535471     A.pTq.A.E.A.qTSP
  4026b8:	308a2000 99220101 516e4300              . .0.."..CnQ

004026c4 <_global_impure_ptr>:
  4026c4:	20400018                                ..@ 

004026c8 <_init>:
  4026c8:	b5f8      	push	{r3, r4, r5, r6, r7, lr}
  4026ca:	bf00      	nop
  4026cc:	bcf8      	pop	{r3, r4, r5, r6, r7}
  4026ce:	bc08      	pop	{r3}
  4026d0:	469e      	mov	lr, r3
  4026d2:	4770      	bx	lr

004026d4 <__init_array_start>:
  4026d4:	0040245d 	.word	0x0040245d

004026d8 <__frame_dummy_init_array_entry>:
  4026d8:	00400165                                e.@.

004026dc <_fini>:
  4026dc:	b5f8      	push	{r3, r4, r5, r6, r7, lr}
  4026de:	bf00      	nop
  4026e0:	bcf8      	pop	{r3, r4, r5, r6, r7}
  4026e2:	bc08      	pop	{r3}
  4026e4:	469e      	mov	lr, r3
  4026e6:	4770      	bx	lr

004026e8 <__fini_array_start>:
  4026e8:	00400141 	.word	0x00400141

Disassembly of section .relocate:

20400000 <portable_delay_cycles>:
RAMFUNC
void portable_delay_cycles(unsigned long n)
{
	UNUSED(n);

	__asm (
20400000:	f3bf 8f5f 	dmb	sy
20400004:	3801      	subs	r0, #1
20400006:	d1fb      	bne.n	20400000 <portable_delay_cycles>
20400008:	4770      	bx	lr

2040000a <g_interrupt_enabled>:
2040000a:	0001                                        ..

2040000c <SystemCoreClock>:
2040000c:	0900 003d                                   ..=.

20400010 <gain>:
20400010:	0001 0000 0000 0000                         ........

20400018 <impure_data>:
20400018:	0000 0000 0304 2040 036c 2040 03d4 2040     ......@ l.@ ..@ 
	...
204000c0:	0001 0000 0000 0000 330e abcd 1234 e66d     .........3..4.m.
204000d0:	deec 0005 000b 0000 0000 0000 0000 0000     ................
	...

20400440 <__atexit_recursive_mutex>:
20400440:	e52c 2043                                   ,.C 
