
Miniscope-v4-Wire-Free.elf:     file format elf32-littlearm

Sections:
Idx Name          Size      VMA       LMA       File off  Algn
  0 .text         00004180  00000000  00000000  00010000  2**2
                  CONTENTS, ALLOC, LOAD, READONLY, CODE
  1 .ARM.exidx    00000008  00004180  00004180  00014180  2**2
                  CONTENTS, ALLOC, LOAD, READONLY, DATA
  2 .relocate     0000003c  20000000  00004188  00020000  2**2
                  CONTENTS, ALLOC, LOAD, DATA
  3 .bkupram      00000000  47000000  47000000  0002003c  2**0
                  CONTENTS
  4 .qspi         00000000  04000000  04000000  0002003c  2**0
                  CONTENTS
  5 .bss          000293b4  20000040  000041d0  00020040  2**4
                  ALLOC
  6 .stack        00010004  200293f4  0002d584  00020040  2**0
                  ALLOC
  7 .ARM.attributes 0000002e  00000000  00000000  0002003c  2**0
                  CONTENTS, READONLY
  8 .comment      00000059  00000000  00000000  0002006a  2**0
                  CONTENTS, READONLY
  9 .debug_frame  000000ac  00000000  00000000  000200c4  2**2
                  CONTENTS, READONLY, DEBUGGING

Disassembly of section .text:

00000000 <exception_table>:
       0:	f8 93 03 20 ed 02 00 00 e9 02 00 00 e9 02 00 00     ... ............
      10:	e9 02 00 00 e9 02 00 00 e9 02 00 00 00 00 00 00     ................
	...
      2c:	e9 02 00 00 e9 02 00 00 00 00 00 00 e9 02 00 00     ................
      3c:	e9 02 00 00 e9 02 00 00 e9 02 00 00 e9 02 00 00     ................
      4c:	e9 02 00 00 e9 02 00 00 e9 02 00 00 e9 02 00 00     ................
      5c:	e9 02 00 00 e9 02 00 00 e9 02 00 00 e9 02 00 00     ................
      6c:	e9 02 00 00 e9 02 00 00 e9 02 00 00 e9 02 00 00     ................
      7c:	e9 02 00 00 e9 02 00 00 e9 02 00 00 7d 14 00 00     ............}...
      8c:	85 14 00 00 e9 02 00 00 8d 14 00 00 e9 02 00 00     ................
      9c:	e9 02 00 00 e9 02 00 00 e9 02 00 00 95 14 00 00     ................
      ac:	e9 02 00 00 e9 02 00 00 e9 02 00 00 e9 02 00 00     ................
      bc:	8d 12 00 00 95 12 00 00 9d 12 00 00 a5 12 00 00     ................
      cc:	ad 12 00 00 e9 02 00 00 e9 02 00 00 e9 02 00 00     ................
      dc:	e9 02 00 00 e9 02 00 00 e9 02 00 00 00 00 00 00     ................
	...
      f4:	9d 16 00 00 e9 02 00 00 e9 02 00 00 e9 02 00 00     ................
     104:	e9 02 00 00 e9 02 00 00 e9 02 00 00 e9 02 00 00     ................
     114:	e9 02 00 00 e9 02 00 00 e9 02 00 00 e9 02 00 00     ................
     124:	e9 02 00 00 e9 02 00 00 e9 02 00 00 e9 02 00 00     ................
     134:	e9 02 00 00 e9 02 00 00 e9 02 00 00 e9 02 00 00     ................
     144:	e9 02 00 00 e9 02 00 00 e9 02 00 00 e9 02 00 00     ................
     154:	e9 02 00 00 00 00 00 00 00 00 00 00 00 00 00 00     ................
	...
     180:	e9 02 00 00 e9 02 00 00 e9 02 00 00 e9 02 00 00     ................
     190:	00 00 00 00 e9 02 00 00 e9 02 00 00 e9 02 00 00     ................
     1a0:	e9 02 00 00 e9 02 00 00 e9 02 00 00 e9 02 00 00     ................
     1b0:	e9 02 00 00 e9 02 00 00 e9 02 00 00 e9 02 00 00     ................
     1c0:	e9 02 00 00 e9 02 00 00 e9 02 00 00 e9 02 00 00     ................
     1d0:	e9 02 00 00 e9 02 00 00 e9 02 00 00 e9 02 00 00     ................
     1e0:	e9 02 00 00 e9 02 00 00 e9 02 00 00 a9 1f 00 00     ................
     1f0:	e1 1f 00 00 e9 02 00 00 e9 02 00 00 e9 02 00 00     ................
     200:	e9 02 00 00 00 00 00 00 00 00 00 00 e9 02 00 00     ................
     210:	e9 02 00 00 e9 02 00 00 e9 02 00 00 e9 02 00 00     ................
     220:	e9 02 00 00 e9 02 00 00 e9 02 00 00 e9 02 00 00     ................
     230:	e9 02 00 00 e9 02 00 00 e9 02 00 00 e9 02 00 00     ................
     240:	e9 02 00 00 75 16 00 00 e9 02 00 00 e9 02 00 00     ....u...........
     250:	e9 02 00 00 e9 02 00 00 e9 02 00 00 e9 02 00 00     ................
     260:	00 00 00 00                                         ....

00000264 <__do_global_dtors_aux>:
     264:	b510      	push	{r4, lr}
     266:	4c05      	ldr	r4, [pc, #20]	; (27c <__do_global_dtors_aux+0x18>)
     268:	7823      	ldrb	r3, [r4, #0]
     26a:	b933      	cbnz	r3, 27a <__do_global_dtors_aux+0x16>
     26c:	4b04      	ldr	r3, [pc, #16]	; (280 <__do_global_dtors_aux+0x1c>)
     26e:	b113      	cbz	r3, 276 <__do_global_dtors_aux+0x12>
     270:	4804      	ldr	r0, [pc, #16]	; (284 <__do_global_dtors_aux+0x20>)
     272:	f3af 8000 	nop.w
     276:	2301      	movs	r3, #1
     278:	7023      	strb	r3, [r4, #0]
     27a:	bd10      	pop	{r4, pc}
     27c:	20000040 	.word	0x20000040
     280:	00000000 	.word	0x00000000
     284:	00004188 	.word	0x00004188

00000288 <frame_dummy>:
     288:	4b0c      	ldr	r3, [pc, #48]	; (2bc <frame_dummy+0x34>)
     28a:	b143      	cbz	r3, 29e <frame_dummy+0x16>
     28c:	480c      	ldr	r0, [pc, #48]	; (2c0 <frame_dummy+0x38>)
     28e:	490d      	ldr	r1, [pc, #52]	; (2c4 <frame_dummy+0x3c>)
     290:	b510      	push	{r4, lr}
     292:	f3af 8000 	nop.w
     296:	480c      	ldr	r0, [pc, #48]	; (2c8 <frame_dummy+0x40>)
     298:	6803      	ldr	r3, [r0, #0]
     29a:	b923      	cbnz	r3, 2a6 <frame_dummy+0x1e>
     29c:	bd10      	pop	{r4, pc}
     29e:	480a      	ldr	r0, [pc, #40]	; (2c8 <frame_dummy+0x40>)
     2a0:	6803      	ldr	r3, [r0, #0]
     2a2:	b933      	cbnz	r3, 2b2 <frame_dummy+0x2a>
     2a4:	4770      	bx	lr
     2a6:	4b09      	ldr	r3, [pc, #36]	; (2cc <frame_dummy+0x44>)
     2a8:	2b00      	cmp	r3, #0
     2aa:	d0f7      	beq.n	29c <frame_dummy+0x14>
     2ac:	e8bd 4010 	ldmia.w	sp!, {r4, lr}
     2b0:	4718      	bx	r3
     2b2:	4b06      	ldr	r3, [pc, #24]	; (2cc <frame_dummy+0x44>)
     2b4:	2b00      	cmp	r3, #0
     2b6:	d0f5      	beq.n	2a4 <frame_dummy+0x1c>
     2b8:	4718      	bx	r3
     2ba:	bf00      	nop
     2bc:	00000000 	.word	0x00000000
     2c0:	00004188 	.word	0x00004188
     2c4:	20000044 	.word	0x20000044
     2c8:	00004188 	.word	0x00004188
     2cc:	00000000 	.word	0x00000000

000002d0 <atmel_start_init>:
     2d0:	b510      	push	{r4, lr}
     2d2:	4b03      	ldr	r3, [pc, #12]	; (2e0 <atmel_start_init+0x10>)
     2d4:	4798      	blx	r3
     2d6:	4b03      	ldr	r3, [pc, #12]	; (2e4 <atmel_start_init+0x14>)
     2d8:	e8bd 4010 	ldmia.w	sp!, {r4, lr}
     2dc:	4718      	bx	r3
     2de:	bf00      	nop
     2e0:	00000799 	.word	0x00000799
     2e4:	00003bf5 	.word	0x00003bf5

000002e8 <Dummy_Handler>:
     2e8:	e7fe      	b.n	2e8 <Dummy_Handler>
	...

000002ec <Reset_Handler>:
     2ec:	b508      	push	{r3, lr}
     2ee:	4a14      	ldr	r2, [pc, #80]	; (340 <Reset_Handler+0x54>)
     2f0:	4b14      	ldr	r3, [pc, #80]	; (344 <Reset_Handler+0x58>)
     2f2:	429a      	cmp	r2, r3
     2f4:	d118      	bne.n	328 <Reset_Handler+0x3c>
     2f6:	4b14      	ldr	r3, [pc, #80]	; (348 <Reset_Handler+0x5c>)
     2f8:	4a14      	ldr	r2, [pc, #80]	; (34c <Reset_Handler+0x60>)
     2fa:	2100      	movs	r1, #0
     2fc:	4293      	cmp	r3, r2
     2fe:	d31c      	bcc.n	33a <Reset_Handler+0x4e>
     300:	4a13      	ldr	r2, [pc, #76]	; (350 <Reset_Handler+0x64>)
     302:	4b14      	ldr	r3, [pc, #80]	; (354 <Reset_Handler+0x68>)
     304:	f022 027f 	bic.w	r2, r2, #127	; 0x7f
     308:	609a      	str	r2, [r3, #8]
     30a:	f8d3 2088 	ldr.w	r2, [r3, #136]	; 0x88
     30e:	f442 0270 	orr.w	r2, r2, #15728640	; 0xf00000
     312:	f8c3 2088 	str.w	r2, [r3, #136]	; 0x88
     316:	f3bf 8f4f 	dsb	sy
     31a:	f3bf 8f6f 	isb	sy
     31e:	4b0e      	ldr	r3, [pc, #56]	; (358 <Reset_Handler+0x6c>)
     320:	4798      	blx	r3
     322:	4b0e      	ldr	r3, [pc, #56]	; (35c <Reset_Handler+0x70>)
     324:	4798      	blx	r3
     326:	e7fe      	b.n	326 <Reset_Handler+0x3a>
     328:	490d      	ldr	r1, [pc, #52]	; (360 <Reset_Handler+0x74>)
     32a:	3a04      	subs	r2, #4
     32c:	428b      	cmp	r3, r1
     32e:	d2e2      	bcs.n	2f6 <Reset_Handler+0xa>
     330:	f852 0f04 	ldr.w	r0, [r2, #4]!
     334:	f843 0b04 	str.w	r0, [r3], #4
     338:	e7f8      	b.n	32c <Reset_Handler+0x40>
     33a:	f843 1b04 	str.w	r1, [r3], #4
     33e:	e7dd      	b.n	2fc <Reset_Handler+0x10>
     340:	00004188 	.word	0x00004188
     344:	20000000 	.word	0x20000000
     348:	20000040 	.word	0x20000040
     34c:	200293f4 	.word	0x200293f4
     350:	00000000 	.word	0x00000000
     354:	e000ed00 	.word	0xe000ed00
     358:	00003f1d 	.word	0x00003f1d
     35c:	000030b9 	.word	0x000030b9
     360:	2000003c 	.word	0x2000003c

00000364 <_gpio_set_pin_function>:
     364:	b530      	push	{r4, r5, lr}
     366:	1c4a      	adds	r2, r1, #1
     368:	b2c4      	uxtb	r4, r0
     36a:	f3c0 1247 	ubfx	r2, r0, #5, #8
     36e:	4816      	ldr	r0, [pc, #88]	; (3c8 <_gpio_set_pin_function+0x64>)
     370:	f004 031f 	and.w	r3, r4, #31
     374:	eb00 10c2 	add.w	r0, r0, r2, lsl #7
     378:	d107      	bne.n	38a <_gpio_set_pin_function+0x26>
     37a:	4418      	add	r0, r3
     37c:	f890 3040 	ldrb.w	r3, [r0, #64]	; 0x40
     380:	f003 03fe 	and.w	r3, r3, #254	; 0xfe
     384:	f880 3040 	strb.w	r3, [r0, #64]	; 0x40
     388:	bd30      	pop	{r4, r5, pc}
     38a:	18c5      	adds	r5, r0, r3
     38c:	085b      	lsrs	r3, r3, #1
     38e:	f895 2040 	ldrb.w	r2, [r5, #64]	; 0x40
     392:	f002 02fe 	and.w	r2, r2, #254	; 0xfe
     396:	4418      	add	r0, r3
     398:	f042 0201 	orr.w	r2, r2, #1
     39c:	f885 2040 	strb.w	r2, [r5, #64]	; 0x40
     3a0:	f890 3030 	ldrb.w	r3, [r0, #48]	; 0x30
     3a4:	f014 0f01 	tst.w	r4, #1
     3a8:	bf19      	ittee	ne
     3aa:	f003 030f 	andne.w	r3, r3, #15
     3ae:	ea43 1101 	orrne.w	r1, r3, r1, lsl #4
     3b2:	f001 010f 	andeq.w	r1, r1, #15
     3b6:	f003 03f0 	andeq.w	r3, r3, #240	; 0xf0
     3ba:	bf14      	ite	ne
     3bc:	b2c9      	uxtbne	r1, r1
     3be:	4319      	orreq	r1, r3
     3c0:	f880 1030 	strb.w	r1, [r0, #48]	; 0x30
     3c4:	bd30      	pop	{r4, r5, pc}
     3c6:	bf00      	nop
     3c8:	41008000 	.word	0x41008000

000003cc <gpio_set_pin_direction>:
     3cc:	2201      	movs	r2, #1
     3ce:	0943      	lsrs	r3, r0, #5
     3d0:	4291      	cmp	r1, r2
     3d2:	f000 001f 	and.w	r0, r0, #31
     3d6:	fa02 f000 	lsl.w	r0, r2, r0
     3da:	d011      	beq.n	400 <gpio_set_pin_direction+0x34>
     3dc:	d302      	bcc.n	3e4 <gpio_set_pin_direction+0x18>
     3de:	2902      	cmp	r1, #2
     3e0:	d01f      	beq.n	422 <gpio_set_pin_direction+0x56>
     3e2:	4770      	bx	lr
     3e4:	01db      	lsls	r3, r3, #7
     3e6:	f103 4382 	add.w	r3, r3, #1090519040	; 0x41000000
     3ea:	f503 4300 	add.w	r3, r3, #32768	; 0x8000
     3ee:	6058      	str	r0, [r3, #4]
     3f0:	b282      	uxth	r2, r0
     3f2:	f042 4280 	orr.w	r2, r2, #1073741824	; 0x40000000
     3f6:	0c00      	lsrs	r0, r0, #16
     3f8:	629a      	str	r2, [r3, #40]	; 0x28
     3fa:	f040 4040 	orr.w	r0, r0, #3221225472	; 0xc0000000
     3fe:	e00e      	b.n	41e <gpio_set_pin_direction+0x52>
     400:	01db      	lsls	r3, r3, #7
     402:	b282      	uxth	r2, r0
     404:	f103 4382 	add.w	r3, r3, #1090519040	; 0x41000000
     408:	f503 4300 	add.w	r3, r3, #32768	; 0x8000
     40c:	f042 4280 	orr.w	r2, r2, #1073741824	; 0x40000000
     410:	f442 3200 	orr.w	r2, r2, #131072	; 0x20000
     414:	6058      	str	r0, [r3, #4]
     416:	629a      	str	r2, [r3, #40]	; 0x28
     418:	4a05      	ldr	r2, [pc, #20]	; (430 <gpio_set_pin_direction+0x64>)
     41a:	ea42 4010 	orr.w	r0, r2, r0, lsr #16
     41e:	6298      	str	r0, [r3, #40]	; 0x28
     420:	4770      	bx	lr
     422:	01db      	lsls	r3, r3, #7
     424:	f103 4382 	add.w	r3, r3, #1090519040	; 0x41000000
     428:	f503 4300 	add.w	r3, r3, #32768	; 0x8000
     42c:	6098      	str	r0, [r3, #8]
     42e:	e7df      	b.n	3f0 <gpio_set_pin_direction+0x24>
     430:	c0020000 	.word	0xc0020000

00000434 <ADC_0_PORT_init>:
     434:	b510      	push	{r4, lr}
     436:	2100      	movs	r1, #0
     438:	2002      	movs	r0, #2
     43a:	4b04      	ldr	r3, [pc, #16]	; (44c <ADC_0_PORT_init+0x18>)
     43c:	4798      	blx	r3
     43e:	4904      	ldr	r1, [pc, #16]	; (450 <ADC_0_PORT_init+0x1c>)
     440:	4b04      	ldr	r3, [pc, #16]	; (454 <ADC_0_PORT_init+0x20>)
     442:	2002      	movs	r0, #2
     444:	e8bd 4010 	ldmia.w	sp!, {r4, lr}
     448:	4718      	bx	r3
     44a:	bf00      	nop
     44c:	000003cd 	.word	0x000003cd
     450:	00020001 	.word	0x00020001
     454:	00000365 	.word	0x00000365

00000458 <ADC_0_CLOCK_init>:
     458:	4a04      	ldr	r2, [pc, #16]	; (46c <ADC_0_CLOCK_init+0x14>)
     45a:	6a13      	ldr	r3, [r2, #32]
     45c:	f043 0380 	orr.w	r3, r3, #128	; 0x80
     460:	6213      	str	r3, [r2, #32]
     462:	4b03      	ldr	r3, [pc, #12]	; (470 <ADC_0_CLOCK_init+0x18>)
     464:	2240      	movs	r2, #64	; 0x40
     466:	f8c3 2120 	str.w	r2, [r3, #288]	; 0x120
     46a:	4770      	bx	lr
     46c:	40000800 	.word	0x40000800
     470:	40001c00 	.word	0x40001c00

00000474 <ADC_0_init>:
     474:	b510      	push	{r4, lr}
     476:	4b05      	ldr	r3, [pc, #20]	; (48c <ADC_0_init+0x18>)
     478:	4798      	blx	r3
     47a:	4b05      	ldr	r3, [pc, #20]	; (490 <ADC_0_init+0x1c>)
     47c:	4798      	blx	r3
     47e:	2200      	movs	r2, #0
     480:	4904      	ldr	r1, [pc, #16]	; (494 <ADC_0_init+0x20>)
     482:	4805      	ldr	r0, [pc, #20]	; (498 <ADC_0_init+0x24>)
     484:	4b05      	ldr	r3, [pc, #20]	; (49c <ADC_0_init+0x28>)
     486:	e8bd 4010 	ldmia.w	sp!, {r4, lr}
     48a:	4718      	bx	r3
     48c:	00000459 	.word	0x00000459
     490:	00000435 	.word	0x00000435
     494:	43001c00 	.word	0x43001c00
     498:	200006c8 	.word	0x200006c8
     49c:	0000098d 	.word	0x0000098d

000004a0 <EXTERNAL_IRQ_0_init>:
     4a0:	b570      	push	{r4, r5, r6, lr}
     4a2:	4b22      	ldr	r3, [pc, #136]	; (52c <EXTERNAL_IRQ_0_init+0x8c>)
     4a4:	4c22      	ldr	r4, [pc, #136]	; (530 <EXTERNAL_IRQ_0_init+0x90>)
     4a6:	4e23      	ldr	r6, [pc, #140]	; (534 <EXTERNAL_IRQ_0_init+0x94>)
     4a8:	4d23      	ldr	r5, [pc, #140]	; (538 <EXTERNAL_IRQ_0_init+0x98>)
     4aa:	2240      	movs	r2, #64	; 0x40
     4ac:	f8c3 2090 	str.w	r2, [r3, #144]	; 0x90
     4b0:	4a22      	ldr	r2, [pc, #136]	; (53c <EXTERNAL_IRQ_0_init+0x9c>)
     4b2:	6953      	ldr	r3, [r2, #20]
     4b4:	f443 6380 	orr.w	r3, r3, #1024	; 0x400
     4b8:	6153      	str	r3, [r2, #20]
     4ba:	2101      	movs	r1, #1
     4bc:	2036      	movs	r0, #54	; 0x36
     4be:	47b0      	blx	r6
     4c0:	f894 30d6 	ldrb.w	r3, [r4, #214]	; 0xd6
     4c4:	f003 03fb 	and.w	r3, r3, #251	; 0xfb
     4c8:	f884 30d6 	strb.w	r3, [r4, #214]	; 0xd6
     4cc:	f44f 1158 	mov.w	r1, #3538944	; 0x360000
     4d0:	2036      	movs	r0, #54	; 0x36
     4d2:	47a8      	blx	r5
     4d4:	2101      	movs	r1, #1
     4d6:	2037      	movs	r0, #55	; 0x37
     4d8:	47b0      	blx	r6
     4da:	f894 30d7 	ldrb.w	r3, [r4, #215]	; 0xd7
     4de:	f003 03fb 	and.w	r3, r3, #251	; 0xfb
     4e2:	f884 30d7 	strb.w	r3, [r4, #215]	; 0xd7
     4e6:	f44f 115c 	mov.w	r1, #3604480	; 0x370000
     4ea:	2037      	movs	r0, #55	; 0x37
     4ec:	47a8      	blx	r5
     4ee:	2101      	movs	r1, #1
     4f0:	2019      	movs	r0, #25
     4f2:	47b0      	blx	r6
     4f4:	f894 3059 	ldrb.w	r3, [r4, #89]	; 0x59
     4f8:	f003 03fb 	and.w	r3, r3, #251	; 0xfb
     4fc:	f884 3059 	strb.w	r3, [r4, #89]	; 0x59
     500:	f44f 11c8 	mov.w	r1, #1638400	; 0x190000
     504:	2019      	movs	r0, #25
     506:	47a8      	blx	r5
     508:	2101      	movs	r1, #1
     50a:	202e      	movs	r0, #46	; 0x2e
     50c:	47b0      	blx	r6
     50e:	f894 30ce 	ldrb.w	r3, [r4, #206]	; 0xce
     512:	f003 03fb 	and.w	r3, r3, #251	; 0xfb
     516:	f884 30ce 	strb.w	r3, [r4, #206]	; 0xce
     51a:	f44f 1138 	mov.w	r1, #3014656	; 0x2e0000
     51e:	202e      	movs	r0, #46	; 0x2e
     520:	47a8      	blx	r5
     522:	4b07      	ldr	r3, [pc, #28]	; (540 <EXTERNAL_IRQ_0_init+0xa0>)
     524:	e8bd 4070 	ldmia.w	sp!, {r4, r5, r6, lr}
     528:	4718      	bx	r3
     52a:	bf00      	nop
     52c:	40001c00 	.word	0x40001c00
     530:	41008000 	.word	0x41008000
     534:	000003cd 	.word	0x000003cd
     538:	00000365 	.word	0x00000365
     53c:	40000800 	.word	0x40000800
     540:	00000ae5 	.word	0x00000ae5

00000544 <CAMERA_0_PORT_init>:
     544:	b510      	push	{r4, lr}
     546:	4912      	ldr	r1, [pc, #72]	; (590 <CAMERA_0_PORT_init+0x4c>)
     548:	4c12      	ldr	r4, [pc, #72]	; (594 <CAMERA_0_PORT_init+0x50>)
     54a:	200e      	movs	r0, #14
     54c:	47a0      	blx	r4
     54e:	4912      	ldr	r1, [pc, #72]	; (598 <CAMERA_0_PORT_init+0x54>)
     550:	2010      	movs	r0, #16
     552:	47a0      	blx	r4
     554:	4911      	ldr	r1, [pc, #68]	; (59c <CAMERA_0_PORT_init+0x58>)
     556:	2011      	movs	r0, #17
     558:	47a0      	blx	r4
     55a:	4911      	ldr	r1, [pc, #68]	; (5a0 <CAMERA_0_PORT_init+0x5c>)
     55c:	2012      	movs	r0, #18
     55e:	47a0      	blx	r4
     560:	4910      	ldr	r1, [pc, #64]	; (5a4 <CAMERA_0_PORT_init+0x60>)
     562:	2013      	movs	r0, #19
     564:	47a0      	blx	r4
     566:	4910      	ldr	r1, [pc, #64]	; (5a8 <CAMERA_0_PORT_init+0x64>)
     568:	2014      	movs	r0, #20
     56a:	47a0      	blx	r4
     56c:	490f      	ldr	r1, [pc, #60]	; (5ac <CAMERA_0_PORT_init+0x68>)
     56e:	2015      	movs	r0, #21
     570:	47a0      	blx	r4
     572:	490f      	ldr	r1, [pc, #60]	; (5b0 <CAMERA_0_PORT_init+0x6c>)
     574:	2016      	movs	r0, #22
     576:	47a0      	blx	r4
     578:	490e      	ldr	r1, [pc, #56]	; (5b4 <CAMERA_0_PORT_init+0x70>)
     57a:	2017      	movs	r0, #23
     57c:	47a0      	blx	r4
     57e:	490e      	ldr	r1, [pc, #56]	; (5b8 <CAMERA_0_PORT_init+0x74>)
     580:	200c      	movs	r0, #12
     582:	47a0      	blx	r4
     584:	4623      	mov	r3, r4
     586:	490d      	ldr	r1, [pc, #52]	; (5bc <CAMERA_0_PORT_init+0x78>)
     588:	200d      	movs	r0, #13
     58a:	e8bd 4010 	ldmia.w	sp!, {r4, lr}
     58e:	4718      	bx	r3
     590:	000e000a 	.word	0x000e000a
     594:	00000365 	.word	0x00000365
     598:	0010000a 	.word	0x0010000a
     59c:	0011000a 	.word	0x0011000a
     5a0:	0012000a 	.word	0x0012000a
     5a4:	0013000a 	.word	0x0013000a
     5a8:	0014000a 	.word	0x0014000a
     5ac:	0015000a 	.word	0x0015000a
     5b0:	0016000a 	.word	0x0016000a
     5b4:	0017000a 	.word	0x0017000a
     5b8:	000c000a 	.word	0x000c000a
     5bc:	000d000a 	.word	0x000d000a

000005c0 <CAMERA_0_CLOCK_init>:
     5c0:	4a02      	ldr	r2, [pc, #8]	; (5cc <CAMERA_0_CLOCK_init+0xc>)
     5c2:	6a13      	ldr	r3, [r2, #32]
     5c4:	f443 6300 	orr.w	r3, r3, #2048	; 0x800
     5c8:	6213      	str	r3, [r2, #32]
     5ca:	4770      	bx	lr
     5cc:	40000800 	.word	0x40000800

000005d0 <CAMERA_0_init>:
     5d0:	b510      	push	{r4, lr}
     5d2:	4b05      	ldr	r3, [pc, #20]	; (5e8 <CAMERA_0_init+0x18>)
     5d4:	4798      	blx	r3
     5d6:	4b05      	ldr	r3, [pc, #20]	; (5ec <CAMERA_0_init+0x1c>)
     5d8:	4905      	ldr	r1, [pc, #20]	; (5f0 <CAMERA_0_init+0x20>)
     5da:	4806      	ldr	r0, [pc, #24]	; (5f4 <CAMERA_0_init+0x24>)
     5dc:	4798      	blx	r3
     5de:	4b06      	ldr	r3, [pc, #24]	; (5f8 <CAMERA_0_init+0x28>)
     5e0:	e8bd 4010 	ldmia.w	sp!, {r4, lr}
     5e4:	4718      	bx	r3
     5e6:	bf00      	nop
     5e8:	000005c1 	.word	0x000005c1
     5ec:	00000a35 	.word	0x00000a35
     5f0:	43002c00 	.word	0x43002c00
     5f4:	200006b4 	.word	0x200006b4
     5f8:	00000545 	.word	0x00000545

000005fc <IO_BUS_PORT_init>:
     5fc:	e92d 41f0 	stmdb	sp!, {r4, r5, r6, r7, r8, lr}
     600:	4c2f      	ldr	r4, [pc, #188]	; (6c0 <IO_BUS_PORT_init+0xc4>)
     602:	4e30      	ldr	r6, [pc, #192]	; (6c4 <IO_BUS_PORT_init+0xc8>)
     604:	4d30      	ldr	r5, [pc, #192]	; (6c8 <IO_BUS_PORT_init+0xcc>)
     606:	f44f 6700 	mov.w	r7, #2048	; 0x800
     60a:	2102      	movs	r1, #2
     60c:	202b      	movs	r0, #43	; 0x2b
     60e:	47b0      	blx	r6
     610:	f8c4 7094 	str.w	r7, [r4, #148]	; 0x94
     614:	f894 30cb 	ldrb.w	r3, [r4, #203]	; 0xcb
     618:	492c      	ldr	r1, [pc, #176]	; (6cc <IO_BUS_PORT_init+0xd0>)
     61a:	f003 03fb 	and.w	r3, r3, #251	; 0xfb
     61e:	f884 30cb 	strb.w	r3, [r4, #203]	; 0xcb
     622:	202b      	movs	r0, #43	; 0x2b
     624:	47a8      	blx	r5
     626:	2102      	movs	r1, #2
     628:	2008      	movs	r0, #8
     62a:	47b0      	blx	r6
     62c:	f44f 7380 	mov.w	r3, #256	; 0x100
     630:	6163      	str	r3, [r4, #20]
     632:	f894 3048 	ldrb.w	r3, [r4, #72]	; 0x48
     636:	f003 03fb 	and.w	r3, r3, #251	; 0xfb
     63a:	f884 3048 	strb.w	r3, [r4, #72]	; 0x48
     63e:	f04f 1108 	mov.w	r1, #524296	; 0x80008
     642:	2008      	movs	r0, #8
     644:	47a8      	blx	r5
     646:	2102      	movs	r1, #2
     648:	2009      	movs	r0, #9
     64a:	47b0      	blx	r6
     64c:	f44f 7300 	mov.w	r3, #512	; 0x200
     650:	6163      	str	r3, [r4, #20]
     652:	f894 3049 	ldrb.w	r3, [r4, #73]	; 0x49
     656:	491e      	ldr	r1, [pc, #120]	; (6d0 <IO_BUS_PORT_init+0xd4>)
     658:	f003 03fb 	and.w	r3, r3, #251	; 0xfb
     65c:	f884 3049 	strb.w	r3, [r4, #73]	; 0x49
     660:	2009      	movs	r0, #9
     662:	47a8      	blx	r5
     664:	f44f 6880 	mov.w	r8, #1024	; 0x400
     668:	2102      	movs	r1, #2
     66a:	200a      	movs	r0, #10
     66c:	47b0      	blx	r6
     66e:	f8c4 8014 	str.w	r8, [r4, #20]
     672:	f894 304a 	ldrb.w	r3, [r4, #74]	; 0x4a
     676:	4917      	ldr	r1, [pc, #92]	; (6d4 <IO_BUS_PORT_init+0xd8>)
     678:	f003 03fb 	and.w	r3, r3, #251	; 0xfb
     67c:	f884 304a 	strb.w	r3, [r4, #74]	; 0x4a
     680:	200a      	movs	r0, #10
     682:	47a8      	blx	r5
     684:	2102      	movs	r1, #2
     686:	200b      	movs	r0, #11
     688:	47b0      	blx	r6
     68a:	6167      	str	r7, [r4, #20]
     68c:	f894 304b 	ldrb.w	r3, [r4, #75]	; 0x4b
     690:	4911      	ldr	r1, [pc, #68]	; (6d8 <IO_BUS_PORT_init+0xdc>)
     692:	f003 03fb 	and.w	r3, r3, #251	; 0xfb
     696:	f884 304b 	strb.w	r3, [r4, #75]	; 0x4b
     69a:	200b      	movs	r0, #11
     69c:	47a8      	blx	r5
     69e:	2102      	movs	r1, #2
     6a0:	202a      	movs	r0, #42	; 0x2a
     6a2:	47b0      	blx	r6
     6a4:	f8c4 8094 	str.w	r8, [r4, #148]	; 0x94
     6a8:	f894 30ca 	ldrb.w	r3, [r4, #202]	; 0xca
     6ac:	490b      	ldr	r1, [pc, #44]	; (6dc <IO_BUS_PORT_init+0xe0>)
     6ae:	f003 03fb 	and.w	r3, r3, #251	; 0xfb
     6b2:	f884 30ca 	strb.w	r3, [r4, #202]	; 0xca
     6b6:	202a      	movs	r0, #42	; 0x2a
     6b8:	462b      	mov	r3, r5
     6ba:	e8bd 41f0 	ldmia.w	sp!, {r4, r5, r6, r7, r8, lr}
     6be:	4718      	bx	r3
     6c0:	41008000 	.word	0x41008000
     6c4:	000003cd 	.word	0x000003cd
     6c8:	00000365 	.word	0x00000365
     6cc:	002b0008 	.word	0x002b0008
     6d0:	00090008 	.word	0x00090008
     6d4:	000a0008 	.word	0x000a0008
     6d8:	000b0008 	.word	0x000b0008
     6dc:	002a0008 	.word	0x002a0008

000006e0 <IO_BUS_CLOCK_init>:
     6e0:	4a05      	ldr	r2, [pc, #20]	; (6f8 <IO_BUS_CLOCK_init+0x18>)
     6e2:	6913      	ldr	r3, [r2, #16]
     6e4:	f443 4300 	orr.w	r3, r3, #32768	; 0x8000
     6e8:	6113      	str	r3, [r2, #16]
     6ea:	4b04      	ldr	r3, [pc, #16]	; (6fc <IO_BUS_CLOCK_init+0x1c>)
     6ec:	2240      	movs	r2, #64	; 0x40
     6ee:	f8c3 2134 	str.w	r2, [r3, #308]	; 0x134
     6f2:	f8c3 208c 	str.w	r2, [r3, #140]	; 0x8c
     6f6:	4770      	bx	lr
     6f8:	40000800 	.word	0x40000800
     6fc:	40001c00 	.word	0x40001c00

00000700 <IO_BUS_init>:
     700:	b510      	push	{r4, lr}
     702:	4b05      	ldr	r3, [pc, #20]	; (718 <IO_BUS_init+0x18>)
     704:	4798      	blx	r3
     706:	4b05      	ldr	r3, [pc, #20]	; (71c <IO_BUS_init+0x1c>)
     708:	4805      	ldr	r0, [pc, #20]	; (720 <IO_BUS_init+0x20>)
     70a:	f04f 418a 	mov.w	r1, #1157627904	; 0x45000000
     70e:	4798      	blx	r3
     710:	4b04      	ldr	r3, [pc, #16]	; (724 <IO_BUS_init+0x24>)
     712:	e8bd 4010 	ldmia.w	sp!, {r4, lr}
     716:	4718      	bx	r3
     718:	000006e1 	.word	0x000006e1
     71c:	00000b95 	.word	0x00000b95
     720:	200006d0 	.word	0x200006d0
     724:	000005fd 	.word	0x000005fd

00000728 <delay_driver_init>:
     728:	4801      	ldr	r0, [pc, #4]	; (730 <delay_driver_init+0x8>)
     72a:	4b02      	ldr	r3, [pc, #8]	; (734 <delay_driver_init+0xc>)
     72c:	4718      	bx	r3
     72e:	bf00      	nop
     730:	e000e010 	.word	0xe000e010
     734:	00000a4d 	.word	0x00000a4d

00000738 <PWM_0_PORT_init>:
     738:	4901      	ldr	r1, [pc, #4]	; (740 <PWM_0_PORT_init+0x8>)
     73a:	4b02      	ldr	r3, [pc, #8]	; (744 <PWM_0_PORT_init+0xc>)
     73c:	203e      	movs	r0, #62	; 0x3e
     73e:	4718      	bx	r3
     740:	003e0004 	.word	0x003e0004
     744:	00000365 	.word	0x00000365

00000748 <PWM_0_CLOCK_init>:
     748:	4a04      	ldr	r2, [pc, #16]	; (75c <PWM_0_CLOCK_init+0x14>)
     74a:	6953      	ldr	r3, [r2, #20]
     74c:	f443 4380 	orr.w	r3, r3, #16384	; 0x4000
     750:	6153      	str	r3, [r2, #20]
     752:	4b03      	ldr	r3, [pc, #12]	; (760 <PWM_0_CLOCK_init+0x18>)
     754:	2240      	movs	r2, #64	; 0x40
     756:	f8c3 20a4 	str.w	r2, [r3, #164]	; 0xa4
     75a:	4770      	bx	lr
     75c:	40000800 	.word	0x40000800
     760:	40001c00 	.word	0x40001c00

00000764 <PWM_0_init>:
     764:	b510      	push	{r4, lr}
     766:	4b06      	ldr	r3, [pc, #24]	; (780 <PWM_0_init+0x1c>)
     768:	4798      	blx	r3
     76a:	4b06      	ldr	r3, [pc, #24]	; (784 <PWM_0_init+0x20>)
     76c:	4798      	blx	r3
     76e:	4b06      	ldr	r3, [pc, #24]	; (788 <PWM_0_init+0x24>)
     770:	4798      	blx	r3
     772:	4906      	ldr	r1, [pc, #24]	; (78c <PWM_0_init+0x28>)
     774:	4b06      	ldr	r3, [pc, #24]	; (790 <PWM_0_init+0x2c>)
     776:	4602      	mov	r2, r0
     778:	e8bd 4010 	ldmia.w	sp!, {r4, lr}
     77c:	4805      	ldr	r0, [pc, #20]	; (794 <PWM_0_init+0x30>)
     77e:	4718      	bx	r3
     780:	00000749 	.word	0x00000749
     784:	00000739 	.word	0x00000739
     788:	00001f7d 	.word	0x00001f7d
     78c:	40003800 	.word	0x40003800
     790:	00000c49 	.word	0x00000c49
     794:	20000698 	.word	0x20000698

00000798 <system_init>:
     798:	e92d 41f0 	stmdb	sp!, {r4, r5, r6, r7, r8, lr}
     79c:	4b6b      	ldr	r3, [pc, #428]	; (94c <system_init+0x1b4>)
     79e:	4c6c      	ldr	r4, [pc, #432]	; (950 <system_init+0x1b8>)
     7a0:	4d6c      	ldr	r5, [pc, #432]	; (954 <system_init+0x1bc>)
     7a2:	4798      	blx	r3
     7a4:	2310      	movs	r3, #16
     7a6:	6163      	str	r3, [r4, #20]
     7a8:	2102      	movs	r1, #2
     7aa:	2004      	movs	r0, #4
     7ac:	47a8      	blx	r5
     7ae:	f894 3044 	ldrb.w	r3, [r4, #68]	; 0x44
     7b2:	2620      	movs	r6, #32
     7b4:	f003 03fe 	and.w	r3, r3, #254	; 0xfe
     7b8:	f884 3044 	strb.w	r3, [r4, #68]	; 0x44
     7bc:	2102      	movs	r1, #2
     7be:	6166      	str	r6, [r4, #20]
     7c0:	2005      	movs	r0, #5
     7c2:	47a8      	blx	r5
     7c4:	f894 3045 	ldrb.w	r3, [r4, #69]	; 0x45
     7c8:	f003 03fe 	and.w	r3, r3, #254	; 0xfe
     7cc:	f884 3045 	strb.w	r3, [r4, #69]	; 0x45
     7d0:	2101      	movs	r1, #1
     7d2:	2006      	movs	r0, #6
     7d4:	47a8      	blx	r5
     7d6:	f894 3046 	ldrb.w	r3, [r4, #70]	; 0x46
     7da:	f003 03fb 	and.w	r3, r3, #251	; 0xfb
     7de:	f884 3046 	strb.w	r3, [r4, #70]	; 0x46
     7e2:	f894 3046 	ldrb.w	r3, [r4, #70]	; 0x46
     7e6:	f003 03fe 	and.w	r3, r3, #254	; 0xfe
     7ea:	f884 3046 	strb.w	r3, [r4, #70]	; 0x46
     7ee:	2101      	movs	r1, #1
     7f0:	2007      	movs	r0, #7
     7f2:	47a8      	blx	r5
     7f4:	f894 3047 	ldrb.w	r3, [r4, #71]	; 0x47
     7f8:	f003 03fb 	and.w	r3, r3, #251	; 0xfb
     7fc:	f884 3047 	strb.w	r3, [r4, #71]	; 0x47
     800:	f894 3047 	ldrb.w	r3, [r4, #71]	; 0x47
     804:	f44f 4700 	mov.w	r7, #32768	; 0x8000
     808:	f003 03fe 	and.w	r3, r3, #254	; 0xfe
     80c:	f884 3047 	strb.w	r3, [r4, #71]	; 0x47
     810:	2102      	movs	r1, #2
     812:	6167      	str	r7, [r4, #20]
     814:	200f      	movs	r0, #15
     816:	47a8      	blx	r5
     818:	f894 304f 	ldrb.w	r3, [r4, #79]	; 0x4f
     81c:	f003 03fe 	and.w	r3, r3, #254	; 0xfe
     820:	f884 304f 	strb.w	r3, [r4, #79]	; 0x4f
     824:	f04f 7380 	mov.w	r3, #16777216	; 0x1000000
     828:	6163      	str	r3, [r4, #20]
     82a:	2102      	movs	r1, #2
     82c:	2018      	movs	r0, #24
     82e:	47a8      	blx	r5
     830:	f894 3058 	ldrb.w	r3, [r4, #88]	; 0x58
     834:	f04f 0801 	mov.w	r8, #1
     838:	f003 03fe 	and.w	r3, r3, #254	; 0xfe
     83c:	f884 3058 	strb.w	r3, [r4, #88]	; 0x58
     840:	4630      	mov	r0, r6
     842:	f8c4 8094 	str.w	r8, [r4, #148]	; 0x94
     846:	2102      	movs	r1, #2
     848:	47a8      	blx	r5
     84a:	f894 30c0 	ldrb.w	r3, [r4, #192]	; 0xc0
     84e:	2602      	movs	r6, #2
     850:	f003 03fe 	and.w	r3, r3, #254	; 0xfe
     854:	f884 30c0 	strb.w	r3, [r4, #192]	; 0xc0
     858:	4631      	mov	r1, r6
     85a:	f8c4 6094 	str.w	r6, [r4, #148]	; 0x94
     85e:	2021      	movs	r0, #33	; 0x21
     860:	47a8      	blx	r5
     862:	f894 30c1 	ldrb.w	r3, [r4, #193]	; 0xc1
     866:	f003 03fe 	and.w	r3, r3, #254	; 0xfe
     86a:	f884 30c1 	strb.w	r3, [r4, #193]	; 0xc1
     86e:	2304      	movs	r3, #4
     870:	f8c4 3094 	str.w	r3, [r4, #148]	; 0x94
     874:	4631      	mov	r1, r6
     876:	2022      	movs	r0, #34	; 0x22
     878:	47a8      	blx	r5
     87a:	f894 30c2 	ldrb.w	r3, [r4, #194]	; 0xc2
     87e:	f003 03fe 	and.w	r3, r3, #254	; 0xfe
     882:	f884 30c2 	strb.w	r3, [r4, #194]	; 0xc2
     886:	4641      	mov	r1, r8
     888:	2025      	movs	r0, #37	; 0x25
     88a:	47a8      	blx	r5
     88c:	f894 30c5 	ldrb.w	r3, [r4, #197]	; 0xc5
     890:	f003 03fb 	and.w	r3, r3, #251	; 0xfb
     894:	f884 30c5 	strb.w	r3, [r4, #197]	; 0xc5
     898:	f894 30c5 	ldrb.w	r3, [r4, #197]	; 0xc5
     89c:	f003 03fe 	and.w	r3, r3, #254	; 0xfe
     8a0:	f884 30c5 	strb.w	r3, [r4, #197]	; 0xc5
     8a4:	f44f 7300 	mov.w	r3, #512	; 0x200
     8a8:	f8c4 3094 	str.w	r3, [r4, #148]	; 0x94
     8ac:	4631      	mov	r1, r6
     8ae:	2029      	movs	r0, #41	; 0x29
     8b0:	47a8      	blx	r5
     8b2:	f894 30c9 	ldrb.w	r3, [r4, #201]	; 0xc9
     8b6:	f003 03fe 	and.w	r3, r3, #254	; 0xfe
     8ba:	f884 30c9 	strb.w	r3, [r4, #201]	; 0xc9
     8be:	f44f 3380 	mov.w	r3, #65536	; 0x10000
     8c2:	f8c4 3098 	str.w	r3, [r4, #152]	; 0x98
     8c6:	4631      	mov	r1, r6
     8c8:	2030      	movs	r0, #48	; 0x30
     8ca:	47a8      	blx	r5
     8cc:	f894 30d0 	ldrb.w	r3, [r4, #208]	; 0xd0
     8d0:	f003 03fe 	and.w	r3, r3, #254	; 0xfe
     8d4:	f884 30d0 	strb.w	r3, [r4, #208]	; 0xd0
     8d8:	f44f 5300 	mov.w	r3, #8192	; 0x2000
     8dc:	f8c4 3094 	str.w	r3, [r4, #148]	; 0x94
     8e0:	4631      	mov	r1, r6
     8e2:	202d      	movs	r0, #45	; 0x2d
     8e4:	47a8      	blx	r5
     8e6:	f894 30cd 	ldrb.w	r3, [r4, #205]	; 0xcd
     8ea:	f003 03fe 	and.w	r3, r3, #254	; 0xfe
     8ee:	f884 30cd 	strb.w	r3, [r4, #205]	; 0xcd
     8f2:	4631      	mov	r1, r6
     8f4:	202f      	movs	r0, #47	; 0x2f
     8f6:	47a8      	blx	r5
     8f8:	f8c4 7094 	str.w	r7, [r4, #148]	; 0x94
     8fc:	f894 30cf 	ldrb.w	r3, [r4, #207]	; 0xcf
     900:	f003 03fb 	and.w	r3, r3, #251	; 0xfb
     904:	210c      	movs	r1, #12
     906:	202f      	movs	r0, #47	; 0x2f
     908:	f884 30cf 	strb.w	r3, [r4, #207]	; 0xcf
     90c:	4b12      	ldr	r3, [pc, #72]	; (958 <system_init+0x1c0>)
     90e:	4798      	blx	r3
     910:	4b12      	ldr	r3, [pc, #72]	; (95c <system_init+0x1c4>)
     912:	4798      	blx	r3
     914:	4b12      	ldr	r3, [pc, #72]	; (960 <system_init+0x1c8>)
     916:	4798      	blx	r3
     918:	4b12      	ldr	r3, [pc, #72]	; (964 <system_init+0x1cc>)
     91a:	4798      	blx	r3
     91c:	4b12      	ldr	r3, [pc, #72]	; (968 <system_init+0x1d0>)
     91e:	4798      	blx	r3
     920:	4b12      	ldr	r3, [pc, #72]	; (96c <system_init+0x1d4>)
     922:	4798      	blx	r3
     924:	4b12      	ldr	r3, [pc, #72]	; (970 <system_init+0x1d8>)
     926:	4798      	blx	r3
     928:	4a12      	ldr	r2, [pc, #72]	; (974 <system_init+0x1dc>)
     92a:	6953      	ldr	r3, [r2, #20]
     92c:	433b      	orrs	r3, r7
     92e:	6153      	str	r3, [r2, #20]
     930:	4b11      	ldr	r3, [pc, #68]	; (978 <system_init+0x1e0>)
     932:	2240      	movs	r2, #64	; 0x40
     934:	f8c3 20a4 	str.w	r2, [r3, #164]	; 0xa4
     938:	4b10      	ldr	r3, [pc, #64]	; (97c <system_init+0x1e4>)
     93a:	4798      	blx	r3
     93c:	4910      	ldr	r1, [pc, #64]	; (980 <system_init+0x1e8>)
     93e:	4b11      	ldr	r3, [pc, #68]	; (984 <system_init+0x1ec>)
     940:	4602      	mov	r2, r0
     942:	e8bd 41f0 	ldmia.w	sp!, {r4, r5, r6, r7, r8, lr}
     946:	4810      	ldr	r0, [pc, #64]	; (988 <system_init+0x1f0>)
     948:	4718      	bx	r3
     94a:	bf00      	nop
     94c:	00001039 	.word	0x00001039
     950:	41008000 	.word	0x41008000
     954:	000003cd 	.word	0x000003cd
     958:	00000365 	.word	0x00000365
     95c:	00000475 	.word	0x00000475
     960:	000004a1 	.word	0x000004a1
     964:	000005d1 	.word	0x000005d1
     968:	00000701 	.word	0x00000701
     96c:	00000729 	.word	0x00000729
     970:	00000765 	.word	0x00000765
     974:	40000800 	.word	0x40000800
     978:	40001c00 	.word	0x40001c00
     97c:	00001f79 	.word	0x00001f79
     980:	40003c00 	.word	0x40003c00
     984:	00000d55 	.word	0x00000d55
     988:	200006e8 	.word	0x200006e8

0000098c <adc_sync_init>:
     98c:	4b00      	ldr	r3, [pc, #0]	; (990 <adc_sync_init+0x4>)
     98e:	4718      	bx	r3
     990:	00000f91 	.word	0x00000f91

00000994 <adc_sync_enable_channel>:
     994:	b508      	push	{r3, lr}
     996:	4b02      	ldr	r3, [pc, #8]	; (9a0 <adc_sync_enable_channel+0xc>)
     998:	4798      	blx	r3
     99a:	2000      	movs	r0, #0
     99c:	bd08      	pop	{r3, pc}
     99e:	bf00      	nop
     9a0:	00000fb1 	.word	0x00000fb1

000009a4 <adc_sync_read_channel>:
     9a4:	e92d 4ff8 	stmdb	sp!, {r3, r4, r5, r6, r7, r8, r9, sl, fp, lr}
     9a8:	4698      	mov	r8, r3
     9aa:	4b15      	ldr	r3, [pc, #84]	; (a00 <adc_sync_read_channel+0x5c>)
     9ac:	f8df 9058 	ldr.w	r9, [pc, #88]	; a08 <adc_sync_read_channel+0x64>
     9b0:	f8df b058 	ldr.w	fp, [pc, #88]	; a0c <adc_sync_read_channel+0x68>
     9b4:	4604      	mov	r4, r0
     9b6:	460e      	mov	r6, r1
     9b8:	4617      	mov	r7, r2
     9ba:	4798      	blx	r3
     9bc:	f04f 0a00 	mov.w	sl, #0
     9c0:	4605      	mov	r5, r0
     9c2:	4620      	mov	r0, r4
     9c4:	47c8      	blx	r9
     9c6:	4631      	mov	r1, r6
     9c8:	4620      	mov	r0, r4
     9ca:	4b0e      	ldr	r3, [pc, #56]	; (a04 <adc_sync_read_channel+0x60>)
     9cc:	4798      	blx	r3
     9ce:	2800      	cmp	r0, #0
     9d0:	d0f9      	beq.n	9c6 <adc_sync_read_channel+0x22>
     9d2:	4631      	mov	r1, r6
     9d4:	4620      	mov	r0, r4
     9d6:	47d8      	blx	fp
     9d8:	2d01      	cmp	r5, #1
     9da:	bf88      	it	hi
     9dc:	eb07 020a 	addhi.w	r2, r7, sl
     9e0:	eb0a 0305 	add.w	r3, sl, r5
     9e4:	f807 000a 	strb.w	r0, [r7, sl]
     9e8:	bf88      	it	hi
     9ea:	0a00      	lsrhi	r0, r0, #8
     9ec:	fa1f fa83 	uxth.w	sl, r3
     9f0:	bf88      	it	hi
     9f2:	7050      	strbhi	r0, [r2, #1]
     9f4:	45d0      	cmp	r8, sl
     9f6:	d8e4      	bhi.n	9c2 <adc_sync_read_channel+0x1e>
     9f8:	4650      	mov	r0, sl
     9fa:	e8bd 8ff8 	ldmia.w	sp!, {r3, r4, r5, r6, r7, r8, r9, sl, fp, pc}
     9fe:	bf00      	nop
     a00:	00000fbd 	.word	0x00000fbd
     a04:	00000fcf 	.word	0x00000fcf
     a08:	00000fdd 	.word	0x00000fdd
     a0c:	00000ff5 	.word	0x00000ff5

00000a10 <atomic_enter_critical>:
     a10:	f3ef 8310 	mrs	r3, PRIMASK
     a14:	6003      	str	r3, [r0, #0]
     a16:	b672      	cpsid	i
     a18:	f3bf 8f5f 	dmb	sy
     a1c:	4770      	bx	lr

00000a1e <atomic_leave_critical>:
     a1e:	f3bf 8f5f 	dmb	sy
     a22:	6803      	ldr	r3, [r0, #0]
     a24:	f383 8810 	msr	PRIMASK, r3
     a28:	4770      	bx	lr

00000a2a <camera_async_capture_done>:
     a2a:	6903      	ldr	r3, [r0, #16]
     a2c:	b103      	cbz	r3, a30 <camera_async_capture_done+0x6>
     a2e:	4718      	bx	r3
     a30:	4770      	bx	lr
	...

00000a34 <camera_async_init>:
     a34:	b510      	push	{r4, lr}
     a36:	4b03      	ldr	r3, [pc, #12]	; (a44 <camera_async_init+0x10>)
     a38:	4604      	mov	r4, r0
     a3a:	4798      	blx	r3
     a3c:	4b02      	ldr	r3, [pc, #8]	; (a48 <camera_async_init+0x14>)
     a3e:	6023      	str	r3, [r4, #0]
     a40:	2000      	movs	r0, #0
     a42:	bd10      	pop	{r4, pc}
     a44:	0000163d 	.word	0x0000163d
     a48:	00000a2b 	.word	0x00000a2b

00000a4c <delay_init>:
     a4c:	4b01      	ldr	r3, [pc, #4]	; (a54 <delay_init+0x8>)
     a4e:	6018      	str	r0, [r3, #0]
     a50:	4b01      	ldr	r3, [pc, #4]	; (a58 <delay_init+0xc>)
     a52:	4718      	bx	r3
     a54:	2000005c 	.word	0x2000005c
     a58:	00001bb1 	.word	0x00001bb1

00000a5c <delay_us>:
     a5c:	4b05      	ldr	r3, [pc, #20]	; (a74 <delay_us+0x18>)
     a5e:	b510      	push	{r4, lr}
     a60:	681c      	ldr	r4, [r3, #0]
     a62:	4b05      	ldr	r3, [pc, #20]	; (a78 <delay_us+0x1c>)
     a64:	4798      	blx	r3
     a66:	4b05      	ldr	r3, [pc, #20]	; (a7c <delay_us+0x20>)
     a68:	4601      	mov	r1, r0
     a6a:	4620      	mov	r0, r4
     a6c:	e8bd 4010 	ldmia.w	sp!, {r4, lr}
     a70:	4718      	bx	r3
     a72:	bf00      	nop
     a74:	2000005c 	.word	0x2000005c
     a78:	0000101d 	.word	0x0000101d
     a7c:	00001bc5 	.word	0x00001bc5

00000a80 <delay_ms>:
     a80:	4b05      	ldr	r3, [pc, #20]	; (a98 <delay_ms+0x18>)
     a82:	b510      	push	{r4, lr}
     a84:	681c      	ldr	r4, [r3, #0]
     a86:	4b05      	ldr	r3, [pc, #20]	; (a9c <delay_ms+0x1c>)
     a88:	4798      	blx	r3
     a8a:	4b05      	ldr	r3, [pc, #20]	; (aa0 <delay_ms+0x20>)
     a8c:	4601      	mov	r1, r0
     a8e:	4620      	mov	r0, r4
     a90:	e8bd 4010 	ldmia.w	sp!, {r4, lr}
     a94:	4718      	bx	r3
     a96:	bf00      	nop
     a98:	2000005c 	.word	0x2000005c
     a9c:	0000102f 	.word	0x0000102f
     aa0:	00001bc5 	.word	0x00001bc5

00000aa4 <process_ext_irq>:
     aa4:	b470      	push	{r4, r5, r6}
     aa6:	4d0e      	ldr	r5, [pc, #56]	; (ae0 <process_ext_irq+0x3c>)
     aa8:	2104      	movs	r1, #4
     aaa:	2400      	movs	r4, #0
     aac:	190a      	adds	r2, r1, r4
     aae:	1052      	asrs	r2, r2, #1
     ab0:	2a03      	cmp	r2, #3
     ab2:	b2d3      	uxtb	r3, r2
     ab4:	dc11      	bgt.n	ada <process_ext_irq+0x36>
     ab6:	eb05 06c2 	add.w	r6, r5, r2, lsl #3
     aba:	6876      	ldr	r6, [r6, #4]
     abc:	4286      	cmp	r6, r0
     abe:	d104      	bne.n	aca <process_ext_irq+0x26>
     ac0:	f855 3032 	ldr.w	r3, [r5, r2, lsl #3]
     ac4:	b14b      	cbz	r3, ada <process_ext_irq+0x36>
     ac6:	bc70      	pop	{r4, r5, r6}
     ac8:	4718      	bx	r3
     aca:	bf35      	itete	cc
     acc:	3301      	addcc	r3, #1
     ace:	f103 33ff 	addcs.w	r3, r3, #4294967295
     ad2:	b2dc      	uxtbcc	r4, r3
     ad4:	b2d9      	uxtbcs	r1, r3
     ad6:	428c      	cmp	r4, r1
     ad8:	d9e8      	bls.n	aac <process_ext_irq+0x8>
     ada:	bc70      	pop	{r4, r5, r6}
     adc:	4770      	bx	lr
     ade:	bf00      	nop
     ae0:	20000060 	.word	0x20000060

00000ae4 <ext_irq_init>:
     ae4:	4b07      	ldr	r3, [pc, #28]	; (b04 <ext_irq_init+0x20>)
     ae6:	4808      	ldr	r0, [pc, #32]	; (b08 <ext_irq_init+0x24>)
     ae8:	f04f 31ff 	mov.w	r1, #4294967295
     aec:	2200      	movs	r2, #0
     aee:	6059      	str	r1, [r3, #4]
     af0:	601a      	str	r2, [r3, #0]
     af2:	60d9      	str	r1, [r3, #12]
     af4:	609a      	str	r2, [r3, #8]
     af6:	6159      	str	r1, [r3, #20]
     af8:	611a      	str	r2, [r3, #16]
     afa:	61d9      	str	r1, [r3, #28]
     afc:	619a      	str	r2, [r3, #24]
     afe:	4b03      	ldr	r3, [pc, #12]	; (b0c <ext_irq_init+0x28>)
     b00:	4718      	bx	r3
     b02:	bf00      	nop
     b04:	20000060 	.word	0x20000060
     b08:	00000aa5 	.word	0x00000aa5
     b0c:	00001351 	.word	0x00001351

00000b10 <ext_irq_register>:
     b10:	4a1e      	ldr	r2, [pc, #120]	; (b8c <ext_irq_register+0x7c>)
     b12:	b5f0      	push	{r4, r5, r6, r7, lr}
     b14:	2300      	movs	r3, #0
     b16:	4605      	mov	r5, r0
     b18:	4614      	mov	r4, r2
     b1a:	eb02 00c3 	add.w	r0, r2, r3, lsl #3
     b1e:	6840      	ldr	r0, [r0, #4]
     b20:	42a8      	cmp	r0, r5
     b22:	d108      	bne.n	b36 <ext_irq_register+0x26>
     b24:	f842 1033 	str.w	r1, [r2, r3, lsl #3]
     b28:	b101      	cbz	r1, b2c <ext_irq_register+0x1c>
     b2a:	2101      	movs	r1, #1
     b2c:	4628      	mov	r0, r5
     b2e:	4b18      	ldr	r3, [pc, #96]	; (b90 <ext_irq_register+0x80>)
     b30:	e8bd 40f0 	ldmia.w	sp!, {r4, r5, r6, r7, lr}
     b34:	4718      	bx	r3
     b36:	3301      	adds	r3, #1
     b38:	2b04      	cmp	r3, #4
     b3a:	d1ee      	bne.n	b1a <ext_irq_register+0xa>
     b3c:	b311      	cbz	r1, b84 <ext_irq_register+0x74>
     b3e:	2200      	movs	r2, #0
     b40:	f854 3032 	ldr.w	r3, [r4, r2, lsl #3]
     b44:	00d0      	lsls	r0, r2, #3
     b46:	b9d3      	cbnz	r3, b7e <ext_irq_register+0x6e>
     b48:	f844 1032 	str.w	r1, [r4, r2, lsl #3]
     b4c:	1822      	adds	r2, r4, r0
     b4e:	4616      	mov	r6, r2
     b50:	6055      	str	r5, [r2, #4]
     b52:	eb04 0e03 	add.w	lr, r4, r3
     b56:	6871      	ldr	r1, [r6, #4]
     b58:	f8de 7004 	ldr.w	r7, [lr, #4]
     b5c:	42b9      	cmp	r1, r7
     b5e:	d20a      	bcs.n	b76 <ext_irq_register+0x66>
     b60:	1c79      	adds	r1, r7, #1
     b62:	d008      	beq.n	b76 <ext_irq_register+0x66>
     b64:	e896 0003 	ldmia.w	r6, {r0, r1}
     b68:	f854 c003 	ldr.w	ip, [r4, r3]
     b6c:	e88e 0003 	stmia.w	lr, {r0, r1}
     b70:	f8c2 c000 	str.w	ip, [r2]
     b74:	6057      	str	r7, [r2, #4]
     b76:	3308      	adds	r3, #8
     b78:	2b20      	cmp	r3, #32
     b7a:	d1ea      	bne.n	b52 <ext_irq_register+0x42>
     b7c:	e7d5      	b.n	b2a <ext_irq_register+0x1a>
     b7e:	3201      	adds	r2, #1
     b80:	2a04      	cmp	r2, #4
     b82:	d1dd      	bne.n	b40 <ext_irq_register+0x30>
     b84:	f06f 000c 	mvn.w	r0, #12
     b88:	bdf0      	pop	{r4, r5, r6, r7, pc}
     b8a:	bf00      	nop
     b8c:	20000060 	.word	0x20000060
     b90:	00001431 	.word	0x00001431

00000b94 <mci_sync_init>:
     b94:	4b00      	ldr	r3, [pc, #0]	; (b98 <mci_sync_init+0x4>)
     b96:	4718      	bx	r3
     b98:	000017a7 	.word	0x000017a7

00000b9c <mci_sync_select_device>:
     b9c:	b410      	push	{r4}
     b9e:	f89d 4004 	ldrb.w	r4, [sp, #4]
     ba2:	9401      	str	r4, [sp, #4]
     ba4:	4c02      	ldr	r4, [pc, #8]	; (bb0 <mci_sync_select_device+0x14>)
     ba6:	46a4      	mov	ip, r4
     ba8:	f85d 4b04 	ldr.w	r4, [sp], #4
     bac:	4760      	bx	ip
     bae:	bf00      	nop
     bb0:	000017e9 	.word	0x000017e9

00000bb4 <mci_sync_deselect_device>:
     bb4:	4b00      	ldr	r3, [pc, #0]	; (bb8 <mci_sync_deselect_device+0x4>)
     bb6:	4718      	bx	r3
     bb8:	000018c1 	.word	0x000018c1

00000bbc <mci_sync_get_bus_width>:
     bbc:	4b00      	ldr	r3, [pc, #0]	; (bc0 <mci_sync_get_bus_width+0x4>)
     bbe:	4718      	bx	r3
     bc0:	000018c5 	.word	0x000018c5

00000bc4 <mci_sync_is_high_speed_capable>:
     bc4:	4b00      	ldr	r3, [pc, #0]	; (bc8 <mci_sync_is_high_speed_capable+0x4>)
     bc6:	4718      	bx	r3
     bc8:	000018cf 	.word	0x000018cf

00000bcc <mci_sync_send_clock>:
     bcc:	4b00      	ldr	r3, [pc, #0]	; (bd0 <mci_sync_send_clock+0x4>)
     bce:	4718      	bx	r3
     bd0:	000018d9 	.word	0x000018d9

00000bd4 <mci_sync_send_cmd>:
     bd4:	4b00      	ldr	r3, [pc, #0]	; (bd8 <mci_sync_send_cmd+0x4>)
     bd6:	4718      	bx	r3
     bd8:	000018f5 	.word	0x000018f5

00000bdc <mci_sync_get_response>:
     bdc:	4b00      	ldr	r3, [pc, #0]	; (be0 <mci_sync_get_response+0x4>)
     bde:	4718      	bx	r3
     be0:	00001929 	.word	0x00001929

00000be4 <mci_sync_get_response_128>:
     be4:	4b00      	ldr	r3, [pc, #0]	; (be8 <mci_sync_get_response_128+0x4>)
     be6:	4718      	bx	r3
     be8:	0000192f 	.word	0x0000192f

00000bec <mci_send_cmd_execute>:
     bec:	b410      	push	{r4}
     bee:	4c02      	ldr	r4, [pc, #8]	; (bf8 <mci_send_cmd_execute+0xc>)
     bf0:	46a4      	mov	ip, r4
     bf2:	f85d 4b04 	ldr.w	r4, [sp], #4
     bf6:	4760      	bx	ip
     bf8:	000016d9 	.word	0x000016d9

00000bfc <mci_sync_adtc_start>:
     bfc:	b430      	push	{r4, r5}
     bfe:	f8bd 4008 	ldrh.w	r4, [sp, #8]
     c02:	9402      	str	r4, [sp, #8]
     c04:	4c03      	ldr	r4, [pc, #12]	; (c14 <mci_sync_adtc_start+0x18>)
     c06:	f89d 500c 	ldrb.w	r5, [sp, #12]
     c0a:	9503      	str	r5, [sp, #12]
     c0c:	46a4      	mov	ip, r4
     c0e:	bc30      	pop	{r4, r5}
     c10:	4760      	bx	ip
     c12:	bf00      	nop
     c14:	0000195d 	.word	0x0000195d

00000c18 <mci_sync_start_read_blocks>:
     c18:	4b00      	ldr	r3, [pc, #0]	; (c1c <mci_sync_start_read_blocks+0x4>)
     c1a:	4718      	bx	r3
     c1c:	00001b31 	.word	0x00001b31

00000c20 <mci_sync_start_write_blocks>:
     c20:	4b00      	ldr	r3, [pc, #0]	; (c24 <mci_sync_start_write_blocks+0x4>)
     c22:	4718      	bx	r3
     c24:	00001b6d 	.word	0x00001b6d

00000c28 <mci_sync_wait_end_of_read_blocks>:
     c28:	4b00      	ldr	r3, [pc, #0]	; (c2c <mci_sync_wait_end_of_read_blocks+0x4>)
     c2a:	4718      	bx	r3
     c2c:	00001ba9 	.word	0x00001ba9

00000c30 <mci_sync_wait_end_of_write_blocks>:
     c30:	4b00      	ldr	r3, [pc, #0]	; (c34 <mci_sync_wait_end_of_write_blocks+0x4>)
     c32:	4718      	bx	r3
     c34:	00001bad 	.word	0x00001bad

00000c38 <pwm_period_expired>:
     c38:	6943      	ldr	r3, [r0, #20]
     c3a:	b103      	cbz	r3, c3e <pwm_period_expired+0x6>
     c3c:	4718      	bx	r3
     c3e:	4770      	bx	lr

00000c40 <pwm_detect_fault>:
     c40:	6983      	ldr	r3, [r0, #24]
     c42:	b103      	cbz	r3, c46 <pwm_detect_fault+0x6>
     c44:	4718      	bx	r3
     c46:	4770      	bx	lr

00000c48 <pwm_init>:
     c48:	b510      	push	{r4, lr}
     c4a:	4b04      	ldr	r3, [pc, #16]	; (c5c <pwm_init+0x14>)
     c4c:	4604      	mov	r4, r0
     c4e:	4798      	blx	r3
     c50:	4b03      	ldr	r3, [pc, #12]	; (c60 <pwm_init+0x18>)
     c52:	6023      	str	r3, [r4, #0]
     c54:	4b03      	ldr	r3, [pc, #12]	; (c64 <pwm_init+0x1c>)
     c56:	6063      	str	r3, [r4, #4]
     c58:	2000      	movs	r0, #0
     c5a:	bd10      	pop	{r4, pc}
     c5c:	00001dbd 	.word	0x00001dbd
     c60:	00000c39 	.word	0x00000c39
     c64:	00000c41 	.word	0x00000c41

00000c68 <pwm_enable>:
     c68:	b538      	push	{r3, r4, r5, lr}
     c6a:	4b06      	ldr	r3, [pc, #24]	; (c84 <pwm_enable+0x1c>)
     c6c:	4605      	mov	r5, r0
     c6e:	4798      	blx	r3
     c70:	4604      	mov	r4, r0
     c72:	b920      	cbnz	r0, c7e <pwm_enable+0x16>
     c74:	4628      	mov	r0, r5
     c76:	4b04      	ldr	r3, [pc, #16]	; (c88 <pwm_enable+0x20>)
     c78:	4798      	blx	r3
     c7a:	4620      	mov	r0, r4
     c7c:	bd38      	pop	{r3, r4, r5, pc}
     c7e:	f06f 0010 	mvn.w	r0, #16
     c82:	bd38      	pop	{r3, r4, r5, pc}
     c84:	00001f61 	.word	0x00001f61
     c88:	00001edd 	.word	0x00001edd

00000c8c <pwm_set_parameters>:
     c8c:	b508      	push	{r3, lr}
     c8e:	4b02      	ldr	r3, [pc, #8]	; (c98 <pwm_set_parameters+0xc>)
     c90:	4798      	blx	r3
     c92:	2000      	movs	r0, #0
     c94:	bd08      	pop	{r3, pc}
     c96:	bf00      	nop
     c98:	00001ef1 	.word	0x00001ef1

00000c9c <timer_add_timer_task>:
     c9c:	b5f0      	push	{r4, r5, r6, r7, lr}
     c9e:	6805      	ldr	r5, [r0, #0]
     ca0:	b91d      	cbnz	r5, caa <timer_add_timer_task+0xe>
     ca2:	4b0f      	ldr	r3, [pc, #60]	; (ce0 <timer_add_timer_task+0x44>)
     ca4:	e8bd 40f0 	ldmia.w	sp!, {r4, r5, r6, r7, lr}
     ca8:	4718      	bx	r3
     caa:	f8d1 e008 	ldr.w	lr, [r1, #8]
     cae:	462c      	mov	r4, r5
     cb0:	2600      	movs	r6, #0
     cb2:	f1c2 0c01 	rsb	ip, r2, #1
     cb6:	6863      	ldr	r3, [r4, #4]
     cb8:	68a7      	ldr	r7, [r4, #8]
     cba:	4293      	cmp	r3, r2
     cbc:	bf95      	itete	ls
     cbe:	19db      	addls	r3, r3, r7
     cc0:	4463      	addhi	r3, ip
     cc2:	1a9b      	subls	r3, r3, r2
     cc4:	19db      	addhi	r3, r3, r7
     cc6:	4573      	cmp	r3, lr
     cc8:	d207      	bcs.n	cda <timer_add_timer_task+0x3e>
     cca:	6823      	ldr	r3, [r4, #0]
     ccc:	4626      	mov	r6, r4
     cce:	b913      	cbnz	r3, cd6 <timer_add_timer_task+0x3a>
     cd0:	4630      	mov	r0, r6
     cd2:	4b04      	ldr	r3, [pc, #16]	; (ce4 <timer_add_timer_task+0x48>)
     cd4:	e7e6      	b.n	ca4 <timer_add_timer_task+0x8>
     cd6:	461c      	mov	r4, r3
     cd8:	e7ed      	b.n	cb6 <timer_add_timer_task+0x1a>
     cda:	42a5      	cmp	r5, r4
     cdc:	d1f8      	bne.n	cd0 <timer_add_timer_task+0x34>
     cde:	e7e0      	b.n	ca2 <timer_add_timer_task+0x6>
     ce0:	00000e1f 	.word	0x00000e1f
     ce4:	00000e27 	.word	0x00000e27

00000ce8 <timer_process_counted>:
     ce8:	e92d 47f0 	stmdb	sp!, {r4, r5, r6, r7, r8, r9, sl, lr}
     cec:	6906      	ldr	r6, [r0, #16]
     cee:	7e03      	ldrb	r3, [r0, #24]
     cf0:	6944      	ldr	r4, [r0, #20]
     cf2:	3601      	adds	r6, #1
     cf4:	07da      	lsls	r2, r3, #31
     cf6:	4605      	mov	r5, r0
     cf8:	6106      	str	r6, [r0, #16]
     cfa:	d410      	bmi.n	d1e <timer_process_counted+0x36>
     cfc:	7e03      	ldrb	r3, [r0, #24]
     cfe:	079b      	lsls	r3, r3, #30
     d00:	d40d      	bmi.n	d1e <timer_process_counted+0x36>
     d02:	f8df 8048 	ldr.w	r8, [pc, #72]	; d4c <timer_process_counted+0x64>
     d06:	f8df 9048 	ldr.w	r9, [pc, #72]	; d50 <timer_process_counted+0x68>
     d0a:	f100 0714 	add.w	r7, r0, #20
     d0e:	b124      	cbz	r4, d1a <timer_process_counted+0x32>
     d10:	6863      	ldr	r3, [r4, #4]
     d12:	68a2      	ldr	r2, [r4, #8]
     d14:	1af3      	subs	r3, r6, r3
     d16:	4293      	cmp	r3, r2
     d18:	d207      	bcs.n	d2a <timer_process_counted+0x42>
     d1a:	e8bd 87f0 	ldmia.w	sp!, {r4, r5, r6, r7, r8, r9, sl, pc}
     d1e:	7e2b      	ldrb	r3, [r5, #24]
     d20:	f043 0302 	orr.w	r3, r3, #2
     d24:	762b      	strb	r3, [r5, #24]
     d26:	e8bd 87f0 	ldmia.w	sp!, {r4, r5, r6, r7, r8, r9, sl, pc}
     d2a:	4638      	mov	r0, r7
     d2c:	47c0      	blx	r8
     d2e:	7c23      	ldrb	r3, [r4, #16]
     d30:	2b01      	cmp	r3, #1
     d32:	d104      	bne.n	d3e <timer_process_counted+0x56>
     d34:	6066      	str	r6, [r4, #4]
     d36:	4632      	mov	r2, r6
     d38:	4621      	mov	r1, r4
     d3a:	4638      	mov	r0, r7
     d3c:	47c8      	blx	r9
     d3e:	f8d5 a014 	ldr.w	sl, [r5, #20]
     d42:	68e3      	ldr	r3, [r4, #12]
     d44:	4620      	mov	r0, r4
     d46:	4798      	blx	r3
     d48:	4654      	mov	r4, sl
     d4a:	e7e0      	b.n	d0e <timer_process_counted+0x26>
     d4c:	00000e2f 	.word	0x00000e2f
     d50:	00000c9d 	.word	0x00000c9d

00000d54 <timer_init>:
     d54:	b510      	push	{r4, lr}
     d56:	4b04      	ldr	r3, [pc, #16]	; (d68 <timer_init+0x14>)
     d58:	4604      	mov	r4, r0
     d5a:	4798      	blx	r3
     d5c:	2000      	movs	r0, #0
     d5e:	4b03      	ldr	r3, [pc, #12]	; (d6c <timer_init+0x18>)
     d60:	6120      	str	r0, [r4, #16]
     d62:	6023      	str	r3, [r4, #0]
     d64:	bd10      	pop	{r4, pc}
     d66:	bf00      	nop
     d68:	00001c95 	.word	0x00001c95
     d6c:	00000ce9 	.word	0x00000ce9

00000d70 <timer_start>:
     d70:	b538      	push	{r3, r4, r5, lr}
     d72:	4b06      	ldr	r3, [pc, #24]	; (d8c <timer_start+0x1c>)
     d74:	4605      	mov	r5, r0
     d76:	4798      	blx	r3
     d78:	4604      	mov	r4, r0
     d7a:	b920      	cbnz	r0, d86 <timer_start+0x16>
     d7c:	4628      	mov	r0, r5
     d7e:	4b04      	ldr	r3, [pc, #16]	; (d90 <timer_start+0x20>)
     d80:	4798      	blx	r3
     d82:	4620      	mov	r0, r4
     d84:	bd38      	pop	{r3, r4, r5, pc}
     d86:	f06f 0010 	mvn.w	r0, #16
     d8a:	bd38      	pop	{r3, r4, r5, pc}
     d8c:	00001f49 	.word	0x00001f49
     d90:	00001ec9 	.word	0x00001ec9

00000d94 <timer_add_task>:
     d94:	b5f7      	push	{r0, r1, r2, r4, r5, r6, r7, lr}
     d96:	7e03      	ldrb	r3, [r0, #24]
     d98:	f100 0614 	add.w	r6, r0, #20
     d9c:	f043 0301 	orr.w	r3, r3, #1
     da0:	7603      	strb	r3, [r0, #24]
     da2:	4604      	mov	r4, r0
     da4:	4b15      	ldr	r3, [pc, #84]	; (dfc <timer_add_task+0x68>)
     da6:	4630      	mov	r0, r6
     da8:	460f      	mov	r7, r1
     daa:	4798      	blx	r3
     dac:	4605      	mov	r5, r0
     dae:	b138      	cbz	r0, dc0 <timer_add_task+0x2c>
     db0:	7e23      	ldrb	r3, [r4, #24]
     db2:	f003 03fe 	and.w	r3, r3, #254	; 0xfe
     db6:	7623      	strb	r3, [r4, #24]
     db8:	f06f 0011 	mvn.w	r0, #17
     dbc:	b003      	add	sp, #12
     dbe:	bdf0      	pop	{r4, r5, r6, r7, pc}
     dc0:	6922      	ldr	r2, [r4, #16]
     dc2:	4b0f      	ldr	r3, [pc, #60]	; (e00 <timer_add_task+0x6c>)
     dc4:	607a      	str	r2, [r7, #4]
     dc6:	4630      	mov	r0, r6
     dc8:	4639      	mov	r1, r7
     dca:	4798      	blx	r3
     dcc:	7e23      	ldrb	r3, [r4, #24]
     dce:	f003 03fe 	and.w	r3, r3, #254	; 0xfe
     dd2:	7623      	strb	r3, [r4, #24]
     dd4:	7e20      	ldrb	r0, [r4, #24]
     dd6:	f010 0002 	ands.w	r0, r0, #2
     dda:	d0ef      	beq.n	dbc <timer_add_task+0x28>
     ddc:	a801      	add	r0, sp, #4
     dde:	4b09      	ldr	r3, [pc, #36]	; (e04 <timer_add_task+0x70>)
     de0:	4798      	blx	r3
     de2:	7e23      	ldrb	r3, [r4, #24]
     de4:	f003 03fd 	and.w	r3, r3, #253	; 0xfd
     de8:	7623      	strb	r3, [r4, #24]
     dea:	4620      	mov	r0, r4
     dec:	4b06      	ldr	r3, [pc, #24]	; (e08 <timer_add_task+0x74>)
     dee:	4798      	blx	r3
     df0:	a801      	add	r0, sp, #4
     df2:	4b06      	ldr	r3, [pc, #24]	; (e0c <timer_add_task+0x78>)
     df4:	4798      	blx	r3
     df6:	4628      	mov	r0, r5
     df8:	e7e0      	b.n	dbc <timer_add_task+0x28>
     dfa:	bf00      	nop
     dfc:	00000e11 	.word	0x00000e11
     e00:	00000c9d 	.word	0x00000c9d
     e04:	00000a11 	.word	0x00000a11
     e08:	00001f81 	.word	0x00001f81
     e0c:	00000a1f 	.word	0x00000a1f

00000e10 <is_list_element>:
     e10:	6800      	ldr	r0, [r0, #0]
     e12:	b900      	cbnz	r0, e16 <is_list_element+0x6>
     e14:	4770      	bx	lr
     e16:	4288      	cmp	r0, r1
     e18:	d1fa      	bne.n	e10 <is_list_element>
     e1a:	2001      	movs	r0, #1
     e1c:	4770      	bx	lr

00000e1e <list_insert_as_head>:
     e1e:	6803      	ldr	r3, [r0, #0]
     e20:	600b      	str	r3, [r1, #0]
     e22:	6001      	str	r1, [r0, #0]
     e24:	4770      	bx	lr

00000e26 <list_insert_after>:
     e26:	6803      	ldr	r3, [r0, #0]
     e28:	600b      	str	r3, [r1, #0]
     e2a:	6001      	str	r1, [r0, #0]
     e2c:	4770      	bx	lr

00000e2e <list_remove_head>:
     e2e:	6803      	ldr	r3, [r0, #0]
     e30:	b10b      	cbz	r3, e36 <list_remove_head+0x8>
     e32:	681a      	ldr	r2, [r3, #0]
     e34:	6002      	str	r2, [r0, #0]
     e36:	4618      	mov	r0, r3
     e38:	4770      	bx	lr

00000e3a <hri_adc_wait_for_sync>:
     e3a:	6b03      	ldr	r3, [r0, #48]	; 0x30
     e3c:	420b      	tst	r3, r1
     e3e:	d1fc      	bne.n	e3a <hri_adc_wait_for_sync>
     e40:	4770      	bx	lr
	...

00000e44 <hri_adc_set_CTRLA_ENABLE_bit>:
     e44:	8803      	ldrh	r3, [r0, #0]
     e46:	b29b      	uxth	r3, r3
     e48:	f043 0302 	orr.w	r3, r3, #2
     e4c:	8003      	strh	r3, [r0, #0]
     e4e:	2103      	movs	r1, #3
     e50:	4b00      	ldr	r3, [pc, #0]	; (e54 <hri_adc_set_CTRLA_ENABLE_bit+0x10>)
     e52:	4718      	bx	r3
     e54:	00000e3b 	.word	0x00000e3b

00000e58 <hri_adc_clear_CTRLA_ENABLE_bit>:
     e58:	8803      	ldrh	r3, [r0, #0]
     e5a:	f023 0302 	bic.w	r3, r3, #2
     e5e:	041b      	lsls	r3, r3, #16
     e60:	0c1b      	lsrs	r3, r3, #16
     e62:	8003      	strh	r3, [r0, #0]
     e64:	2103      	movs	r1, #3
     e66:	4b01      	ldr	r3, [pc, #4]	; (e6c <hri_adc_clear_CTRLA_ENABLE_bit+0x14>)
     e68:	4718      	bx	r3
     e6a:	bf00      	nop
     e6c:	00000e3b 	.word	0x00000e3b

00000e70 <_adc_get_regs>:
     e70:	2000      	movs	r0, #0
     e72:	4770      	bx	lr

00000e74 <_adc_init>:
     e74:	4b41      	ldr	r3, [pc, #260]	; (f7c <_adc_init+0x108>)
     e76:	4298      	cmp	r0, r3
     e78:	b570      	push	{r4, r5, r6, lr}
     e7a:	4602      	mov	r2, r0
     e7c:	460d      	mov	r5, r1
     e7e:	d16b      	bne.n	f58 <_adc_init+0xe4>
     e80:	f04f 1380 	mov.w	r3, #8388736	; 0x800080
     e84:	681b      	ldr	r3, [r3, #0]
     e86:	00dc      	lsls	r4, r3, #3
     e88:	0919      	lsrs	r1, r3, #4
     e8a:	f404 64e0 	and.w	r4, r4, #1792	; 0x700
     e8e:	f001 0170 	and.w	r1, r1, #112	; 0x70
     e92:	430c      	orrs	r4, r1
     e94:	f3c3 0382 	ubfx	r3, r3, #2, #3
     e98:	431c      	orrs	r4, r3
     e9a:	6b13      	ldr	r3, [r2, #48]	; 0x30
     e9c:	4e38      	ldr	r6, [pc, #224]	; (f80 <_adc_init+0x10c>)
     e9e:	f013 0f01 	tst.w	r3, #1
     ea2:	d110      	bne.n	ec6 <_adc_init+0x52>
     ea4:	2103      	movs	r1, #3
     ea6:	4610      	mov	r0, r2
     ea8:	47b0      	blx	r6
     eaa:	8813      	ldrh	r3, [r2, #0]
     eac:	079b      	lsls	r3, r3, #30
     eae:	d505      	bpl.n	ebc <_adc_init+0x48>
     eb0:	4610      	mov	r0, r2
     eb2:	4b34      	ldr	r3, [pc, #208]	; (f84 <_adc_init+0x110>)
     eb4:	4798      	blx	r3
     eb6:	2102      	movs	r1, #2
     eb8:	4610      	mov	r0, r2
     eba:	47b0      	blx	r6
     ebc:	2301      	movs	r3, #1
     ebe:	8013      	strh	r3, [r2, #0]
     ec0:	2103      	movs	r1, #3
     ec2:	4610      	mov	r0, r2
     ec4:	47b0      	blx	r6
     ec6:	4610      	mov	r0, r2
     ec8:	2101      	movs	r1, #1
     eca:	47b0      	blx	r6
     ecc:	4b2e      	ldr	r3, [pc, #184]	; (f88 <_adc_init+0x114>)
     ece:	f8a2 4048 	strh.w	r4, [r2, #72]	; 0x48
     ed2:	2116      	movs	r1, #22
     ed4:	fb01 3505 	mla	r5, r1, r5, r3
     ed8:	4610      	mov	r0, r2
     eda:	88ab      	ldrh	r3, [r5, #4]
     edc:	80d3      	strh	r3, [r2, #6]
     ede:	f640 71ff 	movw	r1, #4095	; 0xfff
     ee2:	47b0      	blx	r6
     ee4:	79ab      	ldrb	r3, [r5, #6]
     ee6:	7213      	strb	r3, [r2, #8]
     ee8:	4610      	mov	r0, r2
     eea:	f640 71ff 	movw	r1, #4095	; 0xfff
     eee:	47b0      	blx	r6
     ef0:	79eb      	ldrb	r3, [r5, #7]
     ef2:	7093      	strb	r3, [r2, #2]
     ef4:	892b      	ldrh	r3, [r5, #8]
     ef6:	8093      	strh	r3, [r2, #4]
     ef8:	4610      	mov	r0, r2
     efa:	f640 71ff 	movw	r1, #4095	; 0xfff
     efe:	47b0      	blx	r6
     f00:	7aab      	ldrb	r3, [r5, #10]
     f02:	7293      	strb	r3, [r2, #10]
     f04:	4610      	mov	r0, r2
     f06:	f640 71ff 	movw	r1, #4095	; 0xfff
     f0a:	47b0      	blx	r6
     f0c:	7aeb      	ldrb	r3, [r5, #11]
     f0e:	72d3      	strb	r3, [r2, #11]
     f10:	4610      	mov	r0, r2
     f12:	f640 71ff 	movw	r1, #4095	; 0xfff
     f16:	47b0      	blx	r6
     f18:	89ab      	ldrh	r3, [r5, #12]
     f1a:	8193      	strh	r3, [r2, #12]
     f1c:	4610      	mov	r0, r2
     f1e:	2180      	movs	r1, #128	; 0x80
     f20:	47b0      	blx	r6
     f22:	89eb      	ldrh	r3, [r5, #14]
     f24:	81d3      	strh	r3, [r2, #14]
     f26:	4610      	mov	r0, r2
     f28:	f44f 7180 	mov.w	r1, #256	; 0x100
     f2c:	47b0      	blx	r6
     f2e:	8a2b      	ldrh	r3, [r5, #16]
     f30:	8213      	strh	r3, [r2, #16]
     f32:	4610      	mov	r0, r2
     f34:	f44f 7100 	mov.w	r1, #512	; 0x200
     f38:	47b0      	blx	r6
     f3a:	8a6b      	ldrh	r3, [r5, #18]
     f3c:	8253      	strh	r3, [r2, #18]
     f3e:	4610      	mov	r0, r2
     f40:	f44f 6180 	mov.w	r1, #1024	; 0x400
     f44:	47b0      	blx	r6
     f46:	7d2b      	ldrb	r3, [r5, #20]
     f48:	70d3      	strb	r3, [r2, #3]
     f4a:	886b      	ldrh	r3, [r5, #2]
     f4c:	8013      	strh	r3, [r2, #0]
     f4e:	4610      	mov	r0, r2
     f50:	2103      	movs	r1, #3
     f52:	47b0      	blx	r6
     f54:	2000      	movs	r0, #0
     f56:	bd70      	pop	{r4, r5, r6, pc}
     f58:	4b0c      	ldr	r3, [pc, #48]	; (f8c <_adc_init+0x118>)
     f5a:	4298      	cmp	r0, r3
     f5c:	d10c      	bne.n	f78 <_adc_init+0x104>
     f5e:	f04f 1380 	mov.w	r3, #8388736	; 0x800080
     f62:	681b      	ldr	r3, [r3, #0]
     f64:	0adc      	lsrs	r4, r3, #11
     f66:	0c99      	lsrs	r1, r3, #18
     f68:	f404 64e0 	and.w	r4, r4, #1792	; 0x700
     f6c:	f001 0170 	and.w	r1, r1, #112	; 0x70
     f70:	430c      	orrs	r4, r1
     f72:	f3c3 4302 	ubfx	r3, r3, #16, #3
     f76:	e78f      	b.n	e98 <_adc_init+0x24>
     f78:	2400      	movs	r4, #0
     f7a:	e78e      	b.n	e9a <_adc_init+0x26>
     f7c:	43001c00 	.word	0x43001c00
     f80:	00000e3b 	.word	0x00000e3b
     f84:	00000e59 	.word	0x00000e59
     f88:	00003f74 	.word	0x00003f74
     f8c:	43002000 	.word	0x43002000

00000f90 <_adc_sync_init>:
     f90:	b510      	push	{r4, lr}
     f92:	4a05      	ldr	r2, [pc, #20]	; (fa8 <_adc_sync_init+0x18>)
     f94:	6001      	str	r1, [r0, #0]
     f96:	4608      	mov	r0, r1
     f98:	460b      	mov	r3, r1
     f9a:	4790      	blx	r2
     f9c:	e8bd 4010 	ldmia.w	sp!, {r4, lr}
     fa0:	4601      	mov	r1, r0
     fa2:	4618      	mov	r0, r3
     fa4:	4b01      	ldr	r3, [pc, #4]	; (fac <_adc_sync_init+0x1c>)
     fa6:	4718      	bx	r3
     fa8:	00000e71 	.word	0x00000e71
     fac:	00000e75 	.word	0x00000e75

00000fb0 <_adc_sync_enable_channel>:
     fb0:	6800      	ldr	r0, [r0, #0]
     fb2:	4b01      	ldr	r3, [pc, #4]	; (fb8 <_adc_sync_enable_channel+0x8>)
     fb4:	4718      	bx	r3
     fb6:	bf00      	nop
     fb8:	00000e45 	.word	0x00000e45

00000fbc <_adc_sync_get_data_size>:
     fbc:	6803      	ldr	r3, [r0, #0]
     fbe:	88db      	ldrh	r3, [r3, #6]
     fc0:	f3c3 03c1 	ubfx	r3, r3, #3, #2
     fc4:	2b03      	cmp	r3, #3
     fc6:	bf0c      	ite	eq
     fc8:	2001      	moveq	r0, #1
     fca:	2002      	movne	r0, #2
     fcc:	4770      	bx	lr

00000fce <_adc_sync_is_channel_conversion_done>:
     fce:	6803      	ldr	r3, [r0, #0]
     fd0:	f893 002e 	ldrb.w	r0, [r3, #46]	; 0x2e
     fd4:	f000 0001 	and.w	r0, r0, #1
     fd8:	4770      	bx	lr
	...

00000fdc <_adc_sync_convert>:
     fdc:	6800      	ldr	r0, [r0, #0]
     fde:	7d03      	ldrb	r3, [r0, #20]
     fe0:	f043 0302 	orr.w	r3, r3, #2
     fe4:	7503      	strb	r3, [r0, #20]
     fe6:	f640 71ff 	movw	r1, #4095	; 0xfff
     fea:	4b01      	ldr	r3, [pc, #4]	; (ff0 <_adc_sync_convert+0x14>)
     fec:	4718      	bx	r3
     fee:	bf00      	nop
     ff0:	00000e3b 	.word	0x00000e3b

00000ff4 <_adc_sync_read_channel_data>:
     ff4:	6803      	ldr	r3, [r0, #0]
     ff6:	f8b3 0040 	ldrh.w	r0, [r3, #64]	; 0x40
     ffa:	b280      	uxth	r0, r0
     ffc:	4770      	bx	lr
	...

00001000 <_irq_set>:
    1000:	0943      	lsrs	r3, r0, #5
    1002:	2201      	movs	r2, #1
    1004:	f000 001f 	and.w	r0, r0, #31
    1008:	fa02 f000 	lsl.w	r0, r2, r0
    100c:	3340      	adds	r3, #64	; 0x40
    100e:	4a02      	ldr	r2, [pc, #8]	; (1018 <_irq_set+0x18>)
    1010:	f842 0023 	str.w	r0, [r2, r3, lsl #2]
    1014:	4770      	bx	lr
    1016:	bf00      	nop
    1018:	e000e100 	.word	0xe000e100

0000101c <_get_cycles_for_us>:
    101c:	f44f 7316 	mov.w	r3, #600	; 0x258
    1020:	4358      	muls	r0, r3
    1022:	3801      	subs	r0, #1
    1024:	230a      	movs	r3, #10
    1026:	fbb0 f0f3 	udiv	r0, r0, r3
    102a:	3001      	adds	r0, #1
    102c:	4770      	bx	lr

0000102e <_get_cycles_for_ms>:
    102e:	f64e 2360 	movw	r3, #60000	; 0xea60
    1032:	4358      	muls	r0, r3
    1034:	4770      	bx	lr
	...

00001038 <_init_chip>:
    1038:	b510      	push	{r4, lr}
    103a:	4a0d      	ldr	r2, [pc, #52]	; (1070 <_init_chip+0x38>)
    103c:	4c0d      	ldr	r4, [pc, #52]	; (1074 <_init_chip+0x3c>)
    103e:	8813      	ldrh	r3, [r2, #0]
    1040:	b29b      	uxth	r3, r3
    1042:	8013      	strh	r3, [r2, #0]
    1044:	4b0c      	ldr	r3, [pc, #48]	; (1078 <_init_chip+0x40>)
    1046:	4798      	blx	r3
    1048:	4b0c      	ldr	r3, [pc, #48]	; (107c <_init_chip+0x44>)
    104a:	4798      	blx	r3
    104c:	4b0c      	ldr	r3, [pc, #48]	; (1080 <_init_chip+0x48>)
    104e:	4798      	blx	r3
    1050:	200c      	movs	r0, #12
    1052:	47a0      	blx	r4
    1054:	4b0b      	ldr	r3, [pc, #44]	; (1084 <_init_chip+0x4c>)
    1056:	4798      	blx	r3
    1058:	f640 70f3 	movw	r0, #4083	; 0xff3
    105c:	47a0      	blx	r4
    105e:	4a0a      	ldr	r2, [pc, #40]	; (1088 <_init_chip+0x50>)
    1060:	6913      	ldr	r3, [r2, #16]
    1062:	f443 7300 	orr.w	r3, r3, #512	; 0x200
    1066:	6113      	str	r3, [r2, #16]
    1068:	e8bd 4010 	ldmia.w	sp!, {r4, lr}
    106c:	4b07      	ldr	r3, [pc, #28]	; (108c <_init_chip+0x54>)
    106e:	4718      	bx	r3
    1070:	41004000 	.word	0x41004000
    1074:	000014b1 	.word	0x000014b1
    1078:	00001515 	.word	0x00001515
    107c:	00001535 	.word	0x00001535
    1080:	00001509 	.word	0x00001509
    1084:	00001539 	.word	0x00001539
    1088:	40000800 	.word	0x40000800
    108c:	000010dd 	.word	0x000010dd

00001090 <_dmac_handler>:
    1090:	b430      	push	{r4, r5}
    1092:	4b10      	ldr	r3, [pc, #64]	; (10d4 <_dmac_handler+0x44>)
    1094:	4c10      	ldr	r4, [pc, #64]	; (10d8 <_dmac_handler+0x48>)
    1096:	8c1a      	ldrh	r2, [r3, #32]
    1098:	8c1d      	ldrh	r5, [r3, #32]
    109a:	f002 021f 	and.w	r2, r2, #31
    109e:	210c      	movs	r1, #12
    10a0:	4351      	muls	r1, r2
    10a2:	05ed      	lsls	r5, r5, #23
    10a4:	eb04 0001 	add.w	r0, r4, r1
    10a8:	d507      	bpl.n	10ba <_dmac_handler+0x2a>
    10aa:	eb03 1302 	add.w	r3, r3, r2, lsl #4
    10ae:	2201      	movs	r2, #1
    10b0:	f883 204e 	strb.w	r2, [r3, #78]	; 0x4e
    10b4:	6843      	ldr	r3, [r0, #4]
    10b6:	bc30      	pop	{r4, r5}
    10b8:	4718      	bx	r3
    10ba:	8c1d      	ldrh	r5, [r3, #32]
    10bc:	05ad      	lsls	r5, r5, #22
    10be:	d506      	bpl.n	10ce <_dmac_handler+0x3e>
    10c0:	eb03 1302 	add.w	r3, r3, r2, lsl #4
    10c4:	2202      	movs	r2, #2
    10c6:	f883 204e 	strb.w	r2, [r3, #78]	; 0x4e
    10ca:	5863      	ldr	r3, [r4, r1]
    10cc:	e7f3      	b.n	10b6 <_dmac_handler+0x26>
    10ce:	bc30      	pop	{r4, r5}
    10d0:	4770      	bx	lr
    10d2:	bf00      	nop
    10d4:	4100a000 	.word	0x4100a000
    10d8:	20000080 	.word	0x20000080

000010dc <_dma_init>:
    10dc:	b570      	push	{r4, r5, r6, lr}
    10de:	4b2e      	ldr	r3, [pc, #184]	; (1198 <_dma_init+0xbc>)
    10e0:	881a      	ldrh	r2, [r3, #0]
    10e2:	f022 0202 	bic.w	r2, r2, #2
    10e6:	0412      	lsls	r2, r2, #16
    10e8:	0c12      	lsrs	r2, r2, #16
    10ea:	801a      	strh	r2, [r3, #0]
    10ec:	885a      	ldrh	r2, [r3, #2]
    10ee:	f422 527c 	bic.w	r2, r2, #16128	; 0x3f00
    10f2:	0412      	lsls	r2, r2, #16
    10f4:	0c12      	lsrs	r2, r2, #16
    10f6:	805a      	strh	r2, [r3, #2]
    10f8:	881a      	ldrh	r2, [r3, #0]
    10fa:	b292      	uxth	r2, r2
    10fc:	f042 0201 	orr.w	r2, r2, #1
    1100:	801a      	strh	r2, [r3, #0]
    1102:	881a      	ldrh	r2, [r3, #0]
    1104:	f012 0201 	ands.w	r2, r2, #1
    1108:	d1fb      	bne.n	1102 <_dma_init+0x26>
    110a:	f44f 6170 	mov.w	r1, #3840	; 0xf00
    110e:	8019      	strh	r1, [r3, #0]
    1110:	7b59      	ldrb	r1, [r3, #13]
    1112:	4822      	ldr	r0, [pc, #136]	; (119c <_dma_init+0xc0>)
    1114:	f001 01fe 	and.w	r1, r1, #254	; 0xfe
    1118:	7359      	strb	r1, [r3, #13]
    111a:	4921      	ldr	r1, [pc, #132]	; (11a0 <_dma_init+0xc4>)
    111c:	615a      	str	r2, [r3, #20]
    111e:	6358      	str	r0, [r3, #52]	; 0x34
    1120:	6399      	str	r1, [r3, #56]	; 0x38
    1122:	4613      	mov	r3, r2
    1124:	491f      	ldr	r1, [pc, #124]	; (11a4 <_dma_init+0xc8>)
    1126:	4602      	mov	r2, r0
    1128:	461d      	mov	r5, r3
    112a:	011c      	lsls	r4, r3, #4
    112c:	f104 4082 	add.w	r0, r4, #1090519040	; 0x41000000
    1130:	f500 4020 	add.w	r0, r0, #40960	; 0xa000
    1134:	680e      	ldr	r6, [r1, #0]
    1136:	6406      	str	r6, [r0, #64]	; 0x40
    1138:	790e      	ldrb	r6, [r1, #4]
    113a:	f880 6045 	strb.w	r6, [r0, #69]	; 0x45
    113e:	794e      	ldrb	r6, [r1, #5]
    1140:	f880 6046 	strb.w	r6, [r0, #70]	; 0x46
    1144:	3301      	adds	r3, #1
    1146:	1910      	adds	r0, r2, r4
    1148:	88ce      	ldrh	r6, [r1, #6]
    114a:	5316      	strh	r6, [r2, r4]
    114c:	2b20      	cmp	r3, #32
    114e:	60c5      	str	r5, [r0, #12]
    1150:	f101 0108 	add.w	r1, r1, #8
    1154:	d1e9      	bne.n	112a <_dma_init+0x4e>
    1156:	221f      	movs	r2, #31
    1158:	2001      	movs	r0, #1
    115a:	0953      	lsrs	r3, r2, #5
    115c:	009b      	lsls	r3, r3, #2
    115e:	f103 4360 	add.w	r3, r3, #3758096384	; 0xe0000000
    1162:	f002 011f 	and.w	r1, r2, #31
    1166:	f503 4361 	add.w	r3, r3, #57600	; 0xe100
    116a:	fa00 f101 	lsl.w	r1, r0, r1
    116e:	f8c3 1080 	str.w	r1, [r3, #128]	; 0x80
    1172:	f3bf 8f4f 	dsb	sy
    1176:	f3bf 8f6f 	isb	sy
    117a:	3201      	adds	r2, #1
    117c:	2a24      	cmp	r2, #36	; 0x24
    117e:	f8c3 1180 	str.w	r1, [r3, #384]	; 0x180
    1182:	6019      	str	r1, [r3, #0]
    1184:	d1e9      	bne.n	115a <_dma_init+0x7e>
    1186:	4a04      	ldr	r2, [pc, #16]	; (1198 <_dma_init+0xbc>)
    1188:	8813      	ldrh	r3, [r2, #0]
    118a:	b29b      	uxth	r3, r3
    118c:	f043 0302 	orr.w	r3, r3, #2
    1190:	8013      	strh	r3, [r2, #0]
    1192:	2000      	movs	r0, #0
    1194:	bd70      	pop	{r4, r5, r6, pc}
    1196:	bf00      	nop
    1198:	4100a000 	.word	0x4100a000
    119c:	20000710 	.word	0x20000710
    11a0:	20000910 	.word	0x20000910
    11a4:	00003f8c 	.word	0x00003f8c

000011a8 <_dma_set_destination_address>:
    11a8:	4b02      	ldr	r3, [pc, #8]	; (11b4 <_dma_set_destination_address+0xc>)
    11aa:	eb03 1000 	add.w	r0, r3, r0, lsl #4
    11ae:	6081      	str	r1, [r0, #8]
    11b0:	2000      	movs	r0, #0
    11b2:	4770      	bx	lr
    11b4:	20000710 	.word	0x20000710

000011b8 <_dma_set_source_address>:
    11b8:	4b02      	ldr	r3, [pc, #8]	; (11c4 <_dma_set_source_address+0xc>)
    11ba:	eb03 1000 	add.w	r0, r3, r0, lsl #4
    11be:	6041      	str	r1, [r0, #4]
    11c0:	2000      	movs	r0, #0
    11c2:	4770      	bx	lr
    11c4:	20000710 	.word	0x20000710

000011c8 <_dma_set_BTCTRL>:
    11c8:	0100      	lsls	r0, r0, #4
    11ca:	4b02      	ldr	r3, [pc, #8]	; (11d4 <_dma_set_BTCTRL+0xc>)
    11cc:	b289      	uxth	r1, r1
    11ce:	5219      	strh	r1, [r3, r0]
    11d0:	2000      	movs	r0, #0
    11d2:	4770      	bx	lr
    11d4:	20000710 	.word	0x20000710

000011d8 <_dma_set_DESCADDR>:
    11d8:	4b02      	ldr	r3, [pc, #8]	; (11e4 <_dma_set_DESCADDR+0xc>)
    11da:	eb03 1000 	add.w	r0, r3, r0, lsl #4
    11de:	60c1      	str	r1, [r0, #12]
    11e0:	2000      	movs	r0, #0
    11e2:	4770      	bx	lr
    11e4:	20000710 	.word	0x20000710

000011e8 <_dma_get_WRB_data>:
    11e8:	4b02      	ldr	r3, [pc, #8]	; (11f4 <_dma_get_WRB_data+0xc>)
    11ea:	eb03 1000 	add.w	r0, r3, r0, lsl #4
    11ee:	8840      	ldrh	r0, [r0, #2]
    11f0:	b280      	uxth	r0, r0
    11f2:	4770      	bx	lr
    11f4:	20000910 	.word	0x20000910

000011f8 <_dma_set_data_amount>:
    11f8:	b570      	push	{r4, r5, r6, lr}
    11fa:	4b0f      	ldr	r3, [pc, #60]	; (1238 <_dma_set_data_amount+0x40>)
    11fc:	0100      	lsls	r0, r0, #4
    11fe:	181d      	adds	r5, r3, r0
    1200:	68ae      	ldr	r6, [r5, #8]
    1202:	5a1a      	ldrh	r2, [r3, r0]
    1204:	5a1c      	ldrh	r4, [r3, r0]
    1206:	f3c2 2201 	ubfx	r2, r2, #8, #2
    120a:	0524      	lsls	r4, r4, #20
    120c:	bf42      	ittt	mi
    120e:	fa01 f402 	lslmi.w	r4, r1, r2
    1212:	19a4      	addmi	r4, r4, r6
    1214:	60ac      	strmi	r4, [r5, #8]
    1216:	181c      	adds	r4, r3, r0
    1218:	6865      	ldr	r5, [r4, #4]
    121a:	5a1e      	ldrh	r6, [r3, r0]
    121c:	0576      	lsls	r6, r6, #21
    121e:	bf48      	it	mi
    1220:	fa01 f202 	lslmi.w	r2, r1, r2
    1224:	4403      	add	r3, r0
    1226:	bf48      	it	mi
    1228:	1952      	addmi	r2, r2, r5
    122a:	b289      	uxth	r1, r1
    122c:	bf48      	it	mi
    122e:	6062      	strmi	r2, [r4, #4]
    1230:	8059      	strh	r1, [r3, #2]
    1232:	2000      	movs	r0, #0
    1234:	bd70      	pop	{r4, r5, r6, pc}
    1236:	bf00      	nop
    1238:	20000710 	.word	0x20000710

0000123c <_dma_enable_transaction>:
    123c:	b510      	push	{r4, lr}
    123e:	0102      	lsls	r2, r0, #4
    1240:	4c0b      	ldr	r4, [pc, #44]	; (1270 <_dma_enable_transaction+0x34>)
    1242:	5aa3      	ldrh	r3, [r4, r2]
    1244:	b29b      	uxth	r3, r3
    1246:	f043 0301 	orr.w	r3, r3, #1
    124a:	52a3      	strh	r3, [r4, r2]
    124c:	f102 4382 	add.w	r3, r2, #1090519040	; 0x41000000
    1250:	f503 4320 	add.w	r3, r3, #40960	; 0xa000
    1254:	6c1a      	ldr	r2, [r3, #64]	; 0x40
    1256:	f042 0202 	orr.w	r2, r2, #2
    125a:	641a      	str	r2, [r3, #64]	; 0x40
    125c:	b131      	cbz	r1, 126c <_dma_enable_transaction+0x30>
    125e:	4a05      	ldr	r2, [pc, #20]	; (1274 <_dma_enable_transaction+0x38>)
    1260:	2301      	movs	r3, #1
    1262:	6911      	ldr	r1, [r2, #16]
    1264:	fa03 f000 	lsl.w	r0, r3, r0
    1268:	4308      	orrs	r0, r1
    126a:	6110      	str	r0, [r2, #16]
    126c:	2000      	movs	r0, #0
    126e:	bd10      	pop	{r4, pc}
    1270:	20000710 	.word	0x20000710
    1274:	4100a000 	.word	0x4100a000

00001278 <_dma_get_channel_resource>:
    1278:	4b03      	ldr	r3, [pc, #12]	; (1288 <_dma_get_channel_resource+0x10>)
    127a:	eb01 0141 	add.w	r1, r1, r1, lsl #1
    127e:	eb03 0181 	add.w	r1, r3, r1, lsl #2
    1282:	6001      	str	r1, [r0, #0]
    1284:	2000      	movs	r0, #0
    1286:	4770      	bx	lr
    1288:	20000080 	.word	0x20000080

0000128c <DMAC_0_Handler>:
    128c:	4b00      	ldr	r3, [pc, #0]	; (1290 <DMAC_0_Handler+0x4>)
    128e:	4718      	bx	r3
    1290:	00001091 	.word	0x00001091

00001294 <DMAC_1_Handler>:
    1294:	4b00      	ldr	r3, [pc, #0]	; (1298 <DMAC_1_Handler+0x4>)
    1296:	4718      	bx	r3
    1298:	00001091 	.word	0x00001091

0000129c <DMAC_2_Handler>:
    129c:	4b00      	ldr	r3, [pc, #0]	; (12a0 <DMAC_2_Handler+0x4>)
    129e:	4718      	bx	r3
    12a0:	00001091 	.word	0x00001091

000012a4 <DMAC_3_Handler>:
    12a4:	4b00      	ldr	r3, [pc, #0]	; (12a8 <DMAC_3_Handler+0x4>)
    12a6:	4718      	bx	r3
    12a8:	00001091 	.word	0x00001091

000012ac <DMAC_4_Handler>:
    12ac:	4b00      	ldr	r3, [pc, #0]	; (12b0 <DMAC_4_Handler+0x4>)
    12ae:	4718      	bx	r3
    12b0:	00001091 	.word	0x00001091

000012b4 <_ext_irq_handler>:
    12b4:	b5f7      	push	{r0, r1, r2, r4, r5, r6, r7, lr}
    12b6:	4b1f      	ldr	r3, [pc, #124]	; (1334 <_ext_irq_handler+0x80>)
    12b8:	4d1f      	ldr	r5, [pc, #124]	; (1338 <_ext_irq_handler+0x84>)
    12ba:	695a      	ldr	r2, [r3, #20]
    12bc:	9201      	str	r2, [sp, #4]
    12be:	9a01      	ldr	r2, [sp, #4]
    12c0:	4e1e      	ldr	r6, [pc, #120]	; (133c <_ext_irq_handler+0x88>)
    12c2:	615a      	str	r2, [r3, #20]
    12c4:	f04f 37ff 	mov.w	r7, #4294967295
    12c8:	9b01      	ldr	r3, [sp, #4]
    12ca:	b9cb      	cbnz	r3, 1300 <_ext_irq_handler+0x4c>
    12cc:	b003      	add	sp, #12
    12ce:	bdf0      	pop	{r4, r5, r6, r7, pc}
    12d0:	2004      	movs	r0, #4
    12d2:	2100      	movs	r1, #0
    12d4:	1843      	adds	r3, r0, r1
    12d6:	105b      	asrs	r3, r3, #1
    12d8:	b2da      	uxtb	r2, r3
    12da:	f815 e033 	ldrb.w	lr, [r5, r3, lsl #3]
    12de:	45a6      	cmp	lr, r4
    12e0:	d11f      	bne.n	1322 <_ext_irq_handler+0x6e>
    12e2:	eb05 03c3 	add.w	r3, r5, r3, lsl #3
    12e6:	685f      	ldr	r7, [r3, #4]
    12e8:	1c7a      	adds	r2, r7, #1
    12ea:	d002      	beq.n	12f2 <_ext_irq_handler+0x3e>
    12ec:	4638      	mov	r0, r7
    12ee:	6833      	ldr	r3, [r6, #0]
    12f0:	4798      	blx	r3
    12f2:	9b01      	ldr	r3, [sp, #4]
    12f4:	2201      	movs	r2, #1
    12f6:	fa02 f404 	lsl.w	r4, r2, r4
    12fa:	ea23 0404 	bic.w	r4, r3, r4
    12fe:	9401      	str	r4, [sp, #4]
    1300:	9b01      	ldr	r3, [sp, #4]
    1302:	fa93 f4a3 	rbit	r4, r3
    1306:	2b00      	cmp	r3, #0
    1308:	fab4 f484 	clz	r4, r4
    130c:	bf08      	it	eq
    130e:	f04f 34ff 	moveq.w	r4, #4294967295
    1312:	1c63      	adds	r3, r4, #1
    1314:	d1dc      	bne.n	12d0 <_ext_irq_handler+0x1c>
    1316:	4b07      	ldr	r3, [pc, #28]	; (1334 <_ext_irq_handler+0x80>)
    1318:	695a      	ldr	r2, [r3, #20]
    131a:	9201      	str	r2, [sp, #4]
    131c:	9a01      	ldr	r2, [sp, #4]
    131e:	615a      	str	r2, [r3, #20]
    1320:	e7d2      	b.n	12c8 <_ext_irq_handler+0x14>
    1322:	bfb5      	itete	lt
    1324:	3201      	addlt	r2, #1
    1326:	f102 32ff 	addge.w	r2, r2, #4294967295
    132a:	b2d1      	uxtblt	r1, r2
    132c:	b2d0      	uxtbge	r0, r2
    132e:	4288      	cmp	r0, r1
    1330:	d2d0      	bcs.n	12d4 <_ext_irq_handler+0x20>
    1332:	e7d9      	b.n	12e8 <_ext_irq_handler+0x34>
    1334:	40002800 	.word	0x40002800
    1338:	0000408c 	.word	0x0000408c
    133c:	20000200 	.word	0x20000200

00001340 <hri_eic_wait_for_sync.constprop.6>:
    1340:	4a02      	ldr	r2, [pc, #8]	; (134c <hri_eic_wait_for_sync.constprop.6+0xc>)
    1342:	6853      	ldr	r3, [r2, #4]
    1344:	4203      	tst	r3, r0
    1346:	d1fc      	bne.n	1342 <hri_eic_wait_for_sync.constprop.6+0x2>
    1348:	4770      	bx	lr
    134a:	bf00      	nop
    134c:	40002800 	.word	0x40002800

00001350 <_ext_irq_init>:
    1350:	b570      	push	{r4, r5, r6, lr}
    1352:	4932      	ldr	r1, [pc, #200]	; (141c <_ext_irq_init+0xcc>)
    1354:	4c32      	ldr	r4, [pc, #200]	; (1420 <_ext_irq_init+0xd0>)
    1356:	684b      	ldr	r3, [r1, #4]
    1358:	f013 0f01 	tst.w	r3, #1
    135c:	4606      	mov	r6, r0
    135e:	d111      	bne.n	1384 <_ext_irq_init+0x34>
    1360:	2003      	movs	r0, #3
    1362:	47a0      	blx	r4
    1364:	780b      	ldrb	r3, [r1, #0]
    1366:	079b      	lsls	r3, r3, #30
    1368:	d507      	bpl.n	137a <_ext_irq_init+0x2a>
    136a:	780b      	ldrb	r3, [r1, #0]
    136c:	f003 03fd 	and.w	r3, r3, #253	; 0xfd
    1370:	2003      	movs	r0, #3
    1372:	700b      	strb	r3, [r1, #0]
    1374:	47a0      	blx	r4
    1376:	2002      	movs	r0, #2
    1378:	47a0      	blx	r4
    137a:	4b28      	ldr	r3, [pc, #160]	; (141c <_ext_irq_init+0xcc>)
    137c:	2201      	movs	r2, #1
    137e:	701a      	strb	r2, [r3, #0]
    1380:	2003      	movs	r0, #3
    1382:	47a0      	blx	r4
    1384:	2001      	movs	r0, #1
    1386:	47a0      	blx	r4
    1388:	4924      	ldr	r1, [pc, #144]	; (141c <_ext_irq_init+0xcc>)
    138a:	780b      	ldrb	r3, [r1, #0]
    138c:	f003 03ef 	and.w	r3, r3, #239	; 0xef
    1390:	700b      	strb	r3, [r1, #0]
    1392:	2003      	movs	r0, #3
    1394:	47a0      	blx	r4
    1396:	2500      	movs	r5, #0
    1398:	f04f 433b 	mov.w	r3, #3137339392	; 0xbb000000
    139c:	704d      	strb	r5, [r1, #1]
    139e:	608d      	str	r5, [r1, #8]
    13a0:	618d      	str	r5, [r1, #24]
    13a2:	630d      	str	r5, [r1, #48]	; 0x30
    13a4:	634d      	str	r5, [r1, #52]	; 0x34
    13a6:	61cb      	str	r3, [r1, #28]
    13a8:	4b1e      	ldr	r3, [pc, #120]	; (1424 <_ext_irq_init+0xd4>)
    13aa:	620b      	str	r3, [r1, #32]
    13ac:	780b      	ldrb	r3, [r1, #0]
    13ae:	f043 0302 	orr.w	r3, r3, #2
    13b2:	700b      	strb	r3, [r1, #0]
    13b4:	2003      	movs	r0, #3
    13b6:	47a0      	blx	r4
    13b8:	4b1b      	ldr	r3, [pc, #108]	; (1428 <_ext_irq_init+0xd8>)
    13ba:	f44f 2280 	mov.w	r2, #262144	; 0x40000
    13be:	f8c3 2080 	str.w	r2, [r3, #128]	; 0x80
    13c2:	f3bf 8f4f 	dsb	sy
    13c6:	f3bf 8f6f 	isb	sy
    13ca:	f8c3 2180 	str.w	r2, [r3, #384]	; 0x180
    13ce:	601a      	str	r2, [r3, #0]
    13d0:	f44f 2200 	mov.w	r2, #524288	; 0x80000
    13d4:	f8c3 2080 	str.w	r2, [r3, #128]	; 0x80
    13d8:	f3bf 8f4f 	dsb	sy
    13dc:	f3bf 8f6f 	isb	sy
    13e0:	f8c3 2180 	str.w	r2, [r3, #384]	; 0x180
    13e4:	601a      	str	r2, [r3, #0]
    13e6:	f44f 1200 	mov.w	r2, #2097152	; 0x200000
    13ea:	f8c3 2080 	str.w	r2, [r3, #128]	; 0x80
    13ee:	f3bf 8f4f 	dsb	sy
    13f2:	f3bf 8f6f 	isb	sy
    13f6:	f8c3 2180 	str.w	r2, [r3, #384]	; 0x180
    13fa:	601a      	str	r2, [r3, #0]
    13fc:	f04f 6280 	mov.w	r2, #67108864	; 0x4000000
    1400:	f8c3 2080 	str.w	r2, [r3, #128]	; 0x80
    1404:	f3bf 8f4f 	dsb	sy
    1408:	f3bf 8f6f 	isb	sy
    140c:	f8c3 2180 	str.w	r2, [r3, #384]	; 0x180
    1410:	601a      	str	r2, [r3, #0]
    1412:	4b06      	ldr	r3, [pc, #24]	; (142c <_ext_irq_init+0xdc>)
    1414:	4628      	mov	r0, r5
    1416:	601e      	str	r6, [r3, #0]
    1418:	bd70      	pop	{r4, r5, r6, pc}
    141a:	bf00      	nop
    141c:	40002800 	.word	0x40002800
    1420:	00001341 	.word	0x00001341
    1424:	0a0000b0 	.word	0x0a0000b0
    1428:	e000e100 	.word	0xe000e100
    142c:	20000200 	.word	0x20000200

00001430 <_ext_irq_enable>:
    1430:	2836      	cmp	r0, #54	; 0x36
    1432:	d012      	beq.n	145a <_ext_irq_enable+0x2a>
    1434:	2837      	cmp	r0, #55	; 0x37
    1436:	d012      	beq.n	145e <_ext_irq_enable+0x2e>
    1438:	2819      	cmp	r0, #25
    143a:	d012      	beq.n	1462 <_ext_irq_enable+0x32>
    143c:	282e      	cmp	r0, #46	; 0x2e
    143e:	d115      	bne.n	146c <_ext_irq_enable+0x3c>
    1440:	2303      	movs	r3, #3
    1442:	4a0c      	ldr	r2, [pc, #48]	; (1474 <_ext_irq_enable+0x44>)
    1444:	f812 0033 	ldrb.w	r0, [r2, r3, lsl #3]
    1448:	28ff      	cmp	r0, #255	; 0xff
    144a:	d00f      	beq.n	146c <_ext_irq_enable+0x3c>
    144c:	2301      	movs	r3, #1
    144e:	4a0a      	ldr	r2, [pc, #40]	; (1478 <_ext_irq_enable+0x48>)
    1450:	4083      	lsls	r3, r0
    1452:	b141      	cbz	r1, 1466 <_ext_irq_enable+0x36>
    1454:	6113      	str	r3, [r2, #16]
    1456:	2000      	movs	r0, #0
    1458:	4770      	bx	lr
    145a:	2300      	movs	r3, #0
    145c:	e7f1      	b.n	1442 <_ext_irq_enable+0x12>
    145e:	2301      	movs	r3, #1
    1460:	e7ef      	b.n	1442 <_ext_irq_enable+0x12>
    1462:	2302      	movs	r3, #2
    1464:	e7ed      	b.n	1442 <_ext_irq_enable+0x12>
    1466:	60d3      	str	r3, [r2, #12]
    1468:	6153      	str	r3, [r2, #20]
    146a:	e7f4      	b.n	1456 <_ext_irq_enable+0x26>
    146c:	f04f 30ff 	mov.w	r0, #4294967295
    1470:	4770      	bx	lr
    1472:	bf00      	nop
    1474:	0000408c 	.word	0x0000408c
    1478:	40002800 	.word	0x40002800

0000147c <EIC_6_Handler>:
    147c:	4b00      	ldr	r3, [pc, #0]	; (1480 <EIC_6_Handler+0x4>)
    147e:	4718      	bx	r3
    1480:	000012b5 	.word	0x000012b5

00001484 <EIC_7_Handler>:
    1484:	4b00      	ldr	r3, [pc, #0]	; (1488 <EIC_7_Handler+0x4>)
    1486:	4718      	bx	r3
    1488:	000012b5 	.word	0x000012b5

0000148c <EIC_9_Handler>:
    148c:	4b00      	ldr	r3, [pc, #0]	; (1490 <EIC_9_Handler+0x4>)
    148e:	4718      	bx	r3
    1490:	000012b5 	.word	0x000012b5

00001494 <EIC_14_Handler>:
    1494:	4b00      	ldr	r3, [pc, #0]	; (1498 <EIC_14_Handler+0x4>)
    1496:	4718      	bx	r3
    1498:	000012b5 	.word	0x000012b5

0000149c <hri_gclk_wait_for_sync.constprop.0>:
    149c:	4903      	ldr	r1, [pc, #12]	; (14ac <hri_gclk_wait_for_sync.constprop.0+0x10>)
    149e:	f643 73fd 	movw	r3, #16381	; 0x3ffd
    14a2:	684a      	ldr	r2, [r1, #4]
    14a4:	421a      	tst	r2, r3
    14a6:	d1fc      	bne.n	14a2 <hri_gclk_wait_for_sync.constprop.0+0x6>
    14a8:	4770      	bx	lr
    14aa:	bf00      	nop
    14ac:	40001c00 	.word	0x40001c00

000014b0 <_gclk_init_generators_by_fref>:
    14b0:	b510      	push	{r4, lr}
    14b2:	07c4      	lsls	r4, r0, #31
    14b4:	d504      	bpl.n	14c0 <_gclk_init_generators_by_fref+0x10>
    14b6:	4b0e      	ldr	r3, [pc, #56]	; (14f0 <_gclk_init_generators_by_fref+0x40>)
    14b8:	4a0e      	ldr	r2, [pc, #56]	; (14f4 <_gclk_init_generators_by_fref+0x44>)
    14ba:	621a      	str	r2, [r3, #32]
    14bc:	4b0e      	ldr	r3, [pc, #56]	; (14f8 <_gclk_init_generators_by_fref+0x48>)
    14be:	4798      	blx	r3
    14c0:	0781      	lsls	r1, r0, #30
    14c2:	d504      	bpl.n	14ce <_gclk_init_generators_by_fref+0x1e>
    14c4:	4b0a      	ldr	r3, [pc, #40]	; (14f0 <_gclk_init_generators_by_fref+0x40>)
    14c6:	4a0d      	ldr	r2, [pc, #52]	; (14fc <_gclk_init_generators_by_fref+0x4c>)
    14c8:	625a      	str	r2, [r3, #36]	; 0x24
    14ca:	4b0b      	ldr	r3, [pc, #44]	; (14f8 <_gclk_init_generators_by_fref+0x48>)
    14cc:	4798      	blx	r3
    14ce:	0742      	lsls	r2, r0, #29
    14d0:	d504      	bpl.n	14dc <_gclk_init_generators_by_fref+0x2c>
    14d2:	4b07      	ldr	r3, [pc, #28]	; (14f0 <_gclk_init_generators_by_fref+0x40>)
    14d4:	4a0a      	ldr	r2, [pc, #40]	; (1500 <_gclk_init_generators_by_fref+0x50>)
    14d6:	629a      	str	r2, [r3, #40]	; 0x28
    14d8:	4b07      	ldr	r3, [pc, #28]	; (14f8 <_gclk_init_generators_by_fref+0x48>)
    14da:	4798      	blx	r3
    14dc:	0703      	lsls	r3, r0, #28
    14de:	d506      	bpl.n	14ee <_gclk_init_generators_by_fref+0x3e>
    14e0:	4b03      	ldr	r3, [pc, #12]	; (14f0 <_gclk_init_generators_by_fref+0x40>)
    14e2:	4a08      	ldr	r2, [pc, #32]	; (1504 <_gclk_init_generators_by_fref+0x54>)
    14e4:	62da      	str	r2, [r3, #44]	; 0x2c
    14e6:	e8bd 4010 	ldmia.w	sp!, {r4, lr}
    14ea:	4b03      	ldr	r3, [pc, #12]	; (14f8 <_gclk_init_generators_by_fref+0x48>)
    14ec:	4718      	bx	r3
    14ee:	bd10      	pop	{r4, pc}
    14f0:	40001c00 	.word	0x40001c00
    14f4:	00020107 	.word	0x00020107
    14f8:	0000149d 	.word	0x0000149d
    14fc:	00060b07 	.word	0x00060b07
    1500:	00010105 	.word	0x00010105
    1504:	00100106 	.word	0x00100106

00001508 <_mclk_init>:
    1508:	4b01      	ldr	r3, [pc, #4]	; (1510 <_mclk_init+0x8>)
    150a:	2201      	movs	r2, #1
    150c:	715a      	strb	r2, [r3, #5]
    150e:	4770      	bx	lr
    1510:	40000800 	.word	0x40000800

00001514 <_osc32kctrl_init_sources>:
    1514:	4b06      	ldr	r3, [pc, #24]	; (1530 <_osc32kctrl_init_sources+0x1c>)
    1516:	f242 228e 	movw	r2, #8846	; 0x228e
    151a:	829a      	strh	r2, [r3, #20]
    151c:	2200      	movs	r2, #0
    151e:	759a      	strb	r2, [r3, #22]
    1520:	75da      	strb	r2, [r3, #23]
    1522:	69da      	ldr	r2, [r3, #28]
    1524:	f402 527c 	and.w	r2, r2, #16128	; 0x3f00
    1528:	61da      	str	r2, [r3, #28]
    152a:	2201      	movs	r2, #1
    152c:	741a      	strb	r2, [r3, #16]
    152e:	4770      	bx	lr
    1530:	40001400 	.word	0x40001400

00001534 <_oscctrl_init_sources>:
    1534:	4770      	bx	lr
	...

00001538 <_oscctrl_init_referenced_generators>:
    1538:	4b3b      	ldr	r3, [pc, #236]	; (1628 <_oscctrl_init_referenced_generators+0xf0>)
    153a:	6a1a      	ldr	r2, [r3, #32]
    153c:	f022 020f 	bic.w	r2, r2, #15
    1540:	f042 0204 	orr.w	r2, r2, #4
    1544:	621a      	str	r2, [r3, #32]
    1546:	f643 72fd 	movw	r2, #16381	; 0x3ffd
    154a:	6859      	ldr	r1, [r3, #4]
    154c:	4211      	tst	r1, r2
    154e:	d1fc      	bne.n	154a <_oscctrl_init_referenced_generators+0x12>
    1550:	6859      	ldr	r1, [r3, #4]
    1552:	f011 0104 	ands.w	r1, r1, #4
    1556:	d1fb      	bne.n	1550 <_oscctrl_init_referenced_generators+0x18>
    1558:	4a34      	ldr	r2, [pc, #208]	; (162c <_oscctrl_init_referenced_generators+0xf4>)
    155a:	7711      	strb	r1, [r2, #28]
    155c:	2142      	movs	r1, #66	; 0x42
    155e:	f8c3 1080 	str.w	r1, [r3, #128]	; 0x80
    1562:	4b33      	ldr	r3, [pc, #204]	; (1630 <_oscctrl_init_referenced_generators+0xf8>)
    1564:	6293      	str	r3, [r2, #40]	; 0x28
    1566:	f892 302c 	ldrb.w	r3, [r2, #44]	; 0x2c
    156a:	f013 0310 	ands.w	r3, r3, #16
    156e:	d1fa      	bne.n	1566 <_oscctrl_init_referenced_generators+0x2e>
    1570:	f882 3020 	strb.w	r3, [r2, #32]
    1574:	4a2d      	ldr	r2, [pc, #180]	; (162c <_oscctrl_init_referenced_generators+0xf4>)
    1576:	4613      	mov	r3, r2
    1578:	f892 102c 	ldrb.w	r1, [r2, #44]	; 0x2c
    157c:	0749      	lsls	r1, r1, #29
    157e:	d4fb      	bmi.n	1578 <_oscctrl_init_referenced_generators+0x40>
    1580:	2102      	movs	r1, #2
    1582:	7711      	strb	r1, [r2, #28]
    1584:	f893 202c 	ldrb.w	r2, [r3, #44]	; 0x2c
    1588:	0792      	lsls	r2, r2, #30
    158a:	d4fb      	bmi.n	1584 <_oscctrl_init_referenced_generators+0x4c>
    158c:	6a5a      	ldr	r2, [r3, #36]	; 0x24
    158e:	625a      	str	r2, [r3, #36]	; 0x24
    1590:	4b26      	ldr	r3, [pc, #152]	; (162c <_oscctrl_init_referenced_generators+0xf4>)
    1592:	461a      	mov	r2, r3
    1594:	f893 102c 	ldrb.w	r1, [r3, #44]	; 0x2c
    1598:	0708      	lsls	r0, r1, #28
    159a:	d4fb      	bmi.n	1594 <_oscctrl_init_referenced_generators+0x5c>
    159c:	2181      	movs	r1, #129	; 0x81
    159e:	f883 1020 	strb.w	r1, [r3, #32]
    15a2:	f892 302c 	ldrb.w	r3, [r2, #44]	; 0x2c
    15a6:	0759      	lsls	r1, r3, #29
    15a8:	d4fb      	bmi.n	15a2 <_oscctrl_init_referenced_generators+0x6a>
    15aa:	4b1f      	ldr	r3, [pc, #124]	; (1628 <_oscctrl_init_referenced_generators+0xf0>)
    15ac:	2143      	movs	r1, #67	; 0x43
    15ae:	f8c3 1084 	str.w	r1, [r3, #132]	; 0x84
    15b2:	2327      	movs	r3, #39	; 0x27
    15b4:	6353      	str	r3, [r2, #52]	; 0x34
    15b6:	4b1d      	ldr	r3, [pc, #116]	; (162c <_oscctrl_init_referenced_generators+0xf4>)
    15b8:	4619      	mov	r1, r3
    15ba:	6bda      	ldr	r2, [r3, #60]	; 0x3c
    15bc:	f012 0206 	ands.w	r2, r2, #6
    15c0:	d1fb      	bne.n	15ba <_oscctrl_init_referenced_generators+0x82>
    15c2:	639a      	str	r2, [r3, #56]	; 0x38
    15c4:	2202      	movs	r2, #2
    15c6:	f883 2030 	strb.w	r2, [r3, #48]	; 0x30
    15ca:	6bcb      	ldr	r3, [r1, #60]	; 0x3c
    15cc:	079b      	lsls	r3, r3, #30
    15ce:	d4fc      	bmi.n	15ca <_oscctrl_init_referenced_generators+0x92>
    15d0:	f891 3020 	ldrb.w	r3, [r1, #32]
    15d4:	4a15      	ldr	r2, [pc, #84]	; (162c <_oscctrl_init_referenced_generators+0xf4>)
    15d6:	f013 0f01 	tst.w	r3, #1
    15da:	d021      	beq.n	1620 <_oscctrl_init_referenced_generators+0xe8>
    15dc:	6913      	ldr	r3, [r2, #16]
    15de:	f403 6310 	and.w	r3, r3, #2304	; 0x900
    15e2:	f5b3 6f10 	cmp.w	r3, #2304	; 0x900
    15e6:	d1f9      	bne.n	15dc <_oscctrl_init_referenced_generators+0xa4>
    15e8:	4b10      	ldr	r3, [pc, #64]	; (162c <_oscctrl_init_referenced_generators+0xf4>)
    15ea:	6c1a      	ldr	r2, [r3, #64]	; 0x40
    15ec:	07d1      	lsls	r1, r2, #31
    15ee:	d402      	bmi.n	15f6 <_oscctrl_init_referenced_generators+0xbe>
    15f0:	6c1a      	ldr	r2, [r3, #64]	; 0x40
    15f2:	0792      	lsls	r2, r2, #30
    15f4:	d5f9      	bpl.n	15ea <_oscctrl_init_referenced_generators+0xb2>
    15f6:	4a0c      	ldr	r2, [pc, #48]	; (1628 <_oscctrl_init_referenced_generators+0xf0>)
    15f8:	4611      	mov	r1, r2
    15fa:	6853      	ldr	r3, [r2, #4]
    15fc:	2b00      	cmp	r3, #0
    15fe:	d1fc      	bne.n	15fa <_oscctrl_init_referenced_generators+0xc2>
    1600:	6a13      	ldr	r3, [r2, #32]
    1602:	f023 030f 	bic.w	r3, r3, #15
    1606:	f043 0307 	orr.w	r3, r3, #7
    160a:	6213      	str	r3, [r2, #32]
    160c:	f643 73fd 	movw	r3, #16381	; 0x3ffd
    1610:	684a      	ldr	r2, [r1, #4]
    1612:	421a      	tst	r2, r3
    1614:	d1fc      	bne.n	1610 <_oscctrl_init_referenced_generators+0xd8>
    1616:	4a04      	ldr	r2, [pc, #16]	; (1628 <_oscctrl_init_referenced_generators+0xf0>)
    1618:	6853      	ldr	r3, [r2, #4]
    161a:	075b      	lsls	r3, r3, #29
    161c:	d4fc      	bmi.n	1618 <_oscctrl_init_referenced_generators+0xe0>
    161e:	4770      	bx	lr
    1620:	6913      	ldr	r3, [r2, #16]
    1622:	05d8      	lsls	r0, r3, #23
    1624:	d5fc      	bpl.n	1620 <_oscctrl_init_referenced_generators+0xe8>
    1626:	e7df      	b.n	15e8 <_oscctrl_init_referenced_generators+0xb0>
    1628:	40001c00 	.word	0x40001c00
    162c:	40001000 	.word	0x40001000
    1630:	7c7f05b9 	.word	0x7c7f05b9

00001634 <_pcc_dma_transfer_done>:
    1634:	6880      	ldr	r0, [r0, #8]
    1636:	2100      	movs	r1, #0
    1638:	6803      	ldr	r3, [r0, #0]
    163a:	4718      	bx	r3

0000163c <_camera_async_init>:
    163c:	b538      	push	{r3, r4, r5, lr}
    163e:	4b08      	ldr	r3, [pc, #32]	; (1660 <_camera_async_init+0x24>)
    1640:	60c1      	str	r1, [r0, #12]
    1642:	4d08      	ldr	r5, [pc, #32]	; (1664 <_camera_async_init+0x28>)
    1644:	600b      	str	r3, [r1, #0]
    1646:	4b08      	ldr	r3, [pc, #32]	; (1668 <_camera_async_init+0x2c>)
    1648:	4604      	mov	r4, r0
    164a:	6018      	str	r0, [r3, #0]
    164c:	2100      	movs	r1, #0
    164e:	4b07      	ldr	r3, [pc, #28]	; (166c <_camera_async_init+0x30>)
    1650:	4628      	mov	r0, r5
    1652:	4798      	blx	r3
    1654:	682b      	ldr	r3, [r5, #0]
    1656:	4a06      	ldr	r2, [pc, #24]	; (1670 <_camera_async_init+0x34>)
    1658:	609c      	str	r4, [r3, #8]
    165a:	601a      	str	r2, [r3, #0]
    165c:	bd38      	pop	{r3, r4, r5, pc}
    165e:	bf00      	nop
    1660:	c0000020 	.word	0xc0000020
    1664:	20000b10 	.word	0x20000b10
    1668:	20000204 	.word	0x20000204
    166c:	00001279 	.word	0x00001279
    1670:	00001635 	.word	0x00001635

00001674 <PCC_Handler>:
    1674:	4b08      	ldr	r3, [pc, #32]	; (1698 <PCC_Handler+0x24>)
    1676:	b507      	push	{r0, r1, r2, lr}
    1678:	6818      	ldr	r0, [r3, #0]
    167a:	68c3      	ldr	r3, [r0, #12]
    167c:	691a      	ldr	r2, [r3, #16]
    167e:	9201      	str	r2, [sp, #4]
    1680:	2201      	movs	r2, #1
    1682:	609a      	str	r2, [r3, #8]
    1684:	9b01      	ldr	r3, [sp, #4]
    1686:	07db      	lsls	r3, r3, #31
    1688:	d503      	bpl.n	1692 <PCC_Handler+0x1e>
    168a:	6803      	ldr	r3, [r0, #0]
    168c:	b10b      	cbz	r3, 1692 <PCC_Handler+0x1e>
    168e:	2100      	movs	r1, #0
    1690:	4798      	blx	r3
    1692:	b003      	add	sp, #12
    1694:	f85d fb04 	ldr.w	pc, [sp], #4
    1698:	20000204 	.word	0x20000204

0000169c <RAMECC_Handler>:
    169c:	b507      	push	{r0, r1, r2, lr}
    169e:	4a0c      	ldr	r2, [pc, #48]	; (16d0 <RAMECC_Handler+0x34>)
    16a0:	7893      	ldrb	r3, [r2, #2]
    16a2:	b2db      	uxtb	r3, r3
    16a4:	9301      	str	r3, [sp, #4]
    16a6:	9b01      	ldr	r3, [sp, #4]
    16a8:	0799      	lsls	r1, r3, #30
    16aa:	d507      	bpl.n	16bc <RAMECC_Handler+0x20>
    16ac:	4b09      	ldr	r3, [pc, #36]	; (16d4 <RAMECC_Handler+0x38>)
    16ae:	681b      	ldr	r3, [r3, #0]
    16b0:	b123      	cbz	r3, 16bc <RAMECC_Handler+0x20>
    16b2:	6850      	ldr	r0, [r2, #4]
    16b4:	4798      	blx	r3
    16b6:	b003      	add	sp, #12
    16b8:	f85d fb04 	ldr.w	pc, [sp], #4
    16bc:	9b01      	ldr	r3, [sp, #4]
    16be:	07db      	lsls	r3, r3, #31
    16c0:	d5f9      	bpl.n	16b6 <RAMECC_Handler+0x1a>
    16c2:	4b04      	ldr	r3, [pc, #16]	; (16d4 <RAMECC_Handler+0x38>)
    16c4:	685b      	ldr	r3, [r3, #4]
    16c6:	2b00      	cmp	r3, #0
    16c8:	d0f5      	beq.n	16b6 <RAMECC_Handler+0x1a>
    16ca:	4a01      	ldr	r2, [pc, #4]	; (16d0 <RAMECC_Handler+0x34>)
    16cc:	e7f1      	b.n	16b2 <RAMECC_Handler+0x16>
    16ce:	bf00      	nop
    16d0:	41020000 	.word	0x41020000
    16d4:	20000b14 	.word	0x20000b14

000016d8 <_mci_send_cmd_execute>:
    16d8:	b570      	push	{r4, r5, r6, lr}
    16da:	0214      	lsls	r4, r2, #8
    16dc:	f404 547c 	and.w	r4, r4, #16128	; 0x3f00
    16e0:	05d5      	lsls	r5, r2, #23
    16e2:	ea41 0104 	orr.w	r1, r1, r4
    16e6:	d503      	bpl.n	16f0 <_mci_send_cmd_execute+0x18>
    16e8:	0514      	lsls	r4, r2, #20
    16ea:	d528      	bpl.n	173e <_mci_send_cmd_execute+0x66>
    16ec:	f041 0101 	orr.w	r1, r1, #1
    16f0:	f890 4204 	ldrb.w	r4, [r0, #516]	; 0x204
    16f4:	0455      	lsls	r5, r2, #17
    16f6:	bf4c      	ite	mi
    16f8:	f044 0410 	orrmi.w	r4, r4, #16
    16fc:	f004 04ef 	andpl.w	r4, r4, #239	; 0xef
    1700:	f880 4204 	strb.w	r4, [r0, #516]	; 0x204
    1704:	6083      	str	r3, [r0, #8]
    1706:	b28b      	uxth	r3, r1
    1708:	81c3      	strh	r3, [r0, #14]
    170a:	f240 257f 	movw	r5, #639	; 0x27f
    170e:	f402 5380 	and.w	r3, r2, #4096	; 0x1000
    1712:	f240 265d 	movw	r6, #605	; 0x25d
    1716:	8e44      	ldrh	r4, [r0, #50]	; 0x32
    1718:	b2a4      	uxth	r4, r4
    171a:	b1bb      	cbz	r3, 174c <_mci_send_cmd_execute+0x74>
    171c:	4234      	tst	r4, r6
    171e:	d025      	beq.n	176c <_mci_send_cmd_execute+0x94>
    1720:	f890 302f 	ldrb.w	r3, [r0, #47]	; 0x2f
    1724:	f043 0302 	orr.w	r3, r3, #2
    1728:	f880 302f 	strb.w	r3, [r0, #47]	; 0x2f
    172c:	8e43      	ldrh	r3, [r0, #50]	; 0x32
    172e:	b29b      	uxth	r3, r3
    1730:	ea6f 2393 	mvn.w	r3, r3, lsr #10
    1734:	ea6f 2383 	mvn.w	r3, r3, lsl #10
    1738:	8643      	strh	r3, [r0, #50]	; 0x32
    173a:	2000      	movs	r0, #0
    173c:	bd70      	pop	{r4, r5, r6, pc}
    173e:	0496      	lsls	r6, r2, #18
    1740:	bf4c      	ite	mi
    1742:	f041 0103 	orrmi.w	r1, r1, #3
    1746:	f041 0102 	orrpl.w	r1, r1, #2
    174a:	e7d1      	b.n	16f0 <_mci_send_cmd_execute+0x18>
    174c:	422c      	tst	r4, r5
    174e:	d00d      	beq.n	176c <_mci_send_cmd_execute+0x94>
    1750:	f890 202f 	ldrb.w	r2, [r0, #47]	; 0x2f
    1754:	f042 0202 	orr.w	r2, r2, #2
    1758:	f880 202f 	strb.w	r2, [r0, #47]	; 0x2f
    175c:	8e42      	ldrh	r2, [r0, #50]	; 0x32
    175e:	b292      	uxth	r2, r2
    1760:	ea6f 2292 	mvn.w	r2, r2, lsr #10
    1764:	ea6f 2282 	mvn.w	r2, r2, lsl #10
    1768:	8642      	strh	r2, [r0, #50]	; 0x32
    176a:	e7e6      	b.n	173a <_mci_send_cmd_execute+0x62>
    176c:	8e04      	ldrh	r4, [r0, #48]	; 0x30
    176e:	07e4      	lsls	r4, r4, #31
    1770:	d5d1      	bpl.n	1716 <_mci_send_cmd_execute+0x3e>
    1772:	068d      	lsls	r5, r1, #26
    1774:	bf5f      	itttt	pl
    1776:	8e03      	ldrhpl	r3, [r0, #48]	; 0x30
    1778:	b29b      	uxthpl	r3, r3
    177a:	f043 0301 	orrpl.w	r3, r3, #1
    177e:	8603      	strhpl	r3, [r0, #48]	; 0x30
    1780:	0494      	lsls	r4, r2, #18
    1782:	d50e      	bpl.n	17a2 <_mci_send_cmd_execute+0xca>
    1784:	2300      	movs	r3, #0
    1786:	1c59      	adds	r1, r3, #1
    1788:	6a42      	ldr	r2, [r0, #36]	; 0x24
    178a:	d106      	bne.n	179a <_mci_send_cmd_execute+0xc2>
    178c:	f890 302f 	ldrb.w	r3, [r0, #47]	; 0x2f
    1790:	f043 0302 	orr.w	r3, r3, #2
    1794:	f880 302f 	strb.w	r3, [r0, #47]	; 0x2f
    1798:	e7cf      	b.n	173a <_mci_send_cmd_execute+0x62>
    179a:	02d2      	lsls	r2, r2, #11
    179c:	f103 0301 	add.w	r3, r3, #1
    17a0:	d5f1      	bpl.n	1786 <_mci_send_cmd_execute+0xae>
    17a2:	2001      	movs	r0, #1
    17a4:	bd70      	pop	{r4, r5, r6, pc}

000017a6 <_mci_sync_init>:
    17a6:	6001      	str	r1, [r0, #0]
    17a8:	f891 302f 	ldrb.w	r3, [r1, #47]	; 0x2f
    17ac:	f043 0301 	orr.w	r3, r3, #1
    17b0:	f881 302f 	strb.w	r3, [r1, #47]	; 0x2f
    17b4:	f891 002f 	ldrb.w	r0, [r1, #47]	; 0x2f
    17b8:	f010 0001 	ands.w	r0, r0, #1
    17bc:	d1fa      	bne.n	17b4 <_mci_sync_init+0xe>
    17be:	230e      	movs	r3, #14
    17c0:	f881 302e 	strb.w	r3, [r1, #46]	; 0x2e
    17c4:	230f      	movs	r3, #15
    17c6:	f881 3029 	strb.w	r3, [r1, #41]	; 0x29
    17ca:	8e8b      	ldrh	r3, [r1, #52]	; 0x34
    17cc:	b29b      	uxth	r3, r3
    17ce:	ea6f 2353 	mvn.w	r3, r3, lsr #9
    17d2:	ea6f 2343 	mvn.w	r3, r3, lsl #9
    17d6:	868b      	strh	r3, [r1, #52]	; 0x34
    17d8:	8ecb      	ldrh	r3, [r1, #54]	; 0x36
    17da:	b29b      	uxth	r3, r3
    17dc:	ea6f 2393 	mvn.w	r3, r3, lsr #10
    17e0:	ea6f 2383 	mvn.w	r3, r3, lsl #10
    17e4:	86cb      	strh	r3, [r1, #54]	; 0x36
    17e6:	4770      	bx	lr

000017e8 <_mci_sync_select_device>:
    17e8:	b530      	push	{r4, r5, lr}
    17ea:	6801      	ldr	r1, [r0, #0]
    17ec:	f89d 400c 	ldrb.w	r4, [sp, #12]
    17f0:	f891 0028 	ldrb.w	r0, [r1, #40]	; 0x28
    17f4:	2c00      	cmp	r4, #0
    17f6:	d04f      	beq.n	1898 <_mci_sync_select_device+0xb0>
    17f8:	f040 0004 	orr.w	r0, r0, #4
    17fc:	f881 0028 	strb.w	r0, [r1, #40]	; 0x28
    1800:	8fc8      	ldrh	r0, [r1, #62]	; 0x3e
    1802:	0400      	lsls	r0, r0, #16
    1804:	d441      	bmi.n	188a <_mci_sync_select_device+0xa2>
    1806:	8d88      	ldrh	r0, [r1, #44]	; 0x2c
    1808:	0745      	lsls	r5, r0, #29
    180a:	d508      	bpl.n	181e <_mci_sync_select_device+0x36>
    180c:	6a48      	ldr	r0, [r1, #36]	; 0x24
    180e:	0784      	lsls	r4, r0, #30
    1810:	d1fc      	bne.n	180c <_mci_sync_select_device+0x24>
    1812:	8d88      	ldrh	r0, [r1, #44]	; 0x2c
    1814:	f020 0004 	bic.w	r0, r0, #4
    1818:	0400      	lsls	r0, r0, #16
    181a:	0c00      	lsrs	r0, r0, #16
    181c:	8588      	strh	r0, [r1, #44]	; 0x2c
    181e:	6c4c      	ldr	r4, [r1, #68]	; 0x44
    1820:	4d25      	ldr	r5, [pc, #148]	; (18b8 <_mci_sync_select_device+0xd0>)
    1822:	4826      	ldr	r0, [pc, #152]	; (18bc <_mci_sync_select_device+0xd4>)
    1824:	f3c4 4407 	ubfx	r4, r4, #16, #8
    1828:	2c00      	cmp	r4, #0
    182a:	bf18      	it	ne
    182c:	4628      	movne	r0, r5
    182e:	8d8c      	ldrh	r4, [r1, #44]	; 0x2c
    1830:	fbb0 f2f2 	udiv	r2, r0, r2
    1834:	f024 0420 	bic.w	r4, r4, #32
    1838:	0424      	lsls	r4, r4, #16
    183a:	0c24      	lsrs	r4, r4, #16
    183c:	858c      	strh	r4, [r1, #44]	; 0x2c
    183e:	f891 0028 	ldrb.w	r0, [r1, #40]	; 0x28
    1842:	0740      	lsls	r0, r0, #29
    1844:	ea4f 0252 	mov.w	r2, r2, lsr #1
    1848:	d502      	bpl.n	1850 <_mci_sync_select_device+0x68>
    184a:	2a00      	cmp	r2, #0
    184c:	bf08      	it	eq
    184e:	2201      	moveq	r2, #1
    1850:	8d88      	ldrh	r0, [r1, #44]	; 0x2c
    1852:	b2c0      	uxtb	r0, r0
    1854:	ea40 2002 	orr.w	r0, r0, r2, lsl #8
    1858:	b280      	uxth	r0, r0
    185a:	8588      	strh	r0, [r1, #44]	; 0x2c
    185c:	8d88      	ldrh	r0, [r1, #44]	; 0x2c
    185e:	f020 00c0 	bic.w	r0, r0, #192	; 0xc0
    1862:	0400      	lsls	r0, r0, #16
    1864:	0892      	lsrs	r2, r2, #2
    1866:	0c00      	lsrs	r0, r0, #16
    1868:	f002 02c0 	and.w	r2, r2, #192	; 0xc0
    186c:	4302      	orrs	r2, r0
    186e:	858a      	strh	r2, [r1, #44]	; 0x2c
    1870:	8d8a      	ldrh	r2, [r1, #44]	; 0x2c
    1872:	b292      	uxth	r2, r2
    1874:	f042 0201 	orr.w	r2, r2, #1
    1878:	858a      	strh	r2, [r1, #44]	; 0x2c
    187a:	8d8a      	ldrh	r2, [r1, #44]	; 0x2c
    187c:	0792      	lsls	r2, r2, #30
    187e:	d5fc      	bpl.n	187a <_mci_sync_select_device+0x92>
    1880:	8d8a      	ldrh	r2, [r1, #44]	; 0x2c
    1882:	b292      	uxth	r2, r2
    1884:	f042 0204 	orr.w	r2, r2, #4
    1888:	858a      	strh	r2, [r1, #44]	; 0x2c
    188a:	2b01      	cmp	r3, #1
    188c:	d007      	beq.n	189e <_mci_sync_select_device+0xb6>
    188e:	2b04      	cmp	r3, #4
    1890:	d00d      	beq.n	18ae <_mci_sync_select_device+0xc6>
    1892:	f06f 000c 	mvn.w	r0, #12
    1896:	bd30      	pop	{r4, r5, pc}
    1898:	f000 00fb 	and.w	r0, r0, #251	; 0xfb
    189c:	e7ae      	b.n	17fc <_mci_sync_select_device+0x14>
    189e:	f891 3028 	ldrb.w	r3, [r1, #40]	; 0x28
    18a2:	f003 03fd 	and.w	r3, r3, #253	; 0xfd
    18a6:	f881 3028 	strb.w	r3, [r1, #40]	; 0x28
    18aa:	2000      	movs	r0, #0
    18ac:	bd30      	pop	{r4, r5, pc}
    18ae:	f891 3028 	ldrb.w	r3, [r1, #40]	; 0x28
    18b2:	f043 0302 	orr.w	r3, r3, #2
    18b6:	e7f6      	b.n	18a6 <_mci_sync_select_device+0xbe>
    18b8:	01c9d000 	.word	0x01c9d000
    18bc:	0393a000 	.word	0x0393a000

000018c0 <_mci_sync_deselect_device>:
    18c0:	2000      	movs	r0, #0
    18c2:	4770      	bx	lr

000018c4 <_mci_sync_get_bus_width>:
    18c4:	2900      	cmp	r1, #0
    18c6:	bf0c      	ite	eq
    18c8:	2004      	moveq	r0, #4
    18ca:	2000      	movne	r0, #0
    18cc:	4770      	bx	lr

000018ce <_mci_sync_is_high_speed_capable>:
    18ce:	6803      	ldr	r3, [r0, #0]
    18d0:	6c18      	ldr	r0, [r3, #64]	; 0x40
    18d2:	f3c0 5040 	ubfx	r0, r0, #21, #1
    18d6:	4770      	bx	lr

000018d8 <_mci_sync_send_clock>:
    18d8:	b082      	sub	sp, #8
    18da:	2300      	movs	r3, #0
    18dc:	9301      	str	r3, [sp, #4]
    18de:	f241 3287 	movw	r2, #4999	; 0x1387
    18e2:	9b01      	ldr	r3, [sp, #4]
    18e4:	4293      	cmp	r3, r2
    18e6:	d901      	bls.n	18ec <_mci_sync_send_clock+0x14>
    18e8:	b002      	add	sp, #8
    18ea:	4770      	bx	lr
    18ec:	9b01      	ldr	r3, [sp, #4]
    18ee:	3301      	adds	r3, #1
    18f0:	9301      	str	r3, [sp, #4]
    18f2:	e7f6      	b.n	18e2 <_mci_sync_send_clock+0xa>

000018f4 <_mci_sync_send_cmd>:
    18f4:	b430      	push	{r4, r5}
    18f6:	6800      	ldr	r0, [r0, #0]
    18f8:	460d      	mov	r5, r1
    18fa:	6a41      	ldr	r1, [r0, #36]	; 0x24
    18fc:	f011 0101 	ands.w	r1, r1, #1
    1900:	4613      	mov	r3, r2
    1902:	d10b      	bne.n	191c <_mci_sync_send_cmd+0x28>
    1904:	8984      	ldrh	r4, [r0, #12]
    1906:	f024 0401 	bic.w	r4, r4, #1
    190a:	0424      	lsls	r4, r4, #16
    190c:	0c24      	lsrs	r4, r4, #16
    190e:	8184      	strh	r4, [r0, #12]
    1910:	4c04      	ldr	r4, [pc, #16]	; (1924 <_mci_sync_send_cmd+0x30>)
    1912:	80c1      	strh	r1, [r0, #6]
    1914:	462a      	mov	r2, r5
    1916:	46a4      	mov	ip, r4
    1918:	bc30      	pop	{r4, r5}
    191a:	4760      	bx	ip
    191c:	2000      	movs	r0, #0
    191e:	bc30      	pop	{r4, r5}
    1920:	4770      	bx	lr
    1922:	bf00      	nop
    1924:	000016d9 	.word	0x000016d9

00001928 <_mci_sync_get_response>:
    1928:	6803      	ldr	r3, [r0, #0]
    192a:	6918      	ldr	r0, [r3, #16]
    192c:	4770      	bx	lr

0000192e <_mci_sync_get_response_128>:
    192e:	b510      	push	{r4, lr}
    1930:	6804      	ldr	r4, [r0, #0]
    1932:	2303      	movs	r3, #3
    1934:	1d1a      	adds	r2, r3, #4
    1936:	2b03      	cmp	r3, #3
    1938:	f854 2022 	ldr.w	r2, [r4, r2, lsl #2]
    193c:	bf1c      	itt	ne
    193e:	0e10      	lsrne	r0, r2, #24
    1940:	f801 0b01 	strbne.w	r0, [r1], #1
    1944:	0c10      	lsrs	r0, r2, #16
    1946:	7008      	strb	r0, [r1, #0]
    1948:	f113 33ff 	adds.w	r3, r3, #4294967295
    194c:	ea4f 2012 	mov.w	r0, r2, lsr #8
    1950:	7048      	strb	r0, [r1, #1]
    1952:	708a      	strb	r2, [r1, #2]
    1954:	f101 0103 	add.w	r1, r1, #3
    1958:	d2ec      	bcs.n	1934 <_mci_sync_get_response_128+0x6>
    195a:	bd10      	pop	{r4, pc}

0000195c <_mci_sync_adtc_start>:
    195c:	e92d 0370 	stmdb	sp!, {r4, r5, r6, r8, r9}
    1960:	4605      	mov	r5, r0
    1962:	6800      	ldr	r0, [r0, #0]
    1964:	f8bd 6014 	ldrh.w	r6, [sp, #20]
    1968:	6a44      	ldr	r4, [r0, #36]	; 0x24
    196a:	07e4      	lsls	r4, r4, #31
    196c:	d42c      	bmi.n	19c8 <_mci_sync_adtc_start+0x6c>
    196e:	6a44      	ldr	r4, [r0, #36]	; 0x24
    1970:	f014 0f02 	tst.w	r4, #2
    1974:	d128      	bne.n	19c8 <_mci_sync_adtc_start+0x6c>
    1976:	f411 4f00 	tst.w	r1, #32768	; 0x8000
    197a:	bf14      	ite	ne
    197c:	2400      	movne	r4, #0
    197e:	2410      	moveq	r4, #16
    1980:	f411 3f80 	tst.w	r1, #65536	; 0x10000
    1984:	d104      	bne.n	1990 <_mci_sync_adtc_start+0x34>
    1986:	f411 3f00 	tst.w	r1, #131072	; 0x20000
    198a:	d017      	beq.n	19bc <_mci_sync_adtc_start+0x60>
    198c:	f044 0422 	orr.w	r4, r4, #34	; 0x22
    1990:	b2a4      	uxth	r4, r4
    1992:	8184      	strh	r4, [r0, #12]
    1994:	f3c3 0409 	ubfx	r4, r3, #0, #10
    1998:	8084      	strh	r4, [r0, #4]
    199a:	4c0d      	ldr	r4, [pc, #52]	; (19d0 <_mci_sync_adtc_start+0x74>)
    199c:	80c6      	strh	r6, [r0, #6]
    199e:	f04f 0800 	mov.w	r8, #0
    19a2:	f04f 0900 	mov.w	r9, #0
    19a6:	822b      	strh	r3, [r5, #16]
    19a8:	e9c5 8902 	strd	r8, r9, [r5, #8]
    19ac:	826e      	strh	r6, [r5, #18]
    19ae:	4613      	mov	r3, r2
    19b0:	46a4      	mov	ip, r4
    19b2:	460a      	mov	r2, r1
    19b4:	e8bd 0370 	ldmia.w	sp!, {r4, r5, r6, r8, r9}
    19b8:	2120      	movs	r1, #32
    19ba:	4760      	bx	ip
    19bc:	f411 2f00 	tst.w	r1, #524288	; 0x80000
    19c0:	d1e6      	bne.n	1990 <_mci_sync_adtc_start+0x34>
    19c2:	f411 1f80 	tst.w	r1, #1048576	; 0x100000
    19c6:	d1e1      	bne.n	198c <_mci_sync_adtc_start+0x30>
    19c8:	2000      	movs	r0, #0
    19ca:	e8bd 0370 	ldmia.w	sp!, {r4, r5, r6, r8, r9}
    19ce:	4770      	bx	lr
    19d0:	000016d9 	.word	0x000016d9

000019d4 <_mci_sync_read_word>:
    19d4:	e92d 4ff7 	stmdb	sp!, {r0, r1, r2, r4, r5, r6, r7, r8, r9, sl, fp, lr}
    19d8:	8a03      	ldrh	r3, [r0, #16]
    19da:	f8b0 8012 	ldrh.w	r8, [r0, #18]
    19de:	9301      	str	r3, [sp, #4]
    19e0:	e9d0 ab02 	ldrd	sl, fp, [r0, #8]
    19e4:	fb08 f203 	mul.w	r2, r8, r3
    19e8:	17d3      	asrs	r3, r2, #31
    19ea:	ebb2 020a 	subs.w	r2, r2, sl
    19ee:	eb63 030b 	sbc.w	r3, r3, fp
    19f2:	2b00      	cmp	r3, #0
    19f4:	bf08      	it	eq
    19f6:	2a04      	cmpeq	r2, #4
    19f8:	bf38      	it	cc
    19fa:	9b01      	ldrcc	r3, [sp, #4]
    19fc:	6804      	ldr	r4, [r0, #0]
    19fe:	4d27      	ldr	r5, [pc, #156]	; (1a9c <_mci_sync_read_word+0xc8>)
    1a00:	bf38      	it	cc
    1a02:	f003 0703 	andcc.w	r7, r3, #3
    1a06:	9b01      	ldr	r3, [sp, #4]
    1a08:	f04f 0200 	mov.w	r2, #0
    1a0c:	4689      	mov	r9, r1
    1a0e:	4619      	mov	r1, r3
    1a10:	4606      	mov	r6, r0
    1a12:	4613      	mov	r3, r2
    1a14:	4650      	mov	r0, sl
    1a16:	460a      	mov	r2, r1
    1a18:	4659      	mov	r1, fp
    1a1a:	bf28      	it	cs
    1a1c:	2704      	movcs	r7, #4
    1a1e:	47a8      	blx	r5
    1a20:	4313      	orrs	r3, r2
    1a22:	d115      	bne.n	1a50 <_mci_sync_read_word+0x7c>
    1a24:	8e63      	ldrh	r3, [r4, #50]	; 0x32
    1a26:	f003 0370 	and.w	r3, r3, #112	; 0x70
    1a2a:	b14b      	cbz	r3, 1a40 <_mci_sync_read_word+0x6c>
    1a2c:	f894 302f 	ldrb.w	r3, [r4, #47]	; 0x2f
    1a30:	f043 0302 	orr.w	r3, r3, #2
    1a34:	f884 302f 	strb.w	r3, [r4, #47]	; 0x2f
    1a38:	2000      	movs	r0, #0
    1a3a:	b003      	add	sp, #12
    1a3c:	e8bd 8ff0 	ldmia.w	sp!, {r4, r5, r6, r7, r8, r9, sl, fp, pc}
    1a40:	8e23      	ldrh	r3, [r4, #48]	; 0x30
    1a42:	069a      	lsls	r2, r3, #26
    1a44:	d5ee      	bpl.n	1a24 <_mci_sync_read_word+0x50>
    1a46:	8e23      	ldrh	r3, [r4, #48]	; 0x30
    1a48:	b29b      	uxth	r3, r3
    1a4a:	f043 0320 	orr.w	r3, r3, #32
    1a4e:	8623      	strh	r3, [r4, #48]	; 0x30
    1a50:	2f04      	cmp	r7, #4
    1a52:	6a23      	ldr	r3, [r4, #32]
    1a54:	d11d      	bne.n	1a92 <_mci_sync_read_word+0xbe>
    1a56:	f8c9 3000 	str.w	r3, [r9]
    1a5a:	9901      	ldr	r1, [sp, #4]
    1a5c:	eb1a 0207 	adds.w	r2, sl, r7
    1a60:	f14b 0300 	adc.w	r3, fp, #0
    1a64:	fba1 8908 	umull	r8, r9, r1, r8
    1a68:	454b      	cmp	r3, r9
    1a6a:	bf08      	it	eq
    1a6c:	4542      	cmpeq	r2, r8
    1a6e:	e9c6 2302 	strd	r2, r3, [r6, #8]
    1a72:	d30c      	bcc.n	1a8e <_mci_sync_read_word+0xba>
    1a74:	8e63      	ldrh	r3, [r4, #50]	; 0x32
    1a76:	f003 0370 	and.w	r3, r3, #112	; 0x70
    1a7a:	2b00      	cmp	r3, #0
    1a7c:	d1d6      	bne.n	1a2c <_mci_sync_read_word+0x58>
    1a7e:	8e23      	ldrh	r3, [r4, #48]	; 0x30
    1a80:	079b      	lsls	r3, r3, #30
    1a82:	d5f7      	bpl.n	1a74 <_mci_sync_read_word+0xa0>
    1a84:	8e23      	ldrh	r3, [r4, #48]	; 0x30
    1a86:	b29b      	uxth	r3, r3
    1a88:	f043 0302 	orr.w	r3, r3, #2
    1a8c:	8623      	strh	r3, [r4, #48]	; 0x30
    1a8e:	2001      	movs	r0, #1
    1a90:	e7d3      	b.n	1a3a <_mci_sync_read_word+0x66>
    1a92:	1e7a      	subs	r2, r7, #1
    1a94:	2a02      	cmp	r2, #2
    1a96:	d8e0      	bhi.n	1a5a <_mci_sync_read_word+0x86>
    1a98:	b2db      	uxtb	r3, r3
    1a9a:	e7dc      	b.n	1a56 <_mci_sync_read_word+0x82>
    1a9c:	00003c0d 	.word	0x00003c0d

00001aa0 <_mci_sync_write_word>:
    1aa0:	e92d 47f0 	stmdb	sp!, {r4, r5, r6, r7, r8, r9, sl, lr}
    1aa4:	e9d0 6702 	ldrd	r6, r7, [r0, #8]
    1aa8:	f8b0 8010 	ldrh.w	r8, [r0, #16]
    1aac:	6804      	ldr	r4, [r0, #0]
    1aae:	f8df a07c 	ldr.w	sl, [pc, #124]	; 1b2c <_mci_sync_write_word+0x8c>
    1ab2:	4605      	mov	r5, r0
    1ab4:	4689      	mov	r9, r1
    1ab6:	4642      	mov	r2, r8
    1ab8:	2300      	movs	r3, #0
    1aba:	4630      	mov	r0, r6
    1abc:	4639      	mov	r1, r7
    1abe:	47d0      	blx	sl
    1ac0:	4313      	orrs	r3, r2
    1ac2:	d114      	bne.n	1aee <_mci_sync_write_word+0x4e>
    1ac4:	8e63      	ldrh	r3, [r4, #50]	; 0x32
    1ac6:	f003 0370 	and.w	r3, r3, #112	; 0x70
    1aca:	b143      	cbz	r3, 1ade <_mci_sync_write_word+0x3e>
    1acc:	f894 302f 	ldrb.w	r3, [r4, #47]	; 0x2f
    1ad0:	f043 0302 	orr.w	r3, r3, #2
    1ad4:	f884 302f 	strb.w	r3, [r4, #47]	; 0x2f
    1ad8:	2000      	movs	r0, #0
    1ada:	e8bd 87f0 	ldmia.w	sp!, {r4, r5, r6, r7, r8, r9, sl, pc}
    1ade:	8e23      	ldrh	r3, [r4, #48]	; 0x30
    1ae0:	06da      	lsls	r2, r3, #27
    1ae2:	d5ef      	bpl.n	1ac4 <_mci_sync_write_word+0x24>
    1ae4:	8e23      	ldrh	r3, [r4, #48]	; 0x30
    1ae6:	b29b      	uxth	r3, r3
    1ae8:	f043 0310 	orr.w	r3, r3, #16
    1aec:	8623      	strh	r3, [r4, #48]	; 0x30
    1aee:	f8c4 9020 	str.w	r9, [r4, #32]
    1af2:	8a6b      	ldrh	r3, [r5, #18]
    1af4:	3604      	adds	r6, #4
    1af6:	f147 0700 	adc.w	r7, r7, #0
    1afa:	fba3 8908 	umull	r8, r9, r3, r8
    1afe:	454f      	cmp	r7, r9
    1b00:	bf08      	it	eq
    1b02:	4546      	cmpeq	r6, r8
    1b04:	e9c5 6702 	strd	r6, r7, [r5, #8]
    1b08:	d30c      	bcc.n	1b24 <_mci_sync_write_word+0x84>
    1b0a:	8e63      	ldrh	r3, [r4, #50]	; 0x32
    1b0c:	f003 0370 	and.w	r3, r3, #112	; 0x70
    1b10:	2b00      	cmp	r3, #0
    1b12:	d1db      	bne.n	1acc <_mci_sync_write_word+0x2c>
    1b14:	8e23      	ldrh	r3, [r4, #48]	; 0x30
    1b16:	079b      	lsls	r3, r3, #30
    1b18:	d5f7      	bpl.n	1b0a <_mci_sync_write_word+0x6a>
    1b1a:	8e23      	ldrh	r3, [r4, #48]	; 0x30
    1b1c:	b29b      	uxth	r3, r3
    1b1e:	f043 0302 	orr.w	r3, r3, #2
    1b22:	8623      	strh	r3, [r4, #48]	; 0x30
    1b24:	2001      	movs	r0, #1
    1b26:	e8bd 87f0 	ldmia.w	sp!, {r4, r5, r6, r7, r8, r9, sl, pc}
    1b2a:	bf00      	nop
    1b2c:	00003c0d 	.word	0x00003c0d

00001b30 <_mci_sync_start_read_blocks>:
    1b30:	e92d 41f0 	stmdb	sp!, {r4, r5, r6, r7, r8, lr}
    1b34:	8a05      	ldrh	r5, [r0, #16]
    1b36:	f8df 8030 	ldr.w	r8, [pc, #48]	; 1b68 <_mci_sync_start_read_blocks+0x38>
    1b3a:	4607      	mov	r7, r0
    1b3c:	4355      	muls	r5, r2
    1b3e:	460e      	mov	r6, r1
    1b40:	2404      	movs	r4, #4
    1b42:	b915      	cbnz	r5, 1b4a <_mci_sync_start_read_blocks+0x1a>
    1b44:	2001      	movs	r0, #1
    1b46:	e8bd 81f0 	ldmia.w	sp!, {r4, r5, r6, r7, r8, pc}
    1b4a:	4631      	mov	r1, r6
    1b4c:	4638      	mov	r0, r7
    1b4e:	47c0      	blx	r8
    1b50:	42a5      	cmp	r5, r4
    1b52:	bf3f      	itttt	cc
    1b54:	8a3b      	ldrhcc	r3, [r7, #16]
    1b56:	fb93 f2f4 	sdivcc	r2, r3, r4
    1b5a:	fb04 3412 	mlscc	r4, r4, r2, r3
    1b5e:	b2e4      	uxtbcc	r4, r4
    1b60:	1b2d      	subs	r5, r5, r4
    1b62:	4426      	add	r6, r4
    1b64:	e7ed      	b.n	1b42 <_mci_sync_start_read_blocks+0x12>
    1b66:	bf00      	nop
    1b68:	000019d5 	.word	0x000019d5

00001b6c <_mci_sync_start_write_blocks>:
    1b6c:	e92d 41f0 	stmdb	sp!, {r4, r5, r6, r7, r8, lr}
    1b70:	8a05      	ldrh	r5, [r0, #16]
    1b72:	f8df 8030 	ldr.w	r8, [pc, #48]	; 1ba4 <_mci_sync_start_write_blocks+0x38>
    1b76:	4607      	mov	r7, r0
    1b78:	4355      	muls	r5, r2
    1b7a:	460e      	mov	r6, r1
    1b7c:	2404      	movs	r4, #4
    1b7e:	b915      	cbnz	r5, 1b86 <_mci_sync_start_write_blocks+0x1a>
    1b80:	2001      	movs	r0, #1
    1b82:	e8bd 81f0 	ldmia.w	sp!, {r4, r5, r6, r7, r8, pc}
    1b86:	6831      	ldr	r1, [r6, #0]
    1b88:	4638      	mov	r0, r7
    1b8a:	47c0      	blx	r8
    1b8c:	42a5      	cmp	r5, r4
    1b8e:	bf3f      	itttt	cc
    1b90:	8a3b      	ldrhcc	r3, [r7, #16]
    1b92:	fb93 f2f4 	sdivcc	r2, r3, r4
    1b96:	fb04 3412 	mlscc	r4, r4, r2, r3
    1b9a:	b2e4      	uxtbcc	r4, r4
    1b9c:	1b2d      	subs	r5, r5, r4
    1b9e:	4426      	add	r6, r4
    1ba0:	e7ed      	b.n	1b7e <_mci_sync_start_write_blocks+0x12>
    1ba2:	bf00      	nop
    1ba4:	00001aa1 	.word	0x00001aa1

00001ba8 <_mci_sync_wait_end_of_read_blocks>:
    1ba8:	2001      	movs	r0, #1
    1baa:	4770      	bx	lr

00001bac <_mci_sync_wait_end_of_write_blocks>:
    1bac:	2001      	movs	r0, #1
    1bae:	4770      	bx	lr

00001bb0 <_delay_init>:
    1bb0:	4b03      	ldr	r3, [pc, #12]	; (1bc0 <_delay_init+0x10>)
    1bb2:	f06f 427f 	mvn.w	r2, #4278190080	; 0xff000000
    1bb6:	605a      	str	r2, [r3, #4]
    1bb8:	2205      	movs	r2, #5
    1bba:	601a      	str	r2, [r3, #0]
    1bbc:	4770      	bx	lr
    1bbe:	bf00      	nop
    1bc0:	e000e010 	.word	0xe000e010

00001bc4 <_delay_cycles>:
    1bc4:	0e0b      	lsrs	r3, r1, #24
    1bc6:	4a0c      	ldr	r2, [pc, #48]	; (1bf8 <_delay_cycles+0x34>)
    1bc8:	b530      	push	{r4, r5, lr}
    1bca:	b2d8      	uxtb	r0, r3
    1bcc:	f06f 447f 	mvn.w	r4, #4278190080	; 0xff000000
    1bd0:	3801      	subs	r0, #1
    1bd2:	b2c0      	uxtb	r0, r0
    1bd4:	28ff      	cmp	r0, #255	; 0xff
    1bd6:	d108      	bne.n	1bea <_delay_cycles+0x26>
    1bd8:	eba3 6303 	sub.w	r3, r3, r3, lsl #24
    1bdc:	4419      	add	r1, r3
    1bde:	6051      	str	r1, [r2, #4]
    1be0:	6091      	str	r1, [r2, #8]
    1be2:	6813      	ldr	r3, [r2, #0]
    1be4:	03db      	lsls	r3, r3, #15
    1be6:	d5fc      	bpl.n	1be2 <_delay_cycles+0x1e>
    1be8:	bd30      	pop	{r4, r5, pc}
    1bea:	6054      	str	r4, [r2, #4]
    1bec:	6094      	str	r4, [r2, #8]
    1bee:	6815      	ldr	r5, [r2, #0]
    1bf0:	03ed      	lsls	r5, r5, #15
    1bf2:	d5fc      	bpl.n	1bee <_delay_cycles+0x2a>
    1bf4:	e7ec      	b.n	1bd0 <_delay_cycles+0xc>
    1bf6:	bf00      	nop
    1bf8:	e000e010 	.word	0xe000e010

00001bfc <__NVIC_DisableIRQ>:
    1bfc:	2800      	cmp	r0, #0
    1bfe:	db0d      	blt.n	1c1c <__NVIC_DisableIRQ+0x20>
    1c00:	0943      	lsrs	r3, r0, #5
    1c02:	2201      	movs	r2, #1
    1c04:	f000 001f 	and.w	r0, r0, #31
    1c08:	fa02 f000 	lsl.w	r0, r2, r0
    1c0c:	3320      	adds	r3, #32
    1c0e:	4a04      	ldr	r2, [pc, #16]	; (1c20 <__NVIC_DisableIRQ+0x24>)
    1c10:	f842 0023 	str.w	r0, [r2, r3, lsl #2]
    1c14:	f3bf 8f4f 	dsb	sy
    1c18:	f3bf 8f6f 	isb	sy
    1c1c:	4770      	bx	lr
    1c1e:	bf00      	nop
    1c20:	e000e100 	.word	0xe000e100

00001c24 <hri_tc_wait_for_sync>:
    1c24:	6903      	ldr	r3, [r0, #16]
    1c26:	420b      	tst	r3, r1
    1c28:	d1fc      	bne.n	1c24 <hri_tc_wait_for_sync>
    1c2a:	4770      	bx	lr

00001c2c <hri_tc_clear_CTRLA_ENABLE_bit>:
    1c2c:	6803      	ldr	r3, [r0, #0]
    1c2e:	f023 0302 	bic.w	r3, r3, #2
    1c32:	6003      	str	r3, [r0, #0]
    1c34:	2103      	movs	r1, #3
    1c36:	4b01      	ldr	r3, [pc, #4]	; (1c3c <hri_tc_clear_CTRLA_ENABLE_bit+0x10>)
    1c38:	4718      	bx	r3
    1c3a:	bf00      	nop
    1c3c:	00001c25 	.word	0x00001c25

00001c40 <get_tc_index>:
    1c40:	b570      	push	{r4, r5, r6, lr}
    1c42:	4d12      	ldr	r5, [pc, #72]	; (1c8c <get_tc_index+0x4c>)
    1c44:	4606      	mov	r6, r0
    1c46:	cd0f      	ldmia	r5!, {r0, r1, r2, r3}
    1c48:	b086      	sub	sp, #24
    1c4a:	466c      	mov	r4, sp
    1c4c:	c40f      	stmia	r4!, {r0, r1, r2, r3}
    1c4e:	e895 0003 	ldmia.w	r5, {r0, r1}
    1c52:	e884 0003 	stmia.w	r4, {r0, r1}
    1c56:	2300      	movs	r3, #0
    1c58:	f85d 2023 	ldr.w	r2, [sp, r3, lsl #2]
    1c5c:	42b2      	cmp	r2, r6
    1c5e:	d10b      	bne.n	1c78 <get_tc_index+0x38>
    1c60:	b2db      	uxtb	r3, r3
    1c62:	4a0b      	ldr	r2, [pc, #44]	; (1c90 <get_tc_index+0x50>)
    1c64:	7811      	ldrb	r1, [r2, #0]
    1c66:	4299      	cmp	r1, r3
    1c68:	d00b      	beq.n	1c82 <get_tc_index+0x42>
    1c6a:	7d12      	ldrb	r2, [r2, #20]
    1c6c:	429a      	cmp	r2, r3
    1c6e:	d10a      	bne.n	1c86 <get_tc_index+0x46>
    1c70:	2001      	movs	r0, #1
    1c72:	b240      	sxtb	r0, r0
    1c74:	b006      	add	sp, #24
    1c76:	bd70      	pop	{r4, r5, r6, pc}
    1c78:	3301      	adds	r3, #1
    1c7a:	2b06      	cmp	r3, #6
    1c7c:	d1ec      	bne.n	1c58 <get_tc_index+0x18>
    1c7e:	2300      	movs	r3, #0
    1c80:	e7ef      	b.n	1c62 <get_tc_index+0x22>
    1c82:	2000      	movs	r0, #0
    1c84:	e7f5      	b.n	1c72 <get_tc_index+0x32>
    1c86:	f04f 30ff 	mov.w	r0, #4294967295
    1c8a:	e7f3      	b.n	1c74 <get_tc_index+0x34>
    1c8c:	000040ac 	.word	0x000040ac
    1c90:	20000000 	.word	0x20000000

00001c94 <_timer_init>:
    1c94:	e92d 43f8 	stmdb	sp!, {r3, r4, r5, r6, r7, r8, r9, lr}
    1c98:	4681      	mov	r9, r0
    1c9a:	460c      	mov	r4, r1
    1c9c:	4b3f      	ldr	r3, [pc, #252]	; (1d9c <_timer_init+0x108>)
    1c9e:	4608      	mov	r0, r1
    1ca0:	4798      	blx	r3
    1ca2:	f8c9 400c 	str.w	r4, [r9, #12]
    1ca6:	6923      	ldr	r3, [r4, #16]
    1ca8:	4a3d      	ldr	r2, [pc, #244]	; (1da0 <_timer_init+0x10c>)
    1caa:	f013 0f01 	tst.w	r3, #1
    1cae:	4607      	mov	r7, r0
    1cb0:	d110      	bne.n	1cd4 <_timer_init+0x40>
    1cb2:	2103      	movs	r1, #3
    1cb4:	4620      	mov	r0, r4
    1cb6:	4790      	blx	r2
    1cb8:	6823      	ldr	r3, [r4, #0]
    1cba:	079b      	lsls	r3, r3, #30
    1cbc:	d505      	bpl.n	1cca <_timer_init+0x36>
    1cbe:	4620      	mov	r0, r4
    1cc0:	4b38      	ldr	r3, [pc, #224]	; (1da4 <_timer_init+0x110>)
    1cc2:	4798      	blx	r3
    1cc4:	2102      	movs	r1, #2
    1cc6:	4620      	mov	r0, r4
    1cc8:	4790      	blx	r2
    1cca:	2301      	movs	r3, #1
    1ccc:	6023      	str	r3, [r4, #0]
    1cce:	2103      	movs	r1, #3
    1cd0:	4620      	mov	r0, r4
    1cd2:	4790      	blx	r2
    1cd4:	f8df 80e0 	ldr.w	r8, [pc, #224]	; 1db8 <_timer_init+0x124>
    1cd8:	2514      	movs	r5, #20
    1cda:	fb05 8507 	mla	r5, r5, r7, r8
    1cde:	2101      	movs	r1, #1
    1ce0:	4620      	mov	r0, r4
    1ce2:	4790      	blx	r2
    1ce4:	686e      	ldr	r6, [r5, #4]
    1ce6:	6026      	str	r6, [r4, #0]
    1ce8:	2103      	movs	r1, #3
    1cea:	4620      	mov	r0, r4
    1cec:	4790      	blx	r2
    1cee:	7aab      	ldrb	r3, [r5, #10]
    1cf0:	73e3      	strb	r3, [r4, #15]
    1cf2:	f006 060c 	and.w	r6, r6, #12
    1cf6:	892b      	ldrh	r3, [r5, #8]
    1cf8:	80e3      	strh	r3, [r4, #6]
    1cfa:	2e08      	cmp	r6, #8
    1cfc:	f04f 0301 	mov.w	r3, #1
    1d00:	7323      	strb	r3, [r4, #12]
    1d02:	d12b      	bne.n	1d5c <_timer_init+0xc8>
    1d04:	68eb      	ldr	r3, [r5, #12]
    1d06:	61e3      	str	r3, [r4, #28]
    1d08:	21c0      	movs	r1, #192	; 0xc0
    1d0a:	4620      	mov	r0, r4
    1d0c:	4790      	blx	r2
    1d0e:	692b      	ldr	r3, [r5, #16]
    1d10:	6223      	str	r3, [r4, #32]
    1d12:	21c0      	movs	r1, #192	; 0xc0
    1d14:	4620      	mov	r0, r4
    1d16:	4790      	blx	r2
    1d18:	2301      	movs	r3, #1
    1d1a:	7263      	strb	r3, [r4, #9]
    1d1c:	4b22      	ldr	r3, [pc, #136]	; (1da8 <_timer_init+0x114>)
    1d1e:	429c      	cmp	r4, r3
    1d20:	d135      	bne.n	1d8e <_timer_init+0xfa>
    1d22:	4b22      	ldr	r3, [pc, #136]	; (1dac <_timer_init+0x118>)
    1d24:	f8c3 9000 	str.w	r9, [r3]
    1d28:	2314      	movs	r3, #20
    1d2a:	fb03 8707 	mla	r7, r3, r7, r8
    1d2e:	4b20      	ldr	r3, [pc, #128]	; (1db0 <_timer_init+0x11c>)
    1d30:	f9b7 1002 	ldrsh.w	r1, [r7, #2]
    1d34:	4608      	mov	r0, r1
    1d36:	4798      	blx	r3
    1d38:	2900      	cmp	r1, #0
    1d3a:	db0c      	blt.n	1d56 <_timer_init+0xc2>
    1d3c:	f001 021f 	and.w	r2, r1, #31
    1d40:	0949      	lsrs	r1, r1, #5
    1d42:	0089      	lsls	r1, r1, #2
    1d44:	f101 4160 	add.w	r1, r1, #3758096384	; 0xe0000000
    1d48:	f501 4161 	add.w	r1, r1, #57600	; 0xe100
    1d4c:	2301      	movs	r3, #1
    1d4e:	4093      	lsls	r3, r2
    1d50:	f8c1 3180 	str.w	r3, [r1, #384]	; 0x180
    1d54:	600b      	str	r3, [r1, #0]
    1d56:	2000      	movs	r0, #0
    1d58:	e8bd 83f8 	ldmia.w	sp!, {r3, r4, r5, r6, r7, r8, r9, pc}
    1d5c:	b93e      	cbnz	r6, 1d6e <_timer_init+0xda>
    1d5e:	89ab      	ldrh	r3, [r5, #12]
    1d60:	83a3      	strh	r3, [r4, #28]
    1d62:	21c0      	movs	r1, #192	; 0xc0
    1d64:	4620      	mov	r0, r4
    1d66:	4790      	blx	r2
    1d68:	8a2b      	ldrh	r3, [r5, #16]
    1d6a:	83e3      	strh	r3, [r4, #30]
    1d6c:	e7d1      	b.n	1d12 <_timer_init+0x7e>
    1d6e:	2e04      	cmp	r6, #4
    1d70:	d1d2      	bne.n	1d18 <_timer_init+0x84>
    1d72:	7b2b      	ldrb	r3, [r5, #12]
    1d74:	7723      	strb	r3, [r4, #28]
    1d76:	21c0      	movs	r1, #192	; 0xc0
    1d78:	4620      	mov	r0, r4
    1d7a:	4790      	blx	r2
    1d7c:	7c2b      	ldrb	r3, [r5, #16]
    1d7e:	7763      	strb	r3, [r4, #29]
    1d80:	21c0      	movs	r1, #192	; 0xc0
    1d82:	4620      	mov	r0, r4
    1d84:	4790      	blx	r2
    1d86:	7aeb      	ldrb	r3, [r5, #11]
    1d88:	76e3      	strb	r3, [r4, #27]
    1d8a:	2120      	movs	r1, #32
    1d8c:	e7c2      	b.n	1d14 <_timer_init+0x80>
    1d8e:	4b09      	ldr	r3, [pc, #36]	; (1db4 <_timer_init+0x120>)
    1d90:	429c      	cmp	r4, r3
    1d92:	bf04      	itt	eq
    1d94:	4b05      	ldreq	r3, [pc, #20]	; (1dac <_timer_init+0x118>)
    1d96:	f8c3 9004 	streq.w	r9, [r3, #4]
    1d9a:	e7c5      	b.n	1d28 <_timer_init+0x94>
    1d9c:	00001c41 	.word	0x00001c41
    1da0:	00001c25 	.word	0x00001c25
    1da4:	00001c2d 	.word	0x00001c2d
    1da8:	40003800 	.word	0x40003800
    1dac:	20000208 	.word	0x20000208
    1db0:	00001bfd 	.word	0x00001bfd
    1db4:	40003c00 	.word	0x40003c00
    1db8:	20000000 	.word	0x20000000

00001dbc <_pwm_init>:
    1dbc:	e92d 43f8 	stmdb	sp!, {r3, r4, r5, r6, r7, r8, r9, lr}
    1dc0:	4681      	mov	r9, r0
    1dc2:	460c      	mov	r4, r1
    1dc4:	4b38      	ldr	r3, [pc, #224]	; (1ea8 <_pwm_init+0xec>)
    1dc6:	4608      	mov	r0, r1
    1dc8:	4798      	blx	r3
    1dca:	f8c9 4010 	str.w	r4, [r9, #16]
    1dce:	6923      	ldr	r3, [r4, #16]
    1dd0:	4a36      	ldr	r2, [pc, #216]	; (1eac <_pwm_init+0xf0>)
    1dd2:	f013 0f01 	tst.w	r3, #1
    1dd6:	4607      	mov	r7, r0
    1dd8:	d110      	bne.n	1dfc <_pwm_init+0x40>
    1dda:	2103      	movs	r1, #3
    1ddc:	4620      	mov	r0, r4
    1dde:	4790      	blx	r2
    1de0:	6823      	ldr	r3, [r4, #0]
    1de2:	079b      	lsls	r3, r3, #30
    1de4:	d505      	bpl.n	1df2 <_pwm_init+0x36>
    1de6:	4620      	mov	r0, r4
    1de8:	4b31      	ldr	r3, [pc, #196]	; (1eb0 <_pwm_init+0xf4>)
    1dea:	4798      	blx	r3
    1dec:	2102      	movs	r1, #2
    1dee:	4620      	mov	r0, r4
    1df0:	4790      	blx	r2
    1df2:	2301      	movs	r3, #1
    1df4:	6023      	str	r3, [r4, #0]
    1df6:	2103      	movs	r1, #3
    1df8:	4620      	mov	r0, r4
    1dfa:	4790      	blx	r2
    1dfc:	f8df 80c4 	ldr.w	r8, [pc, #196]	; 1ec4 <_pwm_init+0x108>
    1e00:	2514      	movs	r5, #20
    1e02:	fb05 8507 	mla	r5, r5, r7, r8
    1e06:	2101      	movs	r1, #1
    1e08:	4620      	mov	r0, r4
    1e0a:	4790      	blx	r2
    1e0c:	686e      	ldr	r6, [r5, #4]
    1e0e:	6026      	str	r6, [r4, #0]
    1e10:	2103      	movs	r1, #3
    1e12:	4620      	mov	r0, r4
    1e14:	4790      	blx	r2
    1e16:	7aab      	ldrb	r3, [r5, #10]
    1e18:	73e3      	strb	r3, [r4, #15]
    1e1a:	f006 060c 	and.w	r6, r6, #12
    1e1e:	892b      	ldrh	r3, [r5, #8]
    1e20:	80e3      	strh	r3, [r4, #6]
    1e22:	2e08      	cmp	r6, #8
    1e24:	f04f 0303 	mov.w	r3, #3
    1e28:	7323      	strb	r3, [r4, #12]
    1e2a:	d129      	bne.n	1e80 <_pwm_init+0xc4>
    1e2c:	68eb      	ldr	r3, [r5, #12]
    1e2e:	61e3      	str	r3, [r4, #28]
    1e30:	21c0      	movs	r1, #192	; 0xc0
    1e32:	4620      	mov	r0, r4
    1e34:	4790      	blx	r2
    1e36:	692b      	ldr	r3, [r5, #16]
    1e38:	6223      	str	r3, [r4, #32]
    1e3a:	21c0      	movs	r1, #192	; 0xc0
    1e3c:	4620      	mov	r0, r4
    1e3e:	4790      	blx	r2
    1e40:	4b1c      	ldr	r3, [pc, #112]	; (1eb4 <_pwm_init+0xf8>)
    1e42:	429c      	cmp	r4, r3
    1e44:	d125      	bne.n	1e92 <_pwm_init+0xd6>
    1e46:	4b1c      	ldr	r3, [pc, #112]	; (1eb8 <_pwm_init+0xfc>)
    1e48:	f8c3 9000 	str.w	r9, [r3]
    1e4c:	2314      	movs	r3, #20
    1e4e:	fb03 8707 	mla	r7, r3, r7, r8
    1e52:	4b1a      	ldr	r3, [pc, #104]	; (1ebc <_pwm_init+0x100>)
    1e54:	f9b7 1002 	ldrsh.w	r1, [r7, #2]
    1e58:	4608      	mov	r0, r1
    1e5a:	4798      	blx	r3
    1e5c:	2900      	cmp	r1, #0
    1e5e:	db0c      	blt.n	1e7a <_pwm_init+0xbe>
    1e60:	f001 021f 	and.w	r2, r1, #31
    1e64:	0949      	lsrs	r1, r1, #5
    1e66:	0089      	lsls	r1, r1, #2
    1e68:	f101 4160 	add.w	r1, r1, #3758096384	; 0xe0000000
    1e6c:	f501 4161 	add.w	r1, r1, #57600	; 0xe100
    1e70:	2301      	movs	r3, #1
    1e72:	4093      	lsls	r3, r2
    1e74:	f8c1 3180 	str.w	r3, [r1, #384]	; 0x180
    1e78:	600b      	str	r3, [r1, #0]
    1e7a:	2000      	movs	r0, #0
    1e7c:	e8bd 83f8 	ldmia.w	sp!, {r3, r4, r5, r6, r7, r8, r9, pc}
    1e80:	b976      	cbnz	r6, 1ea0 <_pwm_init+0xe4>
    1e82:	89ab      	ldrh	r3, [r5, #12]
    1e84:	83a3      	strh	r3, [r4, #28]
    1e86:	21c0      	movs	r1, #192	; 0xc0
    1e88:	4620      	mov	r0, r4
    1e8a:	4790      	blx	r2
    1e8c:	8a2b      	ldrh	r3, [r5, #16]
    1e8e:	83e3      	strh	r3, [r4, #30]
    1e90:	e7d3      	b.n	1e3a <_pwm_init+0x7e>
    1e92:	4b0b      	ldr	r3, [pc, #44]	; (1ec0 <_pwm_init+0x104>)
    1e94:	429c      	cmp	r4, r3
    1e96:	bf04      	itt	eq
    1e98:	4b07      	ldreq	r3, [pc, #28]	; (1eb8 <_pwm_init+0xfc>)
    1e9a:	f8c3 9004 	streq.w	r9, [r3, #4]
    1e9e:	e7d5      	b.n	1e4c <_pwm_init+0x90>
    1ea0:	f04f 30ff 	mov.w	r0, #4294967295
    1ea4:	e8bd 83f8 	ldmia.w	sp!, {r3, r4, r5, r6, r7, r8, r9, pc}
    1ea8:	00001c41 	.word	0x00001c41
    1eac:	00001c25 	.word	0x00001c25
    1eb0:	00001c2d 	.word	0x00001c2d
    1eb4:	40003800 	.word	0x40003800
    1eb8:	20000208 	.word	0x20000208
    1ebc:	00001bfd 	.word	0x00001bfd
    1ec0:	40003c00 	.word	0x40003c00
    1ec4:	20000000 	.word	0x20000000

00001ec8 <_timer_start>:
    1ec8:	68c0      	ldr	r0, [r0, #12]
    1eca:	6803      	ldr	r3, [r0, #0]
    1ecc:	f043 0302 	orr.w	r3, r3, #2
    1ed0:	6003      	str	r3, [r0, #0]
    1ed2:	2103      	movs	r1, #3
    1ed4:	4b00      	ldr	r3, [pc, #0]	; (1ed8 <_timer_start+0x10>)
    1ed6:	4718      	bx	r3
    1ed8:	00001c25 	.word	0x00001c25

00001edc <_pwm_enable>:
    1edc:	6900      	ldr	r0, [r0, #16]
    1ede:	6803      	ldr	r3, [r0, #0]
    1ee0:	f043 0302 	orr.w	r3, r3, #2
    1ee4:	6003      	str	r3, [r0, #0]
    1ee6:	2103      	movs	r1, #3
    1ee8:	4b00      	ldr	r3, [pc, #0]	; (1eec <_pwm_enable+0x10>)
    1eea:	4718      	bx	r3
    1eec:	00001c25 	.word	0x00001c25

00001ef0 <_pwm_set_param>:
    1ef0:	b570      	push	{r4, r5, r6, lr}
    1ef2:	6904      	ldr	r4, [r0, #16]
    1ef4:	4b11      	ldr	r3, [pc, #68]	; (1f3c <_pwm_set_param+0x4c>)
    1ef6:	4620      	mov	r0, r4
    1ef8:	4615      	mov	r5, r2
    1efa:	460e      	mov	r6, r1
    1efc:	4798      	blx	r3
    1efe:	4a10      	ldr	r2, [pc, #64]	; (1f40 <_pwm_set_param+0x50>)
    1f00:	2314      	movs	r3, #20
    1f02:	fb03 2000 	mla	r0, r3, r0, r2
    1f06:	4a0f      	ldr	r2, [pc, #60]	; (1f44 <_pwm_set_param+0x54>)
    1f08:	6843      	ldr	r3, [r0, #4]
    1f0a:	60c6      	str	r6, [r0, #12]
    1f0c:	f003 030c 	and.w	r3, r3, #12
    1f10:	2b08      	cmp	r3, #8
    1f12:	6105      	str	r5, [r0, #16]
    1f14:	d109      	bne.n	1f2a <_pwm_set_param+0x3a>
    1f16:	61e6      	str	r6, [r4, #28]
    1f18:	21c0      	movs	r1, #192	; 0xc0
    1f1a:	4620      	mov	r0, r4
    1f1c:	4790      	blx	r2
    1f1e:	6225      	str	r5, [r4, #32]
    1f20:	4620      	mov	r0, r4
    1f22:	21c0      	movs	r1, #192	; 0xc0
    1f24:	e8bd 4070 	ldmia.w	sp!, {r4, r5, r6, lr}
    1f28:	4710      	bx	r2
    1f2a:	b2b6      	uxth	r6, r6
    1f2c:	83a6      	strh	r6, [r4, #28]
    1f2e:	21c0      	movs	r1, #192	; 0xc0
    1f30:	4620      	mov	r0, r4
    1f32:	b2ad      	uxth	r5, r5
    1f34:	4790      	blx	r2
    1f36:	83e5      	strh	r5, [r4, #30]
    1f38:	e7f2      	b.n	1f20 <_pwm_set_param+0x30>
    1f3a:	bf00      	nop
    1f3c:	00001c41 	.word	0x00001c41
    1f40:	20000000 	.word	0x20000000
    1f44:	00001c25 	.word	0x00001c25

00001f48 <_timer_is_started>:
    1f48:	68c2      	ldr	r2, [r0, #12]
    1f4a:	b508      	push	{r3, lr}
    1f4c:	4610      	mov	r0, r2
    1f4e:	2103      	movs	r1, #3
    1f50:	4b02      	ldr	r3, [pc, #8]	; (1f5c <_timer_is_started+0x14>)
    1f52:	4798      	blx	r3
    1f54:	6810      	ldr	r0, [r2, #0]
    1f56:	f3c0 0040 	ubfx	r0, r0, #1, #1
    1f5a:	bd08      	pop	{r3, pc}
    1f5c:	00001c25 	.word	0x00001c25

00001f60 <_pwm_is_enabled>:
    1f60:	6902      	ldr	r2, [r0, #16]
    1f62:	b508      	push	{r3, lr}
    1f64:	4610      	mov	r0, r2
    1f66:	2103      	movs	r1, #3
    1f68:	4b02      	ldr	r3, [pc, #8]	; (1f74 <_pwm_is_enabled+0x14>)
    1f6a:	4798      	blx	r3
    1f6c:	6810      	ldr	r0, [r2, #0]
    1f6e:	f3c0 0040 	ubfx	r0, r0, #1, #1
    1f72:	bd08      	pop	{r3, pc}
    1f74:	00001c25 	.word	0x00001c25

00001f78 <_tc_get_timer>:
    1f78:	2000      	movs	r0, #0
    1f7a:	4770      	bx	lr

00001f7c <_tc_get_pwm>:
    1f7c:	2000      	movs	r0, #0
    1f7e:	4770      	bx	lr

00001f80 <_timer_set_irq>:
    1f80:	b510      	push	{r4, lr}
    1f82:	4b06      	ldr	r3, [pc, #24]	; (1f9c <_timer_set_irq+0x1c>)
    1f84:	68c0      	ldr	r0, [r0, #12]
    1f86:	4798      	blx	r3
    1f88:	4a05      	ldr	r2, [pc, #20]	; (1fa0 <_timer_set_irq+0x20>)
    1f8a:	2314      	movs	r3, #20
    1f8c:	fb03 2000 	mla	r0, r3, r0, r2
    1f90:	e8bd 4010 	ldmia.w	sp!, {r4, lr}
    1f94:	7880      	ldrb	r0, [r0, #2]
    1f96:	4b03      	ldr	r3, [pc, #12]	; (1fa4 <_timer_set_irq+0x24>)
    1f98:	4718      	bx	r3
    1f9a:	bf00      	nop
    1f9c:	00001c41 	.word	0x00001c41
    1fa0:	20000000 	.word	0x20000000
    1fa4:	00001001 	.word	0x00001001

00001fa8 <TC0_Handler>:
    1fa8:	4b0c      	ldr	r3, [pc, #48]	; (1fdc <TC0_Handler+0x34>)
    1faa:	b570      	push	{r4, r5, r6, lr}
    1fac:	681c      	ldr	r4, [r3, #0]
    1fae:	6925      	ldr	r5, [r4, #16]
    1fb0:	7aab      	ldrb	r3, [r5, #10]
    1fb2:	07da      	lsls	r2, r3, #31
    1fb4:	d505      	bpl.n	1fc2 <TC0_Handler+0x1a>
    1fb6:	2301      	movs	r3, #1
    1fb8:	72ab      	strb	r3, [r5, #10]
    1fba:	6823      	ldr	r3, [r4, #0]
    1fbc:	b10b      	cbz	r3, 1fc2 <TC0_Handler+0x1a>
    1fbe:	4620      	mov	r0, r4
    1fc0:	4798      	blx	r3
    1fc2:	7a6b      	ldrb	r3, [r5, #9]
    1fc4:	079b      	lsls	r3, r3, #30
    1fc6:	d507      	bpl.n	1fd8 <TC0_Handler+0x30>
    1fc8:	2302      	movs	r3, #2
    1fca:	72ab      	strb	r3, [r5, #10]
    1fcc:	6863      	ldr	r3, [r4, #4]
    1fce:	b11b      	cbz	r3, 1fd8 <TC0_Handler+0x30>
    1fd0:	4620      	mov	r0, r4
    1fd2:	e8bd 4070 	ldmia.w	sp!, {r4, r5, r6, lr}
    1fd6:	4718      	bx	r3
    1fd8:	bd70      	pop	{r4, r5, r6, pc}
    1fda:	bf00      	nop
    1fdc:	20000208 	.word	0x20000208

00001fe0 <TC1_Handler>:
    1fe0:	4b05      	ldr	r3, [pc, #20]	; (1ff8 <TC1_Handler+0x18>)
    1fe2:	6858      	ldr	r0, [r3, #4]
    1fe4:	68c3      	ldr	r3, [r0, #12]
    1fe6:	7a9a      	ldrb	r2, [r3, #10]
    1fe8:	07d2      	lsls	r2, r2, #31
    1fea:	d503      	bpl.n	1ff4 <TC1_Handler+0x14>
    1fec:	2201      	movs	r2, #1
    1fee:	729a      	strb	r2, [r3, #10]
    1ff0:	6803      	ldr	r3, [r0, #0]
    1ff2:	4718      	bx	r3
    1ff4:	4770      	bx	lr
    1ff6:	bf00      	nop
    1ff8:	20000208 	.word	0x20000208

00001ffc <SDA_low>:
    1ffc:	4b06      	ldr	r3, [pc, #24]	; (2018 <SDA_low+0x1c>)
    1ffe:	2201      	movs	r2, #1
    2000:	f8c3 2088 	str.w	r2, [r3, #136]	; 0x88
    2004:	f102 4280 	add.w	r2, r2, #1073741824	; 0x40000000
    2008:	f8c3 20a8 	str.w	r2, [r3, #168]	; 0xa8
    200c:	f04f 4240 	mov.w	r2, #3221225472	; 0xc0000000
    2010:	f8c3 20a8 	str.w	r2, [r3, #168]	; 0xa8
    2014:	4770      	bx	lr
    2016:	bf00      	nop
    2018:	41008000 	.word	0x41008000

0000201c <SDA_high>:
    201c:	4b06      	ldr	r3, [pc, #24]	; (2038 <SDA_high+0x1c>)
    201e:	2201      	movs	r2, #1
    2020:	f8c3 2084 	str.w	r2, [r3, #132]	; 0x84
    2024:	f102 4280 	add.w	r2, r2, #1073741824	; 0x40000000
    2028:	f502 3200 	add.w	r2, r2, #131072	; 0x20000
    202c:	f8c3 20a8 	str.w	r2, [r3, #168]	; 0xa8
    2030:	4a02      	ldr	r2, [pc, #8]	; (203c <SDA_high+0x20>)
    2032:	f8c3 20a8 	str.w	r2, [r3, #168]	; 0xa8
    2036:	4770      	bx	lr
    2038:	41008000 	.word	0x41008000
    203c:	c0020000 	.word	0xc0020000

00002040 <SDA_read>:
    2040:	b513      	push	{r0, r1, r4, lr}
    2042:	4b0a      	ldr	r3, [pc, #40]	; (206c <SDA_read+0x2c>)
    2044:	a801      	add	r0, sp, #4
    2046:	4798      	blx	r3
    2048:	4b09      	ldr	r3, [pc, #36]	; (2070 <SDA_read+0x30>)
    204a:	f8d3 1080 	ldr.w	r1, [r3, #128]	; 0x80
    204e:	f8d3 20a0 	ldr.w	r2, [r3, #160]	; 0xa0
    2052:	f8d3 4090 	ldr.w	r4, [r3, #144]	; 0x90
    2056:	4b07      	ldr	r3, [pc, #28]	; (2074 <SDA_read+0x34>)
    2058:	4054      	eors	r4, r2
    205a:	400c      	ands	r4, r1
    205c:	a801      	add	r0, sp, #4
    205e:	4054      	eors	r4, r2
    2060:	4798      	blx	r3
    2062:	f004 0001 	and.w	r0, r4, #1
    2066:	b002      	add	sp, #8
    2068:	bd10      	pop	{r4, pc}
    206a:	bf00      	nop
    206c:	00000a11 	.word	0x00000a11
    2070:	41008000 	.word	0x41008000
    2074:	00000a1f 	.word	0x00000a1f

00002078 <SCL_low>:
    2078:	4b06      	ldr	r3, [pc, #24]	; (2094 <SCL_low+0x1c>)
    207a:	2204      	movs	r2, #4
    207c:	f8c3 2088 	str.w	r2, [r3, #136]	; 0x88
    2080:	f102 4280 	add.w	r2, r2, #1073741824	; 0x40000000
    2084:	f8c3 20a8 	str.w	r2, [r3, #168]	; 0xa8
    2088:	f04f 4240 	mov.w	r2, #3221225472	; 0xc0000000
    208c:	f8c3 20a8 	str.w	r2, [r3, #168]	; 0xa8
    2090:	4770      	bx	lr
    2092:	bf00      	nop
    2094:	41008000 	.word	0x41008000

00002098 <SCL_high>:
    2098:	4b06      	ldr	r3, [pc, #24]	; (20b4 <SCL_high+0x1c>)
    209a:	2204      	movs	r2, #4
    209c:	f8c3 2084 	str.w	r2, [r3, #132]	; 0x84
    20a0:	f102 4280 	add.w	r2, r2, #1073741824	; 0x40000000
    20a4:	f502 3200 	add.w	r2, r2, #131072	; 0x20000
    20a8:	f8c3 20a8 	str.w	r2, [r3, #168]	; 0xa8
    20ac:	4a02      	ldr	r2, [pc, #8]	; (20b8 <SCL_high+0x20>)
    20ae:	f8c3 20a8 	str.w	r2, [r3, #168]	; 0xa8
    20b2:	4770      	bx	lr
    20b4:	41008000 	.word	0x41008000
    20b8:	c0020000 	.word	0xc0020000

000020bc <I2C_BB_sleep>:
    20bc:	2064      	movs	r0, #100	; 0x64
    20be:	4b01      	ldr	r3, [pc, #4]	; (20c4 <I2C_BB_sleep+0x8>)
    20c0:	4718      	bx	r3
    20c2:	bf00      	nop
    20c4:	00000a5d 	.word	0x00000a5d

000020c8 <I2C_BB_end>:
    20c8:	b510      	push	{r4, lr}
    20ca:	4b06      	ldr	r3, [pc, #24]	; (20e4 <I2C_BB_end+0x1c>)
    20cc:	4c06      	ldr	r4, [pc, #24]	; (20e8 <I2C_BB_end+0x20>)
    20ce:	4798      	blx	r3
    20d0:	47a0      	blx	r4
    20d2:	4b06      	ldr	r3, [pc, #24]	; (20ec <I2C_BB_end+0x24>)
    20d4:	4798      	blx	r3
    20d6:	47a0      	blx	r4
    20d8:	4b05      	ldr	r3, [pc, #20]	; (20f0 <I2C_BB_end+0x28>)
    20da:	4798      	blx	r3
    20dc:	4623      	mov	r3, r4
    20de:	e8bd 4010 	ldmia.w	sp!, {r4, lr}
    20e2:	4718      	bx	r3
    20e4:	00001ffd 	.word	0x00001ffd
    20e8:	000020bd 	.word	0x000020bd
    20ec:	00002099 	.word	0x00002099
    20f0:	0000201d 	.word	0x0000201d

000020f4 <I2C_BB_byte_out>:
    20f4:	e92d 47f0 	stmdb	sp!, {r4, r5, r6, r7, r8, r9, sl, lr}
    20f8:	f8df 9060 	ldr.w	r9, [pc, #96]	; 215c <I2C_BB_byte_out+0x68>
    20fc:	f8df a054 	ldr.w	sl, [pc, #84]	; 2154 <I2C_BB_byte_out+0x60>
    2100:	f8df 805c 	ldr.w	r8, [pc, #92]	; 2160 <I2C_BB_byte_out+0x6c>
    2104:	4605      	mov	r5, r0
    2106:	2408      	movs	r4, #8
    2108:	062b      	lsls	r3, r5, #24
    210a:	d51c      	bpl.n	2146 <I2C_BB_byte_out+0x52>
    210c:	47d0      	blx	sl
    210e:	4e0f      	ldr	r6, [pc, #60]	; (214c <I2C_BB_byte_out+0x58>)
    2110:	4f0f      	ldr	r7, [pc, #60]	; (2150 <I2C_BB_byte_out+0x5c>)
    2112:	3c01      	subs	r4, #1
    2114:	47c0      	blx	r8
    2116:	006d      	lsls	r5, r5, #1
    2118:	47b0      	blx	r6
    211a:	47b8      	blx	r7
    211c:	47b0      	blx	r6
    211e:	f014 04ff 	ands.w	r4, r4, #255	; 0xff
    2122:	b2ed      	uxtb	r5, r5
    2124:	d1f0      	bne.n	2108 <I2C_BB_byte_out+0x14>
    2126:	4b0b      	ldr	r3, [pc, #44]	; (2154 <I2C_BB_byte_out+0x60>)
    2128:	4798      	blx	r3
    212a:	47c0      	blx	r8
    212c:	47b0      	blx	r6
    212e:	4b0a      	ldr	r3, [pc, #40]	; (2158 <I2C_BB_byte_out+0x64>)
    2130:	4798      	blx	r3
    2132:	4604      	mov	r4, r0
    2134:	47b8      	blx	r7
    2136:	47b0      	blx	r6
    2138:	4b08      	ldr	r3, [pc, #32]	; (215c <I2C_BB_byte_out+0x68>)
    213a:	4798      	blx	r3
    213c:	fab4 f084 	clz	r0, r4
    2140:	0940      	lsrs	r0, r0, #5
    2142:	e8bd 87f0 	ldmia.w	sp!, {r4, r5, r6, r7, r8, r9, sl, pc}
    2146:	47c8      	blx	r9
    2148:	e7e1      	b.n	210e <I2C_BB_byte_out+0x1a>
    214a:	bf00      	nop
    214c:	000020bd 	.word	0x000020bd
    2150:	00002079 	.word	0x00002079
    2154:	0000201d 	.word	0x0000201d
    2158:	00002041 	.word	0x00002041
    215c:	00001ffd 	.word	0x00001ffd
    2160:	00002099 	.word	0x00002099

00002164 <I2C_BB_begin>:
    2164:	b570      	push	{r4, r5, r6, lr}
    2166:	4b08      	ldr	r3, [pc, #32]	; (2188 <I2C_BB_begin+0x24>)
    2168:	4604      	mov	r4, r0
    216a:	460d      	mov	r5, r1
    216c:	4798      	blx	r3
    216e:	4b07      	ldr	r3, [pc, #28]	; (218c <I2C_BB_begin+0x28>)
    2170:	4798      	blx	r3
    2172:	4b07      	ldr	r3, [pc, #28]	; (2190 <I2C_BB_begin+0x2c>)
    2174:	4798      	blx	r3
    2176:	0060      	lsls	r0, r4, #1
    2178:	b2c0      	uxtb	r0, r0
    217a:	b10d      	cbz	r5, 2180 <I2C_BB_begin+0x1c>
    217c:	3001      	adds	r0, #1
    217e:	b2c0      	uxtb	r0, r0
    2180:	4b04      	ldr	r3, [pc, #16]	; (2194 <I2C_BB_begin+0x30>)
    2182:	e8bd 4070 	ldmia.w	sp!, {r4, r5, r6, lr}
    2186:	4718      	bx	r3
    2188:	00001ffd 	.word	0x00001ffd
    218c:	000020bd 	.word	0x000020bd
    2190:	00002079 	.word	0x00002079
    2194:	000020f5 	.word	0x000020f5

00002198 <I2C_BB_init>:
    2198:	4b14      	ldr	r3, [pc, #80]	; (21ec <I2C_BB_init+0x54>)
    219a:	4915      	ldr	r1, [pc, #84]	; (21f0 <I2C_BB_init+0x58>)
    219c:	2201      	movs	r2, #1
    219e:	f8c3 2094 	str.w	r2, [r3, #148]	; 0x94
    21a2:	f8c3 2084 	str.w	r2, [r3, #132]	; 0x84
    21a6:	f102 4280 	add.w	r2, r2, #1073741824	; 0x40000000
    21aa:	f502 3200 	add.w	r2, r2, #131072	; 0x20000
    21ae:	f8c3 20a8 	str.w	r2, [r3, #168]	; 0xa8
    21b2:	f8c3 10a8 	str.w	r1, [r3, #168]	; 0xa8
    21b6:	f893 20c0 	ldrb.w	r2, [r3, #192]	; 0xc0
    21ba:	f002 02fe 	and.w	r2, r2, #254	; 0xfe
    21be:	f883 20c0 	strb.w	r2, [r3, #192]	; 0xc0
    21c2:	2204      	movs	r2, #4
    21c4:	f8c3 2094 	str.w	r2, [r3, #148]	; 0x94
    21c8:	f8c3 2084 	str.w	r2, [r3, #132]	; 0x84
    21cc:	f102 4280 	add.w	r2, r2, #1073741824	; 0x40000000
    21d0:	f502 3200 	add.w	r2, r2, #131072	; 0x20000
    21d4:	f8c3 20a8 	str.w	r2, [r3, #168]	; 0xa8
    21d8:	f8c3 10a8 	str.w	r1, [r3, #168]	; 0xa8
    21dc:	f893 20c2 	ldrb.w	r2, [r3, #194]	; 0xc2
    21e0:	f002 02fe 	and.w	r2, r2, #254	; 0xfe
    21e4:	f883 20c2 	strb.w	r2, [r3, #194]	; 0xc2
    21e8:	4770      	bx	lr
    21ea:	bf00      	nop
    21ec:	41008000 	.word	0x41008000
    21f0:	c0020000 	.word	0xc0020000

000021f4 <I2C_BB_write>:
    21f4:	b510      	push	{r4, lr}
    21f6:	4b06      	ldr	r3, [pc, #24]	; (2210 <I2C_BB_write+0x1c>)
    21f8:	460c      	mov	r4, r1
    21fa:	2100      	movs	r1, #0
    21fc:	4798      	blx	r3
    21fe:	b110      	cbz	r0, 2206 <I2C_BB_write+0x12>
    2200:	4620      	mov	r0, r4
    2202:	4b04      	ldr	r3, [pc, #16]	; (2214 <I2C_BB_write+0x20>)
    2204:	4798      	blx	r3
    2206:	4b04      	ldr	r3, [pc, #16]	; (2218 <I2C_BB_write+0x24>)
    2208:	4798      	blx	r3
    220a:	2000      	movs	r0, #0
    220c:	bd10      	pop	{r4, pc}
    220e:	bf00      	nop
    2210:	00002165 	.word	0x00002165
    2214:	000020f5 	.word	0x000020f5
    2218:	000020c9 	.word	0x000020c9

0000221c <millisecondTimer_cb>:
    221c:	4a02      	ldr	r2, [pc, #8]	; (2228 <millisecondTimer_cb+0xc>)
    221e:	6813      	ldr	r3, [r2, #0]
    2220:	3301      	adds	r3, #1
    2222:	6013      	str	r3, [r2, #0]
    2224:	4770      	bx	lr
    2226:	bf00      	nop
    2228:	20000210 	.word	0x20000210

0000222c <gpio_get_pin_level>:
    222c:	b537      	push	{r0, r1, r2, r4, r5, lr}
    222e:	4b0e      	ldr	r3, [pc, #56]	; (2268 <gpio_get_pin_level+0x3c>)
    2230:	4605      	mov	r5, r0
    2232:	a801      	add	r0, sp, #4
    2234:	4798      	blx	r3
    2236:	096b      	lsrs	r3, r5, #5
    2238:	490c      	ldr	r1, [pc, #48]	; (226c <gpio_get_pin_level+0x40>)
    223a:	01db      	lsls	r3, r3, #7
    223c:	18ca      	adds	r2, r1, r3
    223e:	58c9      	ldr	r1, [r1, r3]
    2240:	6a13      	ldr	r3, [r2, #32]
    2242:	6914      	ldr	r4, [r2, #16]
    2244:	405c      	eors	r4, r3
    2246:	400c      	ands	r4, r1
    2248:	a801      	add	r0, sp, #4
    224a:	405c      	eors	r4, r3
    224c:	4b08      	ldr	r3, [pc, #32]	; (2270 <gpio_get_pin_level+0x44>)
    224e:	4798      	blx	r3
    2250:	f005 051f 	and.w	r5, r5, #31
    2254:	2301      	movs	r3, #1
    2256:	fa03 f505 	lsl.w	r5, r3, r5
    225a:	4225      	tst	r5, r4
    225c:	bf14      	ite	ne
    225e:	4618      	movne	r0, r3
    2260:	2000      	moveq	r0, #0
    2262:	b003      	add	sp, #12
    2264:	bd30      	pop	{r4, r5, pc}
    2266:	bf00      	nop
    2268:	00000a11 	.word	0x00000a11
    226c:	41008000 	.word	0x41008000
    2270:	00000a1f 	.word	0x00000a1f

00002274 <pushButton_cb>:
    2274:	2019      	movs	r0, #25
    2276:	4b01      	ldr	r3, [pc, #4]	; (227c <pushButton_cb+0x8>)
    2278:	4718      	bx	r3
    227a:	bf00      	nop
    227c:	0000222d 	.word	0x0000222d

00002280 <checkBattVoltage_cb>:
    2280:	b513      	push	{r0, r1, r4, lr}
    2282:	2301      	movs	r3, #1
    2284:	f10d 0207 	add.w	r2, sp, #7
    2288:	2100      	movs	r1, #0
    228a:	4c04      	ldr	r4, [pc, #16]	; (229c <checkBattVoltage_cb+0x1c>)
    228c:	4804      	ldr	r0, [pc, #16]	; (22a0 <checkBattVoltage_cb+0x20>)
    228e:	47a0      	blx	r4
    2290:	f89d 2007 	ldrb.w	r2, [sp, #7]
    2294:	4b03      	ldr	r3, [pc, #12]	; (22a4 <checkBattVoltage_cb+0x24>)
    2296:	701a      	strb	r2, [r3, #0]
    2298:	b002      	add	sp, #8
    229a:	bd10      	pop	{r4, pc}
    229c:	000009a5 	.word	0x000009a5
    22a0:	200006c8 	.word	0x200006c8
    22a4:	20000b38 	.word	0x20000b38

000022a8 <battCharging_cb>:
    22a8:	b5f8      	push	{r3, r4, r5, r6, r7, lr}
    22aa:	2037      	movs	r0, #55	; 0x37
    22ac:	4b10      	ldr	r3, [pc, #64]	; (22f0 <battCharging_cb+0x48>)
    22ae:	4c11      	ldr	r4, [pc, #68]	; (22f4 <battCharging_cb+0x4c>)
    22b0:	4798      	blx	r3
    22b2:	b9c0      	cbnz	r0, 22e6 <battCharging_cb+0x3e>
    22b4:	4e10      	ldr	r6, [pc, #64]	; (22f8 <battCharging_cb+0x50>)
    22b6:	4d11      	ldr	r5, [pc, #68]	; (22fc <battCharging_cb+0x54>)
    22b8:	f44f 7700 	mov.w	r7, #512	; 0x200
    22bc:	6823      	ldr	r3, [r4, #0]
    22be:	f043 0320 	orr.w	r3, r3, #32
    22c2:	6023      	str	r3, [r4, #0]
    22c4:	20fa      	movs	r0, #250	; 0xfa
    22c6:	f8c6 709c 	str.w	r7, [r6, #156]	; 0x9c
    22ca:	47a8      	blx	r5
    22cc:	e7f6      	b.n	22bc <battCharging_cb+0x14>
    22ce:	f8c5 609c 	str.w	r6, [r5, #156]	; 0x9c
    22d2:	f241 3088 	movw	r0, #5000	; 0x1388
    22d6:	47b8      	blx	r7
    22d8:	6823      	ldr	r3, [r4, #0]
    22da:	f023 0320 	bic.w	r3, r3, #32
    22de:	6023      	str	r3, [r4, #0]
    22e0:	2b00      	cmp	r3, #0
    22e2:	d1f4      	bne.n	22ce <battCharging_cb+0x26>
    22e4:	bdf8      	pop	{r3, r4, r5, r6, r7, pc}
    22e6:	4d04      	ldr	r5, [pc, #16]	; (22f8 <battCharging_cb+0x50>)
    22e8:	4f04      	ldr	r7, [pc, #16]	; (22fc <battCharging_cb+0x54>)
    22ea:	f44f 7600 	mov.w	r6, #512	; 0x200
    22ee:	e7f3      	b.n	22d8 <battCharging_cb+0x30>
    22f0:	0000222d 	.word	0x0000222d
    22f4:	20000028 	.word	0x20000028
    22f8:	41008000 	.word	0x41008000
    22fc:	00000a81 	.word	0x00000a81

00002300 <irReceive_cb>:
    2300:	e92d 41f0 	stmdb	sp!, {r4, r5, r6, r7, r8, lr}
    2304:	2036      	movs	r0, #54	; 0x36
    2306:	4d10      	ldr	r5, [pc, #64]	; (2348 <irReceive_cb+0x48>)
    2308:	47a8      	blx	r5
    230a:	b1a0      	cbz	r0, 2336 <irReceive_cb+0x36>
    230c:	200d      	movs	r0, #13
    230e:	4c0f      	ldr	r4, [pc, #60]	; (234c <irReceive_cb+0x4c>)
    2310:	47a0      	blx	r4
    2312:	2036      	movs	r0, #54	; 0x36
    2314:	47a8      	blx	r5
    2316:	4625      	mov	r5, r4
    2318:	b968      	cbnz	r0, 2336 <irReceive_cb+0x36>
    231a:	4e0d      	ldr	r6, [pc, #52]	; (2350 <irReceive_cb+0x50>)
    231c:	4f0d      	ldr	r7, [pc, #52]	; (2354 <irReceive_cb+0x54>)
    231e:	4604      	mov	r4, r0
    2320:	f44f 7800 	mov.w	r8, #512	; 0x200
    2324:	6832      	ldr	r2, [r6, #0]
    2326:	b2e3      	uxtb	r3, r4
    2328:	429a      	cmp	r2, r3
    232a:	f104 0401 	add.w	r4, r4, #1
    232e:	d804      	bhi.n	233a <irReceive_cb+0x3a>
    2330:	4b09      	ldr	r3, [pc, #36]	; (2358 <irReceive_cb+0x58>)
    2332:	2204      	movs	r2, #4
    2334:	601a      	str	r2, [r3, #0]
    2336:	e8bd 81f0 	ldmia.w	sp!, {r4, r5, r6, r7, r8, pc}
    233a:	f8c7 809c 	str.w	r8, [r7, #156]	; 0x9c
    233e:	f44f 707a 	mov.w	r0, #1000	; 0x3e8
    2342:	47a8      	blx	r5
    2344:	e7ee      	b.n	2324 <irReceive_cb+0x24>
    2346:	bf00      	nop
    2348:	0000222d 	.word	0x0000222d
    234c:	00000a81 	.word	0x00000a81
    2350:	20029258 	.word	0x20029258
    2354:	41008000 	.word	0x41008000
    2358:	20000028 	.word	0x20000028

0000235c <spi_BB_Write>:
    235c:	e92d 47f0 	stmdb	sp!, {r4, r5, r6, r7, r8, r9, sl, lr}
    2360:	4d27      	ldr	r5, [pc, #156]	; (2400 <spi_BB_Write+0xa4>)
    2362:	4c28      	ldr	r4, [pc, #160]	; (2404 <spi_BB_Write+0xa8>)
    2364:	f44f 3680 	mov.w	r6, #65536	; 0x10000
    2368:	f8c5 6098 	str.w	r6, [r5, #152]	; 0x98
    236c:	4681      	mov	r9, r0
    236e:	200a      	movs	r0, #10
    2370:	4688      	mov	r8, r1
    2372:	47a0      	blx	r4
    2374:	f8c5 6094 	str.w	r6, [r5, #148]	; 0x94
    2378:	200a      	movs	r0, #10
    237a:	47a0      	blx	r4
    237c:	2620      	movs	r6, #32
    237e:	2708      	movs	r7, #8
    2380:	46b2      	mov	sl, r6
    2382:	fa49 f307 	asr.w	r3, r9, r7
    2386:	f013 0f01 	tst.w	r3, #1
    238a:	f04f 0310 	mov.w	r3, #16
    238e:	f8c5 a014 	str.w	sl, [r5, #20]
    2392:	f04f 000a 	mov.w	r0, #10
    2396:	bf14      	ite	ne
    2398:	61ab      	strne	r3, [r5, #24]
    239a:	616b      	streq	r3, [r5, #20]
    239c:	47a0      	blx	r4
    239e:	61ae      	str	r6, [r5, #24]
    23a0:	200a      	movs	r0, #10
    23a2:	47a0      	blx	r4
    23a4:	f117 37ff 	adds.w	r7, r7, #4294967295
    23a8:	d2eb      	bcs.n	2382 <spi_BB_Write+0x26>
    23aa:	2310      	movs	r3, #16
    23ac:	616e      	str	r6, [r5, #20]
    23ae:	200a      	movs	r0, #10
    23b0:	61ab      	str	r3, [r5, #24]
    23b2:	47a0      	blx	r4
    23b4:	61ae      	str	r6, [r5, #24]
    23b6:	200a      	movs	r0, #10
    23b8:	47a0      	blx	r4
    23ba:	2720      	movs	r7, #32
    23bc:	4d10      	ldr	r5, [pc, #64]	; (2400 <spi_BB_Write+0xa4>)
    23be:	260f      	movs	r6, #15
    23c0:	46b9      	mov	r9, r7
    23c2:	fa48 f306 	asr.w	r3, r8, r6
    23c6:	f013 0f01 	tst.w	r3, #1
    23ca:	f04f 0310 	mov.w	r3, #16
    23ce:	f8c5 9014 	str.w	r9, [r5, #20]
    23d2:	f04f 000a 	mov.w	r0, #10
    23d6:	bf14      	ite	ne
    23d8:	61ab      	strne	r3, [r5, #24]
    23da:	616b      	streq	r3, [r5, #20]
    23dc:	47a0      	blx	r4
    23de:	61af      	str	r7, [r5, #24]
    23e0:	200a      	movs	r0, #10
    23e2:	47a0      	blx	r4
    23e4:	f116 36ff 	adds.w	r6, r6, #4294967295
    23e8:	d2eb      	bcs.n	23c2 <spi_BB_Write+0x66>
    23ea:	200a      	movs	r0, #10
    23ec:	616f      	str	r7, [r5, #20]
    23ee:	47a0      	blx	r4
    23f0:	200a      	movs	r0, #10
    23f2:	47a0      	blx	r4
    23f4:	f44f 3380 	mov.w	r3, #65536	; 0x10000
    23f8:	f8c5 3098 	str.w	r3, [r5, #152]	; 0x98
    23fc:	e8bd 87f0 	ldmia.w	sp!, {r4, r5, r6, r7, r8, r9, sl, pc}
    2400:	41008000 	.word	0x41008000
    2404:	00000a5d 	.word	0x00000a5d

00002408 <python480SetGain>:
    2408:	2802      	cmp	r0, #2
    240a:	4b05      	ldr	r3, [pc, #20]	; (2420 <python480SetGain+0x18>)
    240c:	d004      	beq.n	2418 <python480SetGain+0x10>
    240e:	2804      	cmp	r0, #4
    2410:	d004      	beq.n	241c <python480SetGain+0x14>
    2412:	21e1      	movs	r1, #225	; 0xe1
    2414:	20cc      	movs	r0, #204	; 0xcc
    2416:	4718      	bx	r3
    2418:	21e4      	movs	r1, #228	; 0xe4
    241a:	e7fb      	b.n	2414 <python480SetGain+0xc>
    241c:	2124      	movs	r1, #36	; 0x24
    241e:	e7f9      	b.n	2414 <python480SetGain+0xc>
    2420:	0000235d 	.word	0x0000235d

00002424 <python480SetFPS>:
    2424:	280a      	cmp	r0, #10
    2426:	d00d      	beq.n	2444 <python480SetFPS+0x20>
    2428:	d802      	bhi.n	2430 <python480SetFPS+0xc>
    242a:	2805      	cmp	r0, #5
    242c:	d005      	beq.n	243a <python480SetFPS+0x16>
    242e:	4770      	bx	lr
    2430:	280f      	cmp	r0, #15
    2432:	d00a      	beq.n	244a <python480SetFPS+0x26>
    2434:	2814      	cmp	r0, #20
    2436:	d00b      	beq.n	2450 <python480SetFPS+0x2c>
    2438:	4770      	bx	lr
    243a:	f644 6120 	movw	r1, #20000	; 0x4e20
    243e:	20c9      	movs	r0, #201	; 0xc9
    2440:	4b05      	ldr	r3, [pc, #20]	; (2458 <python480SetFPS+0x34>)
    2442:	4718      	bx	r3
    2444:	f242 7110 	movw	r1, #10000	; 0x2710
    2448:	e7f9      	b.n	243e <python480SetFPS+0x1a>
    244a:	f641 210b 	movw	r1, #6667	; 0x1a0b
    244e:	e7f6      	b.n	243e <python480SetFPS+0x1a>
    2450:	f241 3188 	movw	r1, #5000	; 0x1388
    2454:	e7f3      	b.n	243e <python480SetFPS+0x1a>
    2456:	bf00      	nop
    2458:	0000235d 	.word	0x0000235d

0000245c <spi_BB_Read>:
    245c:	e92d 43f8 	stmdb	sp!, {r3, r4, r5, r6, r7, r8, r9, lr}
    2460:	4d27      	ldr	r5, [pc, #156]	; (2500 <spi_BB_Read+0xa4>)
    2462:	4c28      	ldr	r4, [pc, #160]	; (2504 <spi_BB_Read+0xa8>)
    2464:	f44f 3680 	mov.w	r6, #65536	; 0x10000
    2468:	f8c5 6098 	str.w	r6, [r5, #152]	; 0x98
    246c:	4680      	mov	r8, r0
    246e:	200a      	movs	r0, #10
    2470:	47a0      	blx	r4
    2472:	f8c5 6094 	str.w	r6, [r5, #148]	; 0x94
    2476:	200a      	movs	r0, #10
    2478:	47a0      	blx	r4
    247a:	2620      	movs	r6, #32
    247c:	2708      	movs	r7, #8
    247e:	46b1      	mov	r9, r6
    2480:	fa48 f307 	asr.w	r3, r8, r7
    2484:	f013 0f01 	tst.w	r3, #1
    2488:	f04f 0310 	mov.w	r3, #16
    248c:	f8c5 9014 	str.w	r9, [r5, #20]
    2490:	f04f 000a 	mov.w	r0, #10
    2494:	bf14      	ite	ne
    2496:	61ab      	strne	r3, [r5, #24]
    2498:	616b      	streq	r3, [r5, #20]
    249a:	47a0      	blx	r4
    249c:	61ae      	str	r6, [r5, #24]
    249e:	200a      	movs	r0, #10
    24a0:	47a0      	blx	r4
    24a2:	f117 37ff 	adds.w	r7, r7, #4294967295
    24a6:	d2eb      	bcs.n	2480 <spi_BB_Read+0x24>
    24a8:	2310      	movs	r3, #16
    24aa:	616e      	str	r6, [r5, #20]
    24ac:	200a      	movs	r0, #10
    24ae:	616b      	str	r3, [r5, #20]
    24b0:	47a0      	blx	r4
    24b2:	61ae      	str	r6, [r5, #24]
    24b4:	200a      	movs	r0, #10
    24b6:	47a0      	blx	r4
    24b8:	616e      	str	r6, [r5, #20]
    24ba:	200a      	movs	r0, #10
    24bc:	47a0      	blx	r4
    24be:	f04f 0820 	mov.w	r8, #32
    24c2:	4f0f      	ldr	r7, [pc, #60]	; (2500 <spi_BB_Read+0xa4>)
    24c4:	250f      	movs	r5, #15
    24c6:	2600      	movs	r6, #0
    24c8:	46c1      	mov	r9, r8
    24ca:	200a      	movs	r0, #10
    24cc:	f8c7 9018 	str.w	r9, [r7, #24]
    24d0:	47a0      	blx	r4
    24d2:	4b0d      	ldr	r3, [pc, #52]	; (2508 <spi_BB_Read+0xac>)
    24d4:	f8c7 8014 	str.w	r8, [r7, #20]
    24d8:	2006      	movs	r0, #6
    24da:	4798      	blx	r3
    24dc:	40a8      	lsls	r0, r5
    24de:	4306      	orrs	r6, r0
    24e0:	200a      	movs	r0, #10
    24e2:	47a0      	blx	r4
    24e4:	f115 35ff 	adds.w	r5, r5, #4294967295
    24e8:	b2b6      	uxth	r6, r6
    24ea:	d2ee      	bcs.n	24ca <spi_BB_Read+0x6e>
    24ec:	200a      	movs	r0, #10
    24ee:	47a0      	blx	r4
    24f0:	f44f 3380 	mov.w	r3, #65536	; 0x10000
    24f4:	f8c7 3098 	str.w	r3, [r7, #152]	; 0x98
    24f8:	4630      	mov	r0, r6
    24fa:	e8bd 83f8 	ldmia.w	sp!, {r3, r4, r5, r6, r7, r8, r9, pc}
    24fe:	bf00      	nop
    2500:	41008000 	.word	0x41008000
    2504:	00000a5d 	.word	0x00000a5d
    2508:	0000222d 	.word	0x0000222d

0000250c <EnableClockMngmnt1>:
    250c:	b510      	push	{r4, lr}
    250e:	2100      	movs	r1, #0
    2510:	4c0f      	ldr	r4, [pc, #60]	; (2550 <EnableClockMngmnt1+0x44>)
    2512:	2002      	movs	r0, #2
    2514:	47a0      	blx	r4
    2516:	f242 1113 	movw	r1, #8467	; 0x2113
    251a:	2011      	movs	r0, #17
    251c:	47a0      	blx	r4
    251e:	2100      	movs	r1, #0
    2520:	2014      	movs	r0, #20
    2522:	47a0      	blx	r4
    2524:	f44f 510a 	mov.w	r1, #8832	; 0x2280
    2528:	201a      	movs	r0, #26
    252a:	47a0      	blx	r4
    252c:	f643 512d 	movw	r1, #15661	; 0x3d2d
    2530:	201b      	movs	r0, #27
    2532:	47a0      	blx	r4
    2534:	f247 011c 	movw	r1, #28700	; 0x701c
    2538:	2020      	movs	r0, #32
    253a:	47a0      	blx	r4
    253c:	2100      	movs	r1, #0
    253e:	2008      	movs	r0, #8
    2540:	47a0      	blx	r4
    2542:	4623      	mov	r3, r4
    2544:	2107      	movs	r1, #7
    2546:	2010      	movs	r0, #16
    2548:	e8bd 4010 	ldmia.w	sp!, {r4, lr}
    254c:	4718      	bx	r3
    254e:	bf00      	nop
    2550:	0000235d 	.word	0x0000235d

00002554 <EnableClockMngmnt2>:
    2554:	b510      	push	{r4, lr}
    2556:	2100      	movs	r1, #0
    2558:	4c06      	ldr	r4, [pc, #24]	; (2574 <EnableClockMngmnt2+0x20>)
    255a:	2009      	movs	r0, #9
    255c:	47a0      	blx	r4
    255e:	f247 010e 	movw	r1, #28686	; 0x700e
    2562:	2020      	movs	r0, #32
    2564:	47a0      	blx	r4
    2566:	4623      	mov	r3, r4
    2568:	2101      	movs	r1, #1
    256a:	2022      	movs	r0, #34	; 0x22
    256c:	e8bd 4010 	ldmia.w	sp!, {r4, lr}
    2570:	4718      	bx	r3
    2572:	bf00      	nop
    2574:	0000235d 	.word	0x0000235d

00002578 <RequiredUploads>:
    2578:	b510      	push	{r4, lr}
    257a:	2100      	movs	r1, #0
    257c:	4ccd      	ldr	r4, [pc, #820]	; (28b4 <RequiredUploads+0x33c>)
    257e:	2002      	movs	r0, #2
    2580:	47a0      	blx	r4
    2582:	2100      	movs	r1, #0
    2584:	2008      	movs	r0, #8
    2586:	47a0      	blx	r4
    2588:	2100      	movs	r1, #0
    258a:	2009      	movs	r0, #9
    258c:	47a0      	blx	r4
    258e:	2100      	movs	r1, #0
    2590:	200a      	movs	r0, #10
    2592:	47a0      	blx	r4
    2594:	2100      	movs	r1, #0
    2596:	2014      	movs	r0, #20
    2598:	47a0      	blx	r4
    259a:	f44f 510a 	mov.w	r1, #8832	; 0x2280
    259e:	201a      	movs	r0, #26
    25a0:	47a0      	blx	r4
    25a2:	f643 512d 	movw	r1, #15661	; 0x3d2d
    25a6:	201b      	movs	r0, #27
    25a8:	47a0      	blx	r4
    25aa:	f247 010f 	movw	r1, #28687	; 0x700f
    25ae:	2020      	movs	r0, #32
    25b0:	47a0      	blx	r4
    25b2:	2101      	movs	r1, #1
    25b4:	2022      	movs	r0, #34	; 0x22
    25b6:	47a0      	blx	r4
    25b8:	2107      	movs	r1, #7
    25ba:	2028      	movs	r0, #40	; 0x28
    25bc:	47a0      	blx	r4
    25be:	f640 015f 	movw	r1, #2143	; 0x85f
    25c2:	2029      	movs	r0, #41	; 0x29
    25c4:	47a0      	blx	r4
    25c6:	f244 1103 	movw	r1, #16643	; 0x4103
    25ca:	202a      	movs	r0, #42	; 0x2a
    25cc:	47a0      	blx	r4
    25ce:	f44f 61a3 	mov.w	r1, #1304	; 0x518
    25d2:	202b      	movs	r0, #43	; 0x2b
    25d4:	47a0      	blx	r4
    25d6:	2101      	movs	r1, #1
    25d8:	2030      	movs	r0, #48	; 0x30
    25da:	47a0      	blx	r4
    25dc:	2101      	movs	r1, #1
    25de:	2040      	movs	r0, #64	; 0x40
    25e0:	47a0      	blx	r4
    25e2:	f643 012a 	movw	r1, #14378	; 0x382a
    25e6:	2041      	movs	r0, #65	; 0x41
    25e8:	47a0      	blx	r4
    25ea:	f245 31c8 	movw	r1, #21448	; 0x53c8
    25ee:	2042      	movs	r0, #66	; 0x42
    25f0:	47a0      	blx	r4
    25f2:	f240 6165 	movw	r1, #1637	; 0x665
    25f6:	2043      	movs	r0, #67	; 0x43
    25f8:	47a0      	blx	r4
    25fa:	2185      	movs	r1, #133	; 0x85
    25fc:	2044      	movs	r0, #68	; 0x44
    25fe:	47a0      	blx	r4
    2600:	f640 0188 	movw	r1, #2184	; 0x888
    2604:	2045      	movs	r0, #69	; 0x45
    2606:	47a0      	blx	r4
    2608:	f44f 4190 	mov.w	r1, #18432	; 0x4800
    260c:	2046      	movs	r0, #70	; 0x46
    260e:	47a0      	blx	r4
    2610:	f648 0188 	movw	r1, #34952	; 0x8888
    2614:	2047      	movs	r0, #71	; 0x47
    2616:	47a0      	blx	r4
    2618:	f240 1117 	movw	r1, #279	; 0x117
    261c:	2048      	movs	r0, #72	; 0x48
    261e:	47a0      	blx	r4
    2620:	2100      	movs	r1, #0
    2622:	2070      	movs	r0, #112	; 0x70
    2624:	47a0      	blx	r4
    2626:	f244 710a 	movw	r1, #18186	; 0x470a
    262a:	2080      	movs	r0, #128	; 0x80
    262c:	47a0      	blx	r4
    262e:	f248 0101 	movw	r1, #32769	; 0x8001
    2632:	2081      	movs	r0, #129	; 0x81
    2634:	47a0      	blx	r4
    2636:	2115      	movs	r1, #21
    2638:	2082      	movs	r0, #130	; 0x82
    263a:	47a0      	blx	r4
    263c:	f640 0101 	movw	r1, #2049	; 0x801
    2640:	20c0      	movs	r0, #192	; 0xc0
    2642:	47a0      	blx	r4
    2644:	21e4      	movs	r1, #228	; 0xe4
    2646:	20c2      	movs	r0, #194	; 0xc2
    2648:	47a0      	blx	r4
    264a:	f44f 7182 	mov.w	r1, #260	; 0x104
    264e:	20c5      	movs	r0, #197	; 0xc5
    2650:	47a0      	blx	r4
    2652:	2132      	movs	r1, #50	; 0x32
    2654:	20c7      	movs	r0, #199	; 0xc7
    2656:	47a0      	blx	r4
    2658:	f640 41e4 	movw	r1, #3300	; 0xce4
    265c:	20c8      	movs	r0, #200	; 0xc8
    265e:	47a0      	blx	r4
    2660:	f640 41e4 	movw	r1, #3300	; 0xce4
    2664:	20c9      	movs	r0, #201	; 0xc9
    2666:	47a0      	blx	r4
    2668:	21e4      	movs	r1, #228	; 0xe4
    266a:	20cc      	movs	r0, #204	; 0xcc
    266c:	47a0      	blx	r4
    266e:	2114      	movs	r1, #20
    2670:	20cf      	movs	r0, #207	; 0xcf
    2672:	47a0      	blx	r4
    2674:	f44f 7180 	mov.w	r1, #256	; 0x100
    2678:	20d6      	movs	r0, #214	; 0xd6
    267a:	47a0      	blx	r4
    267c:	f241 011f 	movw	r1, #4127	; 0x101f
    2680:	20d7      	movs	r0, #215	; 0xd7
    2682:	47a0      	blx	r4
    2684:	2100      	movs	r1, #0
    2686:	20d8      	movs	r0, #216	; 0xd8
    2688:	47a0      	blx	r4
    268a:	2123      	movs	r1, #35	; 0x23
    268c:	20db      	movs	r0, #219	; 0xdb
    268e:	47a0      	blx	r4
    2690:	f643 412b 	movw	r1, #15403	; 0x3c2b
    2694:	20dc      	movs	r0, #220	; 0xdc
    2696:	47a0      	blx	r4
    2698:	f642 314d 	movw	r1, #11085	; 0x2b4d
    269c:	20dd      	movs	r0, #221	; 0xdd
    269e:	47a0      	blx	r4
    26a0:	f643 615e 	movw	r1, #15966	; 0x3e5e
    26a4:	20e0      	movs	r0, #224	; 0xe0
    26a6:	47a0      	blx	r4
    26a8:	2149      	movs	r1, #73	; 0x49
    26aa:	20d3      	movs	r0, #211	; 0xd3
    26ac:	47a0      	blx	r4
    26ae:	2100      	movs	r1, #0
    26b0:	20d8      	movs	r0, #216	; 0xd8
    26b2:	47a0      	blx	r4
    26b4:	2123      	movs	r1, #35	; 0x23
    26b6:	20db      	movs	r0, #219	; 0xdb
    26b8:	47a0      	blx	r4
    26ba:	f643 412b 	movw	r1, #15403	; 0x3c2b
    26be:	20dc      	movs	r0, #220	; 0xdc
    26c0:	47a0      	blx	r4
    26c2:	f642 314d 	movw	r1, #11085	; 0x2b4d
    26c6:	20dd      	movs	r0, #221	; 0xdd
    26c8:	47a0      	blx	r4
    26ca:	f240 2199 	movw	r1, #665	; 0x299
    26ce:	20e6      	movs	r0, #230	; 0xe6
    26d0:	47a0      	blx	r4
    26d2:	f44f 7154 	mov.w	r1, #848	; 0x350
    26d6:	20e7      	movs	r0, #231	; 0xe7
    26d8:	47a0      	blx	r4
    26da:	f44f 71fa 	mov.w	r1, #500	; 0x1f4
    26de:	20e8      	movs	r0, #232	; 0xe8
    26e0:	47a0      	blx	r4
    26e2:	21e1      	movs	r1, #225	; 0xe1
    26e4:	20eb      	movs	r0, #235	; 0xeb
    26e6:	47a0      	blx	r4
    26e8:	f24b 0119 	movw	r1, #45081	; 0xb019
    26ec:	f44f 7080 	mov.w	r0, #256	; 0x100
    26f0:	47a0      	blx	r4
    26f2:	f24b 0119 	movw	r1, #45081	; 0xb019
    26f6:	f44f 7081 	mov.w	r0, #258	; 0x102
    26fa:	47a0      	blx	r4
    26fc:	f44f 4148 	mov.w	r1, #51200	; 0xc800
    2700:	f44f 70c0 	mov.w	r0, #384	; 0x180
    2704:	47a0      	blx	r4
    2706:	f64f 311f 	movw	r1, #64287	; 0xfb1f
    270a:	f240 1081 	movw	r0, #385	; 0x181
    270e:	47a0      	blx	r4
    2710:	f64f 311f 	movw	r1, #64287	; 0xfb1f
    2714:	f44f 70c1 	mov.w	r0, #386	; 0x182
    2718:	47a0      	blx	r4
    271a:	f64f 3112 	movw	r1, #64274	; 0xfb12
    271e:	f240 1083 	movw	r0, #387	; 0x183
    2722:	47a0      	blx	r4
    2724:	f64f 1112 	movw	r1, #63762	; 0xf912
    2728:	f44f 70c2 	mov.w	r0, #388	; 0x184
    272c:	47a0      	blx	r4
    272e:	f64f 1103 	movw	r1, #63747	; 0xf903
    2732:	f240 1085 	movw	r0, #389	; 0x185
    2736:	47a0      	blx	r4
    2738:	f64f 0102 	movw	r1, #63490	; 0xf802
    273c:	f44f 70c3 	mov.w	r0, #390	; 0x186
    2740:	47a0      	blx	r4
    2742:	f24f 310f 	movw	r1, #62223	; 0xf30f
    2746:	f240 1087 	movw	r0, #391	; 0x187
    274a:	47a0      	blx	r4
    274c:	f24f 310f 	movw	r1, #62223	; 0xf30f
    2750:	f44f 70c4 	mov.w	r0, #392	; 0x188
    2754:	47a0      	blx	r4
    2756:	f24f 310f 	movw	r1, #62223	; 0xf30f
    275a:	f240 1089 	movw	r0, #393	; 0x189
    275e:	47a0      	blx	r4
    2760:	f24f 310a 	movw	r1, #62218	; 0xf30a
    2764:	f44f 70c5 	mov.w	r0, #394	; 0x18a
    2768:	47a0      	blx	r4
    276a:	f24f 1101 	movw	r1, #61697	; 0xf101
    276e:	f240 108b 	movw	r0, #395	; 0x18b
    2772:	47a0      	blx	r4
    2774:	f24f 010a 	movw	r1, #61450	; 0xf00a
    2778:	f44f 70c6 	mov.w	r0, #396	; 0x18c
    277c:	47a0      	blx	r4
    277e:	f24f 214b 	movw	r1, #62027	; 0xf24b
    2782:	f240 108d 	movw	r0, #397	; 0x18d
    2786:	47a0      	blx	r4
    2788:	f24f 2101 	movw	r1, #61953	; 0xf201
    278c:	f44f 70c7 	mov.w	r0, #398	; 0x18e
    2790:	47a0      	blx	r4
    2792:	f24f 2126 	movw	r1, #61990	; 0xf226
    2796:	f240 108f 	movw	r0, #399	; 0x18f
    279a:	47a0      	blx	r4
    279c:	f24f 0121 	movw	r1, #61473	; 0xf021
    27a0:	f44f 70c8 	mov.w	r0, #400	; 0x190
    27a4:	47a0      	blx	r4
    27a6:	f24f 0101 	movw	r1, #61441	; 0xf001
    27aa:	f240 1091 	movw	r0, #401	; 0x191
    27ae:	47a0      	blx	r4
    27b0:	f24f 4102 	movw	r1, #62466	; 0xf402
    27b4:	f44f 70c9 	mov.w	r0, #402	; 0x192
    27b8:	47a0      	blx	r4
    27ba:	f24f 0107 	movw	r1, #61447	; 0xf007
    27be:	f240 1093 	movw	r0, #403	; 0x193
    27c2:	47a0      	blx	r4
    27c4:	f24f 210f 	movw	r1, #61967	; 0xf20f
    27c8:	f44f 70ca 	mov.w	r0, #404	; 0x194
    27cc:	47a0      	blx	r4
    27ce:	f24f 210f 	movw	r1, #61967	; 0xf20f
    27d2:	f240 1095 	movw	r0, #405	; 0x195
    27d6:	47a0      	blx	r4
    27d8:	f24f 2102 	movw	r1, #61954	; 0xf202
    27dc:	f44f 70cb 	mov.w	r0, #406	; 0x196
    27e0:	47a0      	blx	r4
    27e2:	f24f 0106 	movw	r1, #61446	; 0xf006
    27e6:	f240 1097 	movw	r0, #407	; 0x197
    27ea:	47a0      	blx	r4
    27ec:	f64e 4108 	movw	r1, #60424	; 0xec08
    27f0:	f44f 70cc 	mov.w	r0, #408	; 0x198
    27f4:	47a0      	blx	r4
    27f6:	f64c 0101 	movw	r1, #51201	; 0xc801
    27fa:	f240 1099 	movw	r0, #409	; 0x199
    27fe:	47a0      	blx	r4
    2800:	f44f 4148 	mov.w	r1, #51200	; 0xc800
    2804:	f44f 70cd 	mov.w	r0, #410	; 0x19a
    2808:	47a0      	blx	r4
    280a:	f44f 4148 	mov.w	r1, #51200	; 0xc800
    280e:	f240 10a3 	movw	r0, #419	; 0x1a3
    2812:	47a0      	blx	r4
    2814:	f64c 4102 	movw	r1, #52226	; 0xcc02
    2818:	f44f 70d2 	mov.w	r0, #420	; 0x1a4
    281c:	47a0      	blx	r4
    281e:	f64c 4101 	movw	r1, #52225	; 0xcc01
    2822:	f240 10a5 	movw	r0, #421	; 0x1a5
    2826:	47a0      	blx	r4
    2828:	f64c 4102 	movw	r1, #52226	; 0xcc02
    282c:	f44f 70d3 	mov.w	r0, #422	; 0x1a6
    2830:	47a0      	blx	r4
    2832:	f64c 4101 	movw	r1, #52225	; 0xcc01
    2836:	f240 10a7 	movw	r0, #423	; 0x1a7
    283a:	47a0      	blx	r4
    283c:	f64c 4102 	movw	r1, #52226	; 0xcc02
    2840:	f44f 70d4 	mov.w	r0, #424	; 0x1a8
    2844:	47a0      	blx	r4
    2846:	f64c 0105 	movw	r1, #51205	; 0xc805
    284a:	f240 10a9 	movw	r0, #425	; 0x1a9
    284e:	47a0      	blx	r4
    2850:	f44f 4148 	mov.w	r1, #51200	; 0xc800
    2854:	f44f 70d5 	mov.w	r0, #426	; 0x1aa
    2858:	47a0      	blx	r4
    285a:	2130      	movs	r1, #48	; 0x30
    285c:	f240 10ab 	movw	r0, #427	; 0x1ab
    2860:	47a0      	blx	r4
    2862:	f242 017b 	movw	r1, #8315	; 0x207b
    2866:	f44f 70d6 	mov.w	r0, #428	; 0x1ac
    286a:	47a0      	blx	r4
    286c:	f242 0171 	movw	r1, #8305	; 0x2071
    2870:	f240 10ad 	movw	r0, #429	; 0x1ad
    2874:	47a0      	blx	r4
    2876:	2171      	movs	r1, #113	; 0x71
    2878:	f44f 70d7 	mov.w	r0, #430	; 0x1ae
    287c:	47a0      	blx	r4
    287e:	f241 017f 	movw	r1, #4223	; 0x107f
    2882:	f240 10af 	movw	r0, #431	; 0x1af
    2886:	47a0      	blx	r4
    2888:	f241 0172 	movw	r1, #4210	; 0x1072
    288c:	f44f 70d8 	mov.w	r0, #432	; 0x1b0
    2890:	47a0      	blx	r4
    2892:	f241 0174 	movw	r1, #4212	; 0x1074
    2896:	f240 10b1 	movw	r0, #433	; 0x1b1
    289a:	47a0      	blx	r4
    289c:	2171      	movs	r1, #113	; 0x71
    289e:	f44f 70d9 	mov.w	r0, #434	; 0x1b2
    28a2:	47a0      	blx	r4
    28a4:	2131      	movs	r1, #49	; 0x31
    28a6:	f240 10b3 	movw	r0, #435	; 0x1b3
    28aa:	47a0      	blx	r4
    28ac:	f242 11bb 	movw	r1, #8635	; 0x21bb
    28b0:	e002      	b.n	28b8 <RequiredUploads+0x340>
    28b2:	bf00      	nop
    28b4:	0000235d 	.word	0x0000235d
    28b8:	f44f 70da 	mov.w	r0, #436	; 0x1b4
    28bc:	47a0      	blx	r4
    28be:	f242 01b1 	movw	r1, #8369	; 0x20b1
    28c2:	f240 10b5 	movw	r0, #437	; 0x1b5
    28c6:	47a0      	blx	r4
    28c8:	21b1      	movs	r1, #177	; 0xb1
    28ca:	f44f 70db 	mov.w	r0, #438	; 0x1b6
    28ce:	47a0      	blx	r4
    28d0:	f241 01bf 	movw	r1, #4287	; 0x10bf
    28d4:	f240 10b7 	movw	r0, #439	; 0x1b7
    28d8:	47a0      	blx	r4
    28da:	f241 01b2 	movw	r1, #4274	; 0x10b2
    28de:	f44f 70dc 	mov.w	r0, #440	; 0x1b8
    28e2:	47a0      	blx	r4
    28e4:	f241 01b4 	movw	r1, #4276	; 0x10b4
    28e8:	f240 10b9 	movw	r0, #441	; 0x1b9
    28ec:	47a0      	blx	r4
    28ee:	21b1      	movs	r1, #177	; 0xb1
    28f0:	f44f 70dd 	mov.w	r0, #442	; 0x1ba
    28f4:	47a0      	blx	r4
    28f6:	2130      	movs	r1, #48	; 0x30
    28f8:	f240 10bb 	movw	r0, #443	; 0x1bb
    28fc:	47a0      	blx	r4
    28fe:	2130      	movs	r1, #48	; 0x30
    2900:	f44f 70de 	mov.w	r0, #444	; 0x1bc
    2904:	47a0      	blx	r4
    2906:	f242 117b 	movw	r1, #8571	; 0x217b
    290a:	f240 10bd 	movw	r0, #445	; 0x1bd
    290e:	47a0      	blx	r4
    2910:	f242 0171 	movw	r1, #8305	; 0x2071
    2914:	f44f 70df 	mov.w	r0, #446	; 0x1be
    2918:	47a0      	blx	r4
    291a:	2171      	movs	r1, #113	; 0x71
    291c:	f240 10bf 	movw	r0, #447	; 0x1bf
    2920:	47a0      	blx	r4
    2922:	f241 017f 	movw	r1, #4223	; 0x107f
    2926:	f44f 70e0 	mov.w	r0, #448	; 0x1c0
    292a:	47a0      	blx	r4
    292c:	f241 0172 	movw	r1, #4210	; 0x1072
    2930:	f240 10c1 	movw	r0, #449	; 0x1c1
    2934:	47a0      	blx	r4
    2936:	f241 0174 	movw	r1, #4212	; 0x1074
    293a:	f44f 70e1 	mov.w	r0, #450	; 0x1c2
    293e:	47a0      	blx	r4
    2940:	2171      	movs	r1, #113	; 0x71
    2942:	f240 10c3 	movw	r0, #451	; 0x1c3
    2946:	47a0      	blx	r4
    2948:	2131      	movs	r1, #49	; 0x31
    294a:	f44f 70e2 	mov.w	r0, #452	; 0x1c4
    294e:	47a0      	blx	r4
    2950:	f242 11bb 	movw	r1, #8635	; 0x21bb
    2954:	f240 10c5 	movw	r0, #453	; 0x1c5
    2958:	47a0      	blx	r4
    295a:	f242 01b1 	movw	r1, #8369	; 0x20b1
    295e:	f44f 70e3 	mov.w	r0, #454	; 0x1c6
    2962:	47a0      	blx	r4
    2964:	21b1      	movs	r1, #177	; 0xb1
    2966:	f240 10c7 	movw	r0, #455	; 0x1c7
    296a:	47a0      	blx	r4
    296c:	f241 01bf 	movw	r1, #4287	; 0x10bf
    2970:	f44f 70e4 	mov.w	r0, #456	; 0x1c8
    2974:	47a0      	blx	r4
    2976:	f241 01b2 	movw	r1, #4274	; 0x10b2
    297a:	f240 10c9 	movw	r0, #457	; 0x1c9
    297e:	47a0      	blx	r4
    2980:	f241 01b4 	movw	r1, #4276	; 0x10b4
    2984:	f44f 70e5 	mov.w	r0, #458	; 0x1ca
    2988:	47a0      	blx	r4
    298a:	21b1      	movs	r1, #177	; 0xb1
    298c:	f240 10cb 	movw	r0, #459	; 0x1cb
    2990:	47a0      	blx	r4
    2992:	2130      	movs	r1, #48	; 0x30
    2994:	f44f 70e6 	mov.w	r0, #460	; 0x1cc
    2998:	47a0      	blx	r4
    299a:	2130      	movs	r1, #48	; 0x30
    299c:	f240 10cd 	movw	r0, #461	; 0x1cd
    29a0:	47a0      	blx	r4
    29a2:	f242 117b 	movw	r1, #8571	; 0x217b
    29a6:	f44f 70e7 	mov.w	r0, #462	; 0x1ce
    29aa:	47a0      	blx	r4
    29ac:	f242 0171 	movw	r1, #8305	; 0x2071
    29b0:	f240 10cf 	movw	r0, #463	; 0x1cf
    29b4:	47a0      	blx	r4
    29b6:	2171      	movs	r1, #113	; 0x71
    29b8:	f44f 70e8 	mov.w	r0, #464	; 0x1d0
    29bc:	47a0      	blx	r4
    29be:	f241 0171 	movw	r1, #4209	; 0x1071
    29c2:	f240 10d1 	movw	r0, #465	; 0x1d1
    29c6:	47a0      	blx	r4
    29c8:	2171      	movs	r1, #113	; 0x71
    29ca:	f44f 70e9 	mov.w	r0, #466	; 0x1d2
    29ce:	47a0      	blx	r4
    29d0:	2131      	movs	r1, #49	; 0x31
    29d2:	f240 10d3 	movw	r0, #467	; 0x1d3
    29d6:	47a0      	blx	r4
    29d8:	f242 11bb 	movw	r1, #8635	; 0x21bb
    29dc:	f44f 70ea 	mov.w	r0, #468	; 0x1d4
    29e0:	47a0      	blx	r4
    29e2:	f242 01b1 	movw	r1, #8369	; 0x20b1
    29e6:	f240 10d5 	movw	r0, #469	; 0x1d5
    29ea:	47a0      	blx	r4
    29ec:	21b1      	movs	r1, #177	; 0xb1
    29ee:	f44f 70eb 	mov.w	r0, #470	; 0x1d6
    29f2:	47a0      	blx	r4
    29f4:	f241 01b3 	movw	r1, #4275	; 0x10b3
    29f8:	f240 10d7 	movw	r0, #471	; 0x1d7
    29fc:	47a0      	blx	r4
    29fe:	f241 01b1 	movw	r1, #4273	; 0x10b1
    2a02:	f44f 70ec 	mov.w	r0, #472	; 0x1d8
    2a06:	47a0      	blx	r4
    2a08:	21b1      	movs	r1, #177	; 0xb1
    2a0a:	f240 10d9 	movw	r0, #473	; 0x1d9
    2a0e:	47a0      	blx	r4
    2a10:	213f      	movs	r1, #63	; 0x3f
    2a12:	f44f 70ed 	mov.w	r0, #474	; 0x1da
    2a16:	47a0      	blx	r4
    2a18:	2132      	movs	r1, #50	; 0x32
    2a1a:	f240 10db 	movw	r0, #475	; 0x1db
    2a1e:	47a0      	blx	r4
    2a20:	4623      	mov	r3, r4
    2a22:	2130      	movs	r1, #48	; 0x30
    2a24:	f44f 70ee 	mov.w	r0, #476	; 0x1dc
    2a28:	e8bd 4010 	ldmia.w	sp!, {r4, lr}
    2a2c:	4718      	bx	r3
    2a2e:	bf00      	nop

00002a30 <SoftPowerUp>:
    2a30:	b510      	push	{r4, lr}
    2a32:	2100      	movs	r1, #0
    2a34:	4c0e      	ldr	r4, [pc, #56]	; (2a70 <SoftPowerUp+0x40>)
    2a36:	200a      	movs	r0, #10
    2a38:	47a0      	blx	r4
    2a3a:	f247 010f 	movw	r1, #28687	; 0x700f
    2a3e:	2020      	movs	r0, #32
    2a40:	47a0      	blx	r4
    2a42:	2107      	movs	r1, #7
    2a44:	2028      	movs	r0, #40	; 0x28
    2a46:	47a0      	blx	r4
    2a48:	f244 1113 	movw	r1, #16659	; 0x4113
    2a4c:	202a      	movs	r0, #42	; 0x2a
    2a4e:	47a0      	blx	r4
    2a50:	2101      	movs	r1, #1
    2a52:	2030      	movs	r0, #48	; 0x30
    2a54:	47a0      	blx	r4
    2a56:	2101      	movs	r1, #1
    2a58:	2040      	movs	r0, #64	; 0x40
    2a5a:	47a0      	blx	r4
    2a5c:	f240 1127 	movw	r1, #295	; 0x127
    2a60:	2048      	movs	r0, #72	; 0x48
    2a62:	47a0      	blx	r4
    2a64:	4623      	mov	r3, r4
    2a66:	2100      	movs	r1, #0
    2a68:	2070      	movs	r0, #112	; 0x70
    2a6a:	e8bd 4010 	ldmia.w	sp!, {r4, lr}
    2a6e:	4718      	bx	r3
    2a70:	0000235d 	.word	0x0000235d

00002a74 <python480Init>:
    2a74:	b510      	push	{r4, lr}
    2a76:	4b06      	ldr	r3, [pc, #24]	; (2a90 <python480Init+0x1c>)
    2a78:	4798      	blx	r3
    2a7a:	2064      	movs	r0, #100	; 0x64
    2a7c:	4b05      	ldr	r3, [pc, #20]	; (2a94 <python480Init+0x20>)
    2a7e:	4798      	blx	r3
    2a80:	4b05      	ldr	r3, [pc, #20]	; (2a98 <python480Init+0x24>)
    2a82:	4798      	blx	r3
    2a84:	4b05      	ldr	r3, [pc, #20]	; (2a9c <python480Init+0x28>)
    2a86:	4798      	blx	r3
    2a88:	4b05      	ldr	r3, [pc, #20]	; (2aa0 <python480Init+0x2c>)
    2a8a:	e8bd 4010 	ldmia.w	sp!, {r4, lr}
    2a8e:	4718      	bx	r3
    2a90:	0000250d 	.word	0x0000250d
    2a94:	00000a81 	.word	0x00000a81
    2a98:	00002555 	.word	0x00002555
    2a9c:	00002579 	.word	0x00002579
    2aa0:	00002a31 	.word	0x00002a31

00002aa4 <Enable_Subsample>:
    2aa4:	b510      	push	{r4, lr}
    2aa6:	4c06      	ldr	r4, [pc, #24]	; (2ac0 <Enable_Subsample+0x1c>)
    2aa8:	f640 0183 	movw	r1, #2179	; 0x883
    2aac:	20c0      	movs	r0, #192	; 0xc0
    2aae:	47a0      	blx	r4
    2ab0:	4623      	mov	r3, r4
    2ab2:	f640 71e4 	movw	r1, #4068	; 0xfe4
    2ab6:	20c2      	movs	r0, #194	; 0xc2
    2ab8:	e8bd 4010 	ldmia.w	sp!, {r4, lr}
    2abc:	4718      	bx	r3
    2abe:	bf00      	nop
    2ac0:	0000235d 	.word	0x0000235d

00002ac4 <loadSDCardHeader>:
    2ac4:	b508      	push	{r3, lr}
    2ac6:	2201      	movs	r2, #1
    2ac8:	f240 31fe 	movw	r1, #1022	; 0x3fe
    2acc:	4b06      	ldr	r3, [pc, #24]	; (2ae8 <loadSDCardHeader+0x24>)
    2ace:	2000      	movs	r0, #0
    2ad0:	4798      	blx	r3
    2ad2:	2101      	movs	r1, #1
    2ad4:	4b05      	ldr	r3, [pc, #20]	; (2aec <loadSDCardHeader+0x28>)
    2ad6:	4806      	ldr	r0, [pc, #24]	; (2af0 <loadSDCardHeader+0x2c>)
    2ad8:	4798      	blx	r3
    2ada:	4b06      	ldr	r3, [pc, #24]	; (2af4 <loadSDCardHeader+0x30>)
    2adc:	2000      	movs	r0, #0
    2ade:	4798      	blx	r3
    2ae0:	fab0 f080 	clz	r0, r0
    2ae4:	0940      	lsrs	r0, r0, #5
    2ae6:	bd08      	pop	{r3, pc}
    2ae8:	000038c5 	.word	0x000038c5
    2aec:	00003979 	.word	0x00003979
    2af0:	20000214 	.word	0x20000214
    2af4:	000039a5 	.word	0x000039a5

00002af8 <setBufferHeader>:
    2af8:	4a17      	ldr	r2, [pc, #92]	; (2b58 <setBufferHeader+0x60>)
    2afa:	f8d2 3404 	ldr.w	r3, [r2, #1028]	; 0x404
    2afe:	f44f 41a0 	mov.w	r1, #20480	; 0x5000
    2b02:	f003 0307 	and.w	r3, r3, #7
    2b06:	b530      	push	{r4, r5, lr}
    2b08:	4359      	muls	r1, r3
    2b0a:	4c14      	ldr	r4, [pc, #80]	; (2b5c <setBufferHeader+0x64>)
    2b0c:	250c      	movs	r5, #12
    2b0e:	5065      	str	r5, [r4, r1]
    2b10:	1863      	adds	r3, r4, r1
    2b12:	f8d2 1404 	ldr.w	r1, [r2, #1028]	; 0x404
    2b16:	f001 0107 	and.w	r1, r1, #7
    2b1a:	6059      	str	r1, [r3, #4]
    2b1c:	f8d2 1408 	ldr.w	r1, [r2, #1032]	; 0x408
    2b20:	6099      	str	r1, [r3, #8]
    2b22:	f8d2 1404 	ldr.w	r1, [r2, #1028]	; 0x404
    2b26:	60d9      	str	r1, [r3, #12]
    2b28:	f8d2 140c 	ldr.w	r1, [r2, #1036]	; 0x40c
    2b2c:	6119      	str	r1, [r3, #16]
    2b2e:	490c      	ldr	r1, [pc, #48]	; (2b60 <setBufferHeader+0x68>)
    2b30:	6809      	ldr	r1, [r1, #0]
    2b32:	6159      	str	r1, [r3, #20]
    2b34:	490b      	ldr	r1, [pc, #44]	; (2b64 <setBufferHeader+0x6c>)
    2b36:	6809      	ldr	r1, [r1, #0]
    2b38:	6199      	str	r1, [r3, #24]
    2b3a:	490b      	ldr	r1, [pc, #44]	; (2b68 <setBufferHeader+0x70>)
    2b3c:	6812      	ldr	r2, [r2, #0]
    2b3e:	6809      	ldr	r1, [r1, #0]
    2b40:	1a52      	subs	r2, r2, r1
    2b42:	61da      	str	r2, [r3, #28]
    2b44:	4a09      	ldr	r2, [pc, #36]	; (2b6c <setBufferHeader+0x74>)
    2b46:	7812      	ldrb	r2, [r2, #0]
    2b48:	b2d2      	uxtb	r2, r2
    2b4a:	629a      	str	r2, [r3, #40]	; 0x28
    2b4c:	4a08      	ldr	r2, [pc, #32]	; (2b70 <setBufferHeader+0x78>)
    2b4e:	0080      	lsls	r0, r0, #2
    2b50:	6812      	ldr	r2, [r2, #0]
    2b52:	62da      	str	r2, [r3, #44]	; 0x2c
    2b54:	6218      	str	r0, [r3, #32]
    2b56:	bd30      	pop	{r4, r5, pc}
    2b58:	20000210 	.word	0x20000210
    2b5c:	20000bf8 	.word	0x20000bf8
    2b60:	20000bec 	.word	0x20000bec
    2b64:	20000b44 	.word	0x20000b44
    2b68:	20000bd4 	.word	0x20000bd4
    2b6c:	20000b38 	.word	0x20000b38
    2b70:	20029260 	.word	0x20029260

00002b74 <pcc_dma_cb>:
    2b74:	b508      	push	{r3, lr}
    2b76:	b971      	cbnz	r1, 2b96 <pcc_dma_cb+0x22>
    2b78:	4b07      	ldr	r3, [pc, #28]	; (2b98 <pcc_dma_cb+0x24>)
    2b7a:	f241 30f4 	movw	r0, #5108	; 0x13f4
    2b7e:	4798      	blx	r3
    2b80:	4b06      	ldr	r3, [pc, #24]	; (2b9c <pcc_dma_cb+0x28>)
    2b82:	f8d3 2404 	ldr.w	r2, [r3, #1028]	; 0x404
    2b86:	3201      	adds	r2, #1
    2b88:	f8c3 2404 	str.w	r2, [r3, #1028]	; 0x404
    2b8c:	f8d3 240c 	ldr.w	r2, [r3, #1036]	; 0x40c
    2b90:	3201      	adds	r2, #1
    2b92:	f8c3 240c 	str.w	r2, [r3, #1036]	; 0x40c
    2b96:	bd08      	pop	{r3, pc}
    2b98:	00002af9 	.word	0x00002af9
    2b9c:	20000210 	.word	0x20000210

00002ba0 <setSDDescriptor>:
    2ba0:	b530      	push	{r4, r5, lr}
    2ba2:	0409      	lsls	r1, r1, #16
    2ba4:	b2d2      	uxtb	r2, r2
    2ba6:	2300      	movs	r3, #0
    2ba8:	430a      	orrs	r2, r1
    2baa:	ea43 73e1 	orr.w	r3, r3, r1, asr #31
    2bae:	2400      	movs	r4, #0
    2bb0:	4902      	ldr	r1, [pc, #8]	; (2bbc <setSDDescriptor+0x1c>)
    2bb2:	4322      	orrs	r2, r4
    2bb4:	4303      	orrs	r3, r0
    2bb6:	e9c1 2300 	strd	r2, r3, [r1]
    2bba:	bd30      	pop	{r4, r5, pc}
    2bbc:	20029250 	.word	0x20029250

00002bc0 <setExcitationLED>:
    2bc0:	2864      	cmp	r0, #100	; 0x64
    2bc2:	bf28      	it	cs
    2bc4:	2064      	movcs	r0, #100	; 0x64
    2bc6:	b510      	push	{r4, lr}
    2bc8:	2200      	movs	r2, #0
    2bca:	ebc0 4000 	rsb	r0, r0, r0, lsl #16
    2bce:	4b09      	ldr	r3, [pc, #36]	; (2bf4 <setExcitationLED+0x34>)
    2bd0:	460c      	mov	r4, r1
    2bd2:	2164      	movs	r1, #100	; 0x64
    2bd4:	fbb0 f1f1 	udiv	r1, r0, r1
    2bd8:	4807      	ldr	r0, [pc, #28]	; (2bf8 <setExcitationLED+0x38>)
    2bda:	4798      	blx	r3
    2bdc:	4b07      	ldr	r3, [pc, #28]	; (2bfc <setExcitationLED+0x3c>)
    2bde:	4806      	ldr	r0, [pc, #24]	; (2bf8 <setExcitationLED+0x38>)
    2be0:	4798      	blx	r3
    2be2:	4b07      	ldr	r3, [pc, #28]	; (2c00 <setExcitationLED+0x40>)
    2be4:	2202      	movs	r2, #2
    2be6:	b114      	cbz	r4, 2bee <setExcitationLED+0x2e>
    2be8:	f8c3 2098 	str.w	r2, [r3, #152]	; 0x98
    2bec:	bd10      	pop	{r4, pc}
    2bee:	f8c3 2094 	str.w	r2, [r3, #148]	; 0x94
    2bf2:	bd10      	pop	{r4, pc}
    2bf4:	00000c8d 	.word	0x00000c8d
    2bf8:	20000698 	.word	0x20000698
    2bfc:	00000c69 	.word	0x00000c69
    2c00:	41008000 	.word	0x41008000

00002c04 <setEWL>:
    2c04:	b2c1      	uxtb	r1, r0
    2c06:	4b01      	ldr	r3, [pc, #4]	; (2c0c <setEWL+0x8>)
    2c08:	2023      	movs	r0, #35	; 0x23
    2c0a:	4718      	bx	r3
    2c0c:	000021f5 	.word	0x000021f5

00002c10 <linkedListInit>:
    2c10:	e92d 41f0 	stmdb	sp!, {r4, r5, r6, r7, r8, lr}
    2c14:	4a15      	ldr	r2, [pc, #84]	; (2c6c <linkedListInit+0x5c>)
    2c16:	4f16      	ldr	r7, [pc, #88]	; (2c70 <linkedListInit+0x60>)
    2c18:	4d16      	ldr	r5, [pc, #88]	; (2c74 <linkedListInit+0x64>)
    2c1a:	2300      	movs	r3, #0
    2c1c:	f241 3cf4 	movw	ip, #5108	; 0x13f4
    2c20:	f640 2e09 	movw	lr, #2569	; 0xa09
    2c24:	f44f 46a0 	mov.w	r6, #20480	; 0x5000
    2c28:	2b07      	cmp	r3, #7
    2c2a:	ea4f 1003 	mov.w	r0, r3, lsl #4
    2c2e:	f103 0401 	add.w	r4, r3, #1
    2c32:	bf1e      	ittt	ne
    2c34:	eb02 0800 	addne.w	r8, r2, r0
    2c38:	eb02 1104 	addne.w	r1, r2, r4, lsl #4
    2c3c:	f8c8 100c 	strne.w	r1, [r8, #12]
    2c40:	eb02 0100 	add.w	r1, r2, r0
    2c44:	bf08      	it	eq
    2c46:	67d2      	streq	r2, [r2, #124]	; 0x7c
    2c48:	f8a1 c002 	strh.w	ip, [r1, #2]
    2c4c:	f822 e000 	strh.w	lr, [r2, r0]
    2c50:	604f      	str	r7, [r1, #4]
    2c52:	8848      	ldrh	r0, [r1, #2]
    2c54:	fb06 5303 	mla	r3, r6, r3, r5
    2c58:	b280      	uxth	r0, r0
    2c5a:	3330      	adds	r3, #48	; 0x30
    2c5c:	eb03 0380 	add.w	r3, r3, r0, lsl #2
    2c60:	2c08      	cmp	r4, #8
    2c62:	608b      	str	r3, [r1, #8]
    2c64:	4623      	mov	r3, r4
    2c66:	d1df      	bne.n	2c28 <linkedListInit+0x18>
    2c68:	e8bd 81f0 	ldmia.w	sp!, {r4, r5, r6, r7, r8, pc}
    2c6c:	20000b50 	.word	0x20000b50
    2c70:	43002c14 	.word	0x43002c14
    2c74:	20000bf8 	.word	0x20000bf8

00002c78 <setPCCCurrentLinkedListPosition>:
    2c78:	e92d 41f0 	stmdb	sp!, {r4, r5, r6, r7, r8, lr}
    2c7c:	4f0e      	ldr	r7, [pc, #56]	; (2cb8 <setPCCCurrentLinkedListPosition+0x40>)
    2c7e:	4b0f      	ldr	r3, [pc, #60]	; (2cbc <setPCCCurrentLinkedListPosition+0x44>)
    2c80:	4d0f      	ldr	r5, [pc, #60]	; (2cc0 <setPCCCurrentLinkedListPosition+0x48>)
    2c82:	0106      	lsls	r6, r0, #4
    2c84:	19bc      	adds	r4, r7, r6
    2c86:	2000      	movs	r0, #0
    2c88:	6861      	ldr	r1, [r4, #4]
    2c8a:	4798      	blx	r3
    2c8c:	68a1      	ldr	r1, [r4, #8]
    2c8e:	2000      	movs	r0, #0
    2c90:	47a8      	blx	r5
    2c92:	8861      	ldrh	r1, [r4, #2]
    2c94:	4b0b      	ldr	r3, [pc, #44]	; (2cc4 <setPCCCurrentLinkedListPosition+0x4c>)
    2c96:	b289      	uxth	r1, r1
    2c98:	2000      	movs	r0, #0
    2c9a:	4798      	blx	r3
    2c9c:	5bb9      	ldrh	r1, [r7, r6]
    2c9e:	4b0a      	ldr	r3, [pc, #40]	; (2cc8 <setPCCCurrentLinkedListPosition+0x50>)
    2ca0:	b289      	uxth	r1, r1
    2ca2:	2000      	movs	r0, #0
    2ca4:	4798      	blx	r3
    2ca6:	68a1      	ldr	r1, [r4, #8]
    2ca8:	2000      	movs	r0, #0
    2caa:	47a8      	blx	r5
    2cac:	68e1      	ldr	r1, [r4, #12]
    2cae:	4b07      	ldr	r3, [pc, #28]	; (2ccc <setPCCCurrentLinkedListPosition+0x54>)
    2cb0:	2000      	movs	r0, #0
    2cb2:	e8bd 41f0 	ldmia.w	sp!, {r4, r5, r6, r7, r8, lr}
    2cb6:	4718      	bx	r3
    2cb8:	20000b50 	.word	0x20000b50
    2cbc:	000011b9 	.word	0x000011b9
    2cc0:	000011a9 	.word	0x000011a9
    2cc4:	000011f9 	.word	0x000011f9
    2cc8:	000011c9 	.word	0x000011c9
    2ccc:	000011d9 	.word	0x000011d9

00002cd0 <frameValid_cb>:
    2cd0:	b570      	push	{r4, r5, r6, lr}
    2cd2:	202e      	movs	r0, #46	; 0x2e
    2cd4:	4d34      	ldr	r5, [pc, #208]	; (2da8 <frameValid_cb+0xd8>)
    2cd6:	47a8      	blx	r5
    2cd8:	4604      	mov	r4, r0
    2cda:	2029      	movs	r0, #41	; 0x29
    2cdc:	47a8      	blx	r5
    2cde:	4b33      	ldr	r3, [pc, #204]	; (2dac <frameValid_cb+0xdc>)
    2ce0:	f44f 7200 	mov.w	r2, #512	; 0x200
    2ce4:	2800      	cmp	r0, #0
    2ce6:	d03b      	beq.n	2d60 <frameValid_cb+0x90>
    2ce8:	f8c3 2094 	str.w	r2, [r3, #148]	; 0x94
    2cec:	2c00      	cmp	r4, #0
    2cee:	d15a      	bne.n	2da6 <frameValid_cb+0xd6>
    2cf0:	4d2f      	ldr	r5, [pc, #188]	; (2db0 <frameValid_cb+0xe0>)
    2cf2:	682b      	ldr	r3, [r5, #0]
    2cf4:	f013 0f18 	tst.w	r3, #24
    2cf8:	462e      	mov	r6, r5
    2cfa:	d034      	beq.n	2d66 <frameValid_cb+0x96>
    2cfc:	4d2d      	ldr	r5, [pc, #180]	; (2db4 <frameValid_cb+0xe4>)
    2cfe:	4a2e      	ldr	r2, [pc, #184]	; (2db8 <frameValid_cb+0xe8>)
    2d00:	682b      	ldr	r3, [r5, #0]
    2d02:	f023 0301 	bic.w	r3, r3, #1
    2d06:	602b      	str	r3, [r5, #0]
    2d08:	6c13      	ldr	r3, [r2, #64]	; 0x40
    2d0a:	f023 0302 	bic.w	r3, r3, #2
    2d0e:	6413      	str	r3, [r2, #64]	; 0x40
    2d10:	4620      	mov	r0, r4
    2d12:	4b2a      	ldr	r3, [pc, #168]	; (2dbc <frameValid_cb+0xec>)
    2d14:	4798      	blx	r3
    2d16:	f5c0 509f 	rsb	r0, r0, #5088	; 0x13e0
    2d1a:	4b29      	ldr	r3, [pc, #164]	; (2dc0 <frameValid_cb+0xf0>)
    2d1c:	3014      	adds	r0, #20
    2d1e:	4798      	blx	r3
    2d20:	4b28      	ldr	r3, [pc, #160]	; (2dc4 <frameValid_cb+0xf4>)
    2d22:	f8c3 440c 	str.w	r4, [r3, #1036]	; 0x40c
    2d26:	f8d3 2404 	ldr.w	r2, [r3, #1028]	; 0x404
    2d2a:	3201      	adds	r2, #1
    2d2c:	f8c3 2404 	str.w	r2, [r3, #1028]	; 0x404
    2d30:	f8d3 2408 	ldr.w	r2, [r3, #1032]	; 0x408
    2d34:	3201      	adds	r2, #1
    2d36:	f8c3 2408 	str.w	r2, [r3, #1032]	; 0x408
    2d3a:	6832      	ldr	r2, [r6, #0]
    2d3c:	0712      	lsls	r2, r2, #28
    2d3e:	d50d      	bpl.n	2d5c <frameValid_cb+0x8c>
    2d40:	f8d3 0404 	ldr.w	r0, [r3, #1028]	; 0x404
    2d44:	4b20      	ldr	r3, [pc, #128]	; (2dc8 <frameValid_cb+0xf8>)
    2d46:	f000 0007 	and.w	r0, r0, #7
    2d4a:	4798      	blx	r3
    2d4c:	4b1f      	ldr	r3, [pc, #124]	; (2dcc <frameValid_cb+0xfc>)
    2d4e:	4621      	mov	r1, r4
    2d50:	4620      	mov	r0, r4
    2d52:	4798      	blx	r3
    2d54:	682b      	ldr	r3, [r5, #0]
    2d56:	f043 0301 	orr.w	r3, r3, #1
    2d5a:	602b      	str	r3, [r5, #0]
    2d5c:	6833      	ldr	r3, [r6, #0]
    2d5e:	bd70      	pop	{r4, r5, r6, pc}
    2d60:	f8c3 2098 	str.w	r2, [r3, #152]	; 0x98
    2d64:	e7c2      	b.n	2cec <frameValid_cb+0x1c>
    2d66:	682b      	ldr	r3, [r5, #0]
    2d68:	059b      	lsls	r3, r3, #22
    2d6a:	d51c      	bpl.n	2da6 <frameValid_cb+0xd6>
    2d6c:	4b15      	ldr	r3, [pc, #84]	; (2dc4 <frameValid_cb+0xf4>)
    2d6e:	f8c3 4408 	str.w	r4, [r3, #1032]	; 0x408
    2d72:	f8c3 4404 	str.w	r4, [r3, #1028]	; 0x404
    2d76:	f8c3 440c 	str.w	r4, [r3, #1036]	; 0x40c
    2d7a:	4b15      	ldr	r3, [pc, #84]	; (2dd0 <frameValid_cb+0x100>)
    2d7c:	4798      	blx	r3
    2d7e:	4620      	mov	r0, r4
    2d80:	4b11      	ldr	r3, [pc, #68]	; (2dc8 <frameValid_cb+0xf8>)
    2d82:	4798      	blx	r3
    2d84:	4b11      	ldr	r3, [pc, #68]	; (2dcc <frameValid_cb+0xfc>)
    2d86:	4621      	mov	r1, r4
    2d88:	4620      	mov	r0, r4
    2d8a:	4798      	blx	r3
    2d8c:	4a09      	ldr	r2, [pc, #36]	; (2db4 <frameValid_cb+0xe4>)
    2d8e:	6813      	ldr	r3, [r2, #0]
    2d90:	f043 0301 	orr.w	r3, r3, #1
    2d94:	6013      	str	r3, [r2, #0]
    2d96:	682b      	ldr	r3, [r5, #0]
    2d98:	f423 7300 	bic.w	r3, r3, #512	; 0x200
    2d9c:	602b      	str	r3, [r5, #0]
    2d9e:	682b      	ldr	r3, [r5, #0]
    2da0:	f043 0308 	orr.w	r3, r3, #8
    2da4:	602b      	str	r3, [r5, #0]
    2da6:	bd70      	pop	{r4, r5, r6, pc}
    2da8:	0000222d 	.word	0x0000222d
    2dac:	41008000 	.word	0x41008000
    2db0:	20000028 	.word	0x20000028
    2db4:	43002c00 	.word	0x43002c00
    2db8:	4100a000 	.word	0x4100a000
    2dbc:	000011e9 	.word	0x000011e9
    2dc0:	00002af9 	.word	0x00002af9
    2dc4:	20000210 	.word	0x20000210
    2dc8:	00002c79 	.word	0x00002c79
    2dcc:	0000123d 	.word	0x0000123d
    2dd0:	00002c11 	.word	0x00002c11

00002dd4 <startRecording>:
    2dd4:	4a17      	ldr	r2, [pc, #92]	; (2e34 <startRecording+0x60>)
    2dd6:	2300      	movs	r3, #0
    2dd8:	b510      	push	{r4, lr}
    2dda:	6013      	str	r3, [r2, #0]
    2ddc:	4a16      	ldr	r2, [pc, #88]	; (2e38 <startRecording+0x64>)
    2dde:	4c17      	ldr	r4, [pc, #92]	; (2e3c <startRecording+0x68>)
    2de0:	6013      	str	r3, [r2, #0]
    2de2:	4a17      	ldr	r2, [pc, #92]	; (2e40 <startRecording+0x6c>)
    2de4:	69e0      	ldr	r0, [r4, #28]
    2de6:	6013      	str	r3, [r2, #0]
    2de8:	4a16      	ldr	r2, [pc, #88]	; (2e44 <startRecording+0x70>)
    2dea:	6013      	str	r3, [r2, #0]
    2dec:	4a16      	ldr	r2, [pc, #88]	; (2e48 <startRecording+0x74>)
    2dee:	6013      	str	r3, [r2, #0]
    2df0:	4b16      	ldr	r3, [pc, #88]	; (2e4c <startRecording+0x78>)
    2df2:	6822      	ldr	r2, [r4, #0]
    2df4:	601a      	str	r2, [r3, #0]
    2df6:	4b16      	ldr	r3, [pc, #88]	; (2e50 <startRecording+0x7c>)
    2df8:	4798      	blx	r3
    2dfa:	2101      	movs	r1, #1
    2dfc:	69a0      	ldr	r0, [r4, #24]
    2dfe:	4b15      	ldr	r3, [pc, #84]	; (2e54 <startRecording+0x80>)
    2e00:	4798      	blx	r3
    2e02:	6960      	ldr	r0, [r4, #20]
    2e04:	4b14      	ldr	r3, [pc, #80]	; (2e58 <startRecording+0x84>)
    2e06:	4798      	blx	r3
    2e08:	4b14      	ldr	r3, [pc, #80]	; (2e5c <startRecording+0x88>)
    2e0a:	6a60      	ldr	r0, [r4, #36]	; 0x24
    2e0c:	4798      	blx	r3
    2e0e:	4b14      	ldr	r3, [pc, #80]	; (2e60 <startRecording+0x8c>)
    2e10:	f44f 7200 	mov.w	r2, #512	; 0x200
    2e14:	f8c3 2098 	str.w	r2, [r3, #152]	; 0x98
    2e18:	4b12      	ldr	r3, [pc, #72]	; (2e64 <startRecording+0x90>)
    2e1a:	681a      	ldr	r2, [r3, #0]
    2e1c:	f022 0202 	bic.w	r2, r2, #2
    2e20:	601a      	str	r2, [r3, #0]
    2e22:	681a      	ldr	r2, [r3, #0]
    2e24:	f022 0204 	bic.w	r2, r2, #4
    2e28:	601a      	str	r2, [r3, #0]
    2e2a:	681a      	ldr	r2, [r3, #0]
    2e2c:	f442 7200 	orr.w	r2, r2, #512	; 0x200
    2e30:	601a      	str	r2, [r3, #0]
    2e32:	bd10      	pop	{r4, pc}
    2e34:	20000bf4 	.word	0x20000bf4
    2e38:	20000bec 	.word	0x20000bec
    2e3c:	20000210 	.word	0x20000210
    2e40:	20000b44 	.word	0x20000b44
    2e44:	20000be4 	.word	0x20000be4
    2e48:	20000b40 	.word	0x20000b40
    2e4c:	20000bd4 	.word	0x20000bd4
    2e50:	00002c05 	.word	0x00002c05
    2e54:	00002bc1 	.word	0x00002bc1
    2e58:	00002409 	.word	0x00002409
    2e5c:	00002425 	.word	0x00002425
    2e60:	41008000 	.word	0x41008000
    2e64:	20000028 	.word	0x20000028

00002e68 <stopRecording>:
    2e68:	4b18      	ldr	r3, [pc, #96]	; (2ecc <stopRecording+0x64>)
    2e6a:	681a      	ldr	r2, [r3, #0]
    2e6c:	f022 0210 	bic.w	r2, r2, #16
    2e70:	b510      	push	{r4, lr}
    2e72:	601a      	str	r2, [r3, #0]
    2e74:	681a      	ldr	r2, [r3, #0]
    2e76:	4c16      	ldr	r4, [pc, #88]	; (2ed0 <stopRecording+0x68>)
    2e78:	f022 0208 	bic.w	r2, r2, #8
    2e7c:	601a      	str	r2, [r3, #0]
    2e7e:	681a      	ldr	r2, [r3, #0]
    2e80:	f042 0202 	orr.w	r2, r2, #2
    2e84:	601a      	str	r2, [r3, #0]
    2e86:	4b13      	ldr	r3, [pc, #76]	; (2ed4 <stopRecording+0x6c>)
    2e88:	681b      	ldr	r3, [r3, #0]
    2e8a:	f8c4 3214 	str.w	r3, [r4, #532]	; 0x214
    2e8e:	4b12      	ldr	r3, [pc, #72]	; (2ed8 <stopRecording+0x70>)
    2e90:	681b      	ldr	r3, [r3, #0]
    2e92:	f8c4 3218 	str.w	r3, [r4, #536]	; 0x218
    2e96:	2201      	movs	r2, #1
    2e98:	f240 31ff 	movw	r1, #1023	; 0x3ff
    2e9c:	4b0f      	ldr	r3, [pc, #60]	; (2edc <stopRecording+0x74>)
    2e9e:	2000      	movs	r0, #0
    2ea0:	4798      	blx	r3
    2ea2:	2101      	movs	r1, #1
    2ea4:	4b0e      	ldr	r3, [pc, #56]	; (2ee0 <stopRecording+0x78>)
    2ea6:	f504 7001 	add.w	r0, r4, #516	; 0x204
    2eaa:	4798      	blx	r3
    2eac:	4b0d      	ldr	r3, [pc, #52]	; (2ee4 <stopRecording+0x7c>)
    2eae:	2000      	movs	r0, #0
    2eb0:	4798      	blx	r3
    2eb2:	2100      	movs	r1, #0
    2eb4:	4608      	mov	r0, r1
    2eb6:	4b0c      	ldr	r3, [pc, #48]	; (2ee8 <stopRecording+0x80>)
    2eb8:	4798      	blx	r3
    2eba:	4b0c      	ldr	r3, [pc, #48]	; (2eec <stopRecording+0x84>)
    2ebc:	2000      	movs	r0, #0
    2ebe:	4798      	blx	r3
    2ec0:	4b0b      	ldr	r3, [pc, #44]	; (2ef0 <stopRecording+0x88>)
    2ec2:	f44f 7200 	mov.w	r2, #512	; 0x200
    2ec6:	f8c3 2094 	str.w	r2, [r3, #148]	; 0x94
    2eca:	bd10      	pop	{r4, pc}
    2ecc:	20000028 	.word	0x20000028
    2ed0:	20000210 	.word	0x20000210
    2ed4:	20000bec 	.word	0x20000bec
    2ed8:	20000b44 	.word	0x20000b44
    2edc:	00003ae5 	.word	0x00003ae5
    2ee0:	00003b75 	.word	0x00003b75
    2ee4:	00003ba1 	.word	0x00003ba1
    2ee8:	00002bc1 	.word	0x00002bc1
    2eec:	00002c05 	.word	0x00002c05
    2ef0:	41008000 	.word	0x41008000

00002ef4 <recording>:
    2ef4:	4b5d      	ldr	r3, [pc, #372]	; (306c <recording+0x178>)
    2ef6:	485e      	ldr	r0, [pc, #376]	; (3070 <recording+0x17c>)
    2ef8:	f44f 7200 	mov.w	r2, #512	; 0x200
    2efc:	e92d 41f0 	stmdb	sp!, {r4, r5, r6, r7, r8, lr}
    2f00:	f8c3 2098 	str.w	r2, [r3, #152]	; 0x98
    2f04:	4b5b      	ldr	r3, [pc, #364]	; (3074 <recording+0x180>)
    2f06:	4c5c      	ldr	r4, [pc, #368]	; (3078 <recording+0x184>)
    2f08:	6802      	ldr	r2, [r0, #0]
    2f0a:	681d      	ldr	r5, [r3, #0]
    2f0c:	f8d4 1404 	ldr.w	r1, [r4, #1028]	; 0x404
    2f10:	442a      	add	r2, r5
    2f12:	428a      	cmp	r2, r1
    2f14:	4606      	mov	r6, r0
    2f16:	4619      	mov	r1, r3
    2f18:	d25f      	bcs.n	2fda <recording+0xe6>
    2f1a:	6802      	ldr	r2, [r0, #0]
    2f1c:	681f      	ldr	r7, [r3, #0]
    2f1e:	f8d4 5404 	ldr.w	r5, [r4, #1028]	; 0x404
    2f22:	443a      	add	r2, r7
    2f24:	3208      	adds	r2, #8
    2f26:	42aa      	cmp	r2, r5
    2f28:	4d54      	ldr	r5, [pc, #336]	; (307c <recording+0x188>)
    2f2a:	d258      	bcs.n	2fde <recording+0xea>
    2f2c:	f8d4 2410 	ldr.w	r2, [r4, #1040]	; 0x410
    2f30:	6801      	ldr	r1, [r0, #0]
    2f32:	6818      	ldr	r0, [r3, #0]
    2f34:	f8d4 6410 	ldr.w	r6, [r4, #1040]	; 0x410
    2f38:	681f      	ldr	r7, [r3, #0]
    2f3a:	4401      	add	r1, r0
    2f3c:	443a      	add	r2, r7
    2f3e:	fbb1 f0f6 	udiv	r0, r1, r6
    2f42:	fb06 1110 	mls	r1, r6, r0, r1
    2f46:	1a52      	subs	r2, r2, r1
    2f48:	601a      	str	r2, [r3, #0]
    2f4a:	6821      	ldr	r1, [r4, #0]
    2f4c:	6a22      	ldr	r2, [r4, #32]
    2f4e:	6828      	ldr	r0, [r5, #0]
    2f50:	f44f 737a 	mov.w	r3, #1000	; 0x3e8
    2f54:	4353      	muls	r3, r2
    2f56:	1a09      	subs	r1, r1, r0
    2f58:	4299      	cmp	r1, r3
    2f5a:	d305      	bcc.n	2f68 <recording+0x74>
    2f5c:	b122      	cbz	r2, 2f68 <recording+0x74>
    2f5e:	4848      	ldr	r0, [pc, #288]	; (3080 <recording+0x18c>)
    2f60:	6801      	ldr	r1, [r0, #0]
    2f62:	f041 0110 	orr.w	r1, r1, #16
    2f66:	6001      	str	r1, [r0, #0]
    2f68:	6821      	ldr	r1, [r4, #0]
    2f6a:	6828      	ldr	r0, [r5, #0]
    2f6c:	1a09      	subs	r1, r1, r0
    2f6e:	428b      	cmp	r3, r1
    2f70:	d333      	bcc.n	2fda <recording+0xe6>
    2f72:	6b23      	ldr	r3, [r4, #48]	; 0x30
    2f74:	2b01      	cmp	r3, #1
    2f76:	d130      	bne.n	2fda <recording+0xe6>
    2f78:	2a00      	cmp	r2, #0
    2f7a:	d02e      	beq.n	2fda <recording+0xe6>
    2f7c:	4941      	ldr	r1, [pc, #260]	; (3084 <recording+0x190>)
    2f7e:	680b      	ldr	r3, [r1, #0]
    2f80:	b35b      	cbz	r3, 2fda <recording+0xe6>
    2f82:	680b      	ldr	r3, [r1, #0]
    2f84:	2bff      	cmp	r3, #255	; 0xff
    2f86:	d828      	bhi.n	2fda <recording+0xe6>
    2f88:	4b3f      	ldr	r3, [pc, #252]	; (3088 <recording+0x194>)
    2f8a:	881b      	ldrh	r3, [r3, #0]
    2f8c:	680a      	ldr	r2, [r1, #0]
    2f8e:	b29b      	uxth	r3, r3
    2f90:	4293      	cmp	r3, r2
    2f92:	d322      	bcc.n	2fda <recording+0xe6>
    2f94:	4b3d      	ldr	r3, [pc, #244]	; (308c <recording+0x198>)
    2f96:	6820      	ldr	r0, [r4, #0]
    2f98:	682d      	ldr	r5, [r5, #0]
    2f9a:	881b      	ldrh	r3, [r3, #0]
    2f9c:	f8d4 2414 	ldr.w	r2, [r4, #1044]	; 0x414
    2fa0:	b29b      	uxth	r3, r3
    2fa2:	fb02 3303 	mla	r3, r2, r3, r3
    2fa6:	f44f 727a 	mov.w	r2, #1000	; 0x3e8
    2faa:	1b40      	subs	r0, r0, r5
    2fac:	4353      	muls	r3, r2
    2fae:	4298      	cmp	r0, r3
    2fb0:	d313      	bcc.n	2fda <recording+0xe6>
    2fb2:	4b37      	ldr	r3, [pc, #220]	; (3090 <recording+0x19c>)
    2fb4:	8818      	ldrh	r0, [r3, #0]
    2fb6:	4b37      	ldr	r3, [pc, #220]	; (3094 <recording+0x1a0>)
    2fb8:	f8d4 5414 	ldr.w	r5, [r4, #1044]	; 0x414
    2fbc:	881a      	ldrh	r2, [r3, #0]
    2fbe:	b293      	uxth	r3, r2
    2fc0:	fb05 3303 	mla	r3, r5, r3, r3
    2fc4:	fa13 f380 	uxtah	r3, r3, r0
    2fc8:	600b      	str	r3, [r1, #0]
    2fca:	6808      	ldr	r0, [r1, #0]
    2fcc:	4b32      	ldr	r3, [pc, #200]	; (3098 <recording+0x1a4>)
    2fce:	4798      	blx	r3
    2fd0:	f8d4 3414 	ldr.w	r3, [r4, #1044]	; 0x414
    2fd4:	3301      	adds	r3, #1
    2fd6:	f8c4 3414 	str.w	r3, [r4, #1044]	; 0x414
    2fda:	e8bd 81f0 	ldmia.w	sp!, {r4, r5, r6, r7, r8, pc}
    2fde:	6800      	ldr	r0, [r0, #0]
    2fe0:	681b      	ldr	r3, [r3, #0]
    2fe2:	4f27      	ldr	r7, [pc, #156]	; (3080 <recording+0x18c>)
    2fe4:	f8df 80cc 	ldr.w	r8, [pc, #204]	; 30b4 <recording+0x1c0>
    2fe8:	4418      	add	r0, r3
    2fea:	4b2c      	ldr	r3, [pc, #176]	; (309c <recording+0x1a8>)
    2fec:	f44f 42a0 	mov.w	r2, #20480	; 0x5000
    2ff0:	f000 0007 	and.w	r0, r0, #7
    2ff4:	fb02 3000 	mla	r0, r2, r0, r3
    2ff8:	4b29      	ldr	r3, [pc, #164]	; (30a0 <recording+0x1ac>)
    2ffa:	6018      	str	r0, [r3, #0]
    2ffc:	6a03      	ldr	r3, [r0, #32]
    2ffe:	f203 232f 	addw	r3, r3, #559	; 0x22f
    3002:	0a5b      	lsrs	r3, r3, #9
    3004:	607b      	str	r3, [r7, #4]
    3006:	687b      	ldr	r3, [r7, #4]
    3008:	2b28      	cmp	r3, #40	; 0x28
    300a:	bf84      	itt	hi
    300c:	2328      	movhi	r3, #40	; 0x28
    300e:	607b      	strhi	r3, [r7, #4]
    3010:	6833      	ldr	r3, [r6, #0]
    3012:	6143      	str	r3, [r0, #20]
    3014:	680b      	ldr	r3, [r1, #0]
    3016:	6183      	str	r3, [r0, #24]
    3018:	6823      	ldr	r3, [r4, #0]
    301a:	682a      	ldr	r2, [r5, #0]
    301c:	1a9b      	subs	r3, r3, r2
    301e:	6243      	str	r3, [r0, #36]	; 0x24
    3020:	6833      	ldr	r3, [r6, #0]
    3022:	680a      	ldr	r2, [r1, #0]
    3024:	2164      	movs	r1, #100	; 0x64
    3026:	4413      	add	r3, r2
    3028:	fbb3 f2f1 	udiv	r2, r3, r1
    302c:	fb01 3312 	mls	r3, r1, r2, r3
    3030:	6822      	ldr	r2, [r4, #0]
    3032:	6829      	ldr	r1, [r5, #0]
    3034:	1a52      	subs	r2, r2, r1
    3036:	491b      	ldr	r1, [pc, #108]	; (30a4 <recording+0x1b0>)
    3038:	f841 2023 	str.w	r2, [r1, r3, lsl #2]
    303c:	6879      	ldr	r1, [r7, #4]
    303e:	4b1a      	ldr	r3, [pc, #104]	; (30a8 <recording+0x1b4>)
    3040:	0249      	lsls	r1, r1, #9
    3042:	2223      	movs	r2, #35	; 0x23
    3044:	f401 417e 	and.w	r1, r1, #65024	; 0xfe00
    3048:	4798      	blx	r3
    304a:	68b9      	ldr	r1, [r7, #8]
    304c:	4a17      	ldr	r2, [pc, #92]	; (30ac <recording+0x1b8>)
    304e:	687b      	ldr	r3, [r7, #4]
    3050:	2000      	movs	r0, #0
    3052:	47c0      	blx	r8
    3054:	4b16      	ldr	r3, [pc, #88]	; (30b0 <recording+0x1bc>)
    3056:	2000      	movs	r0, #0
    3058:	4798      	blx	r3
    305a:	687b      	ldr	r3, [r7, #4]
    305c:	68ba      	ldr	r2, [r7, #8]
    305e:	4413      	add	r3, r2
    3060:	60bb      	str	r3, [r7, #8]
    3062:	6833      	ldr	r3, [r6, #0]
    3064:	3301      	adds	r3, #1
    3066:	6033      	str	r3, [r6, #0]
    3068:	e76f      	b.n	2f4a <recording+0x56>
    306a:	bf00      	nop
    306c:	41008000 	.word	0x41008000
    3070:	20000bec 	.word	0x20000bec
    3074:	20000b44 	.word	0x20000b44
    3078:	20000210 	.word	0x20000210
    307c:	20000bd4 	.word	0x20000bd4
    3080:	20000028 	.word	0x20000028
    3084:	20029260 	.word	0x20029260
    3088:	20000bd8 	.word	0x20000bd8
    308c:	2002925e 	.word	0x2002925e
    3090:	20000be8 	.word	0x20000be8
    3094:	2002925c 	.word	0x2002925c
    3098:	00002c05 	.word	0x00002c05
    309c:	20000bf8 	.word	0x20000bf8
    30a0:	20000bd0 	.word	0x20000bd0
    30a4:	20029264 	.word	0x20029264
    30a8:	00002ba1 	.word	0x00002ba1
    30ac:	20029250 	.word	0x20029250
    30b0:	00003ab9 	.word	0x00003ab9
    30b4:	00003a01 	.word	0x00003a01

000030b8 <main>:
    30b8:	b5f8      	push	{r3, r4, r5, r6, r7, lr}
    30ba:	4c71      	ldr	r4, [pc, #452]	; (3280 <main+0x1c8>)
    30bc:	4e71      	ldr	r6, [pc, #452]	; (3284 <main+0x1cc>)
    30be:	4d72      	ldr	r5, [pc, #456]	; (3288 <main+0x1d0>)
    30c0:	2312      	movs	r3, #18
    30c2:	f8c4 3410 	str.w	r3, [r4, #1040]	; 0x410
    30c6:	f8d4 3410 	ldr.w	r3, [r4, #1040]	; 0x410
    30ca:	3301      	adds	r3, #1
    30cc:	f8c4 3410 	str.w	r3, [r4, #1040]	; 0x410
    30d0:	4b6e      	ldr	r3, [pc, #440]	; (328c <main+0x1d4>)
    30d2:	4798      	blx	r3
    30d4:	4b6e      	ldr	r3, [pc, #440]	; (3290 <main+0x1d8>)
    30d6:	486f      	ldr	r0, [pc, #444]	; (3294 <main+0x1dc>)
    30d8:	2202      	movs	r2, #2
    30da:	731a      	strb	r2, [r3, #12]
    30dc:	f04f 7380 	mov.w	r3, #16777216	; 0x1000000
    30e0:	2100      	movs	r1, #0
    30e2:	61b3      	str	r3, [r6, #24]
    30e4:	4b6c      	ldr	r3, [pc, #432]	; (3298 <main+0x1e0>)
    30e6:	4798      	blx	r3
    30e8:	4b6c      	ldr	r3, [pc, #432]	; (329c <main+0x1e4>)
    30ea:	4798      	blx	r3
    30ec:	4a6c      	ldr	r2, [pc, #432]	; (32a0 <main+0x1e8>)
    30ee:	f8c4 2424 	str.w	r2, [r4, #1060]	; 0x424
    30f2:	f44f 72fa 	mov.w	r2, #500	; 0x1f4
    30f6:	2301      	movs	r3, #1
    30f8:	f8c4 2434 	str.w	r2, [r4, #1076]	; 0x434
    30fc:	f504 6183 	add.w	r1, r4, #1048	; 0x418
    3100:	4a68      	ldr	r2, [pc, #416]	; (32a4 <main+0x1ec>)
    3102:	4869      	ldr	r0, [pc, #420]	; (32a8 <main+0x1f0>)
    3104:	f8c4 2438 	str.w	r2, [r4, #1080]	; 0x438
    3108:	f8c4 3420 	str.w	r3, [r4, #1056]	; 0x420
    310c:	f884 3428 	strb.w	r3, [r4, #1064]	; 0x428
    3110:	f884 343c 	strb.w	r3, [r4, #1084]	; 0x43c
    3114:	47a8      	blx	r5
    3116:	f204 412c 	addw	r1, r4, #1068	; 0x42c
    311a:	4863      	ldr	r0, [pc, #396]	; (32a8 <main+0x1f0>)
    311c:	47a8      	blx	r5
    311e:	4b63      	ldr	r3, [pc, #396]	; (32ac <main+0x1f4>)
    3120:	4861      	ldr	r0, [pc, #388]	; (32a8 <main+0x1f0>)
    3122:	4d63      	ldr	r5, [pc, #396]	; (32b0 <main+0x1f8>)
    3124:	4798      	blx	r3
    3126:	4963      	ldr	r1, [pc, #396]	; (32b4 <main+0x1fc>)
    3128:	2036      	movs	r0, #54	; 0x36
    312a:	47a8      	blx	r5
    312c:	4962      	ldr	r1, [pc, #392]	; (32b8 <main+0x200>)
    312e:	2037      	movs	r0, #55	; 0x37
    3130:	47a8      	blx	r5
    3132:	4962      	ldr	r1, [pc, #392]	; (32bc <main+0x204>)
    3134:	202e      	movs	r0, #46	; 0x2e
    3136:	47a8      	blx	r5
    3138:	4961      	ldr	r1, [pc, #388]	; (32c0 <main+0x208>)
    313a:	2019      	movs	r0, #25
    313c:	47a8      	blx	r5
    313e:	4b61      	ldr	r3, [pc, #388]	; (32c4 <main+0x20c>)
    3140:	4d61      	ldr	r5, [pc, #388]	; (32c8 <main+0x210>)
    3142:	4798      	blx	r3
    3144:	f44f 7300 	mov.w	r3, #512	; 0x200
    3148:	f8c6 3094 	str.w	r3, [r6, #148]	; 0x94
    314c:	2000      	movs	r0, #0
    314e:	47a8      	blx	r5
    3150:	2800      	cmp	r0, #0
    3152:	d1fb      	bne.n	314c <main+0x94>
    3154:	4b5d      	ldr	r3, [pc, #372]	; (32cc <main+0x214>)
    3156:	4d5e      	ldr	r5, [pc, #376]	; (32d0 <main+0x218>)
    3158:	4e4a      	ldr	r6, [pc, #296]	; (3284 <main+0x1cc>)
    315a:	4798      	blx	r3
    315c:	682b      	ldr	r3, [r5, #0]
    315e:	4a5d      	ldr	r2, [pc, #372]	; (32d4 <main+0x21c>)
    3160:	2801      	cmp	r0, #1
    3162:	bf0c      	ite	eq
    3164:	f043 0340 	orreq.w	r3, r3, #64	; 0x40
    3168:	f043 0380 	orrne.w	r3, r3, #128	; 0x80
    316c:	602b      	str	r3, [r5, #0]
    316e:	f04f 438a 	mov.w	r3, #1157627904	; 0x45000000
    3172:	f44f 5700 	mov.w	r7, #8192	; 0x2000
    3176:	6c19      	ldr	r1, [r3, #64]	; 0x40
    3178:	6011      	str	r1, [r2, #0]
    317a:	6c59      	ldr	r1, [r3, #68]	; 0x44
    317c:	6051      	str	r1, [r2, #4]
    317e:	f893 1028 	ldrb.w	r1, [r3, #40]	; 0x28
    3182:	b2c9      	uxtb	r1, r1
    3184:	6091      	str	r1, [r2, #8]
    3186:	f893 2028 	ldrb.w	r2, [r3, #40]	; 0x28
    318a:	f042 0210 	orr.w	r2, r2, #16
    318e:	f883 2028 	strb.w	r2, [r3, #40]	; 0x28
    3192:	f44f 707a 	mov.w	r0, #1000	; 0x3e8
    3196:	f8c6 7094 	str.w	r7, [r6, #148]	; 0x94
    319a:	4b4f      	ldr	r3, [pc, #316]	; (32d8 <main+0x220>)
    319c:	4798      	blx	r3
    319e:	f8c6 7098 	str.w	r7, [r6, #152]	; 0x98
    31a2:	4b4e      	ldr	r3, [pc, #312]	; (32dc <main+0x224>)
    31a4:	4f4e      	ldr	r7, [pc, #312]	; (32e0 <main+0x228>)
    31a6:	4e4f      	ldr	r6, [pc, #316]	; (32e4 <main+0x22c>)
    31a8:	f44f 707a 	mov.w	r0, #1000	; 0x3e8
    31ac:	4798      	blx	r3
    31ae:	2000      	movs	r0, #0
    31b0:	47b8      	blx	r7
    31b2:	4b4d      	ldr	r3, [pc, #308]	; (32e8 <main+0x230>)
    31b4:	69e2      	ldr	r2, [r4, #28]
    31b6:	8030      	strh	r0, [r6, #0]
    31b8:	601a      	str	r2, [r3, #0]
    31ba:	4b4c      	ldr	r3, [pc, #304]	; (32ec <main+0x234>)
    31bc:	6ae2      	ldr	r2, [r4, #44]	; 0x2c
    31be:	601a      	str	r2, [r3, #0]
    31c0:	4b4b      	ldr	r3, [pc, #300]	; (32f0 <main+0x238>)
    31c2:	69a2      	ldr	r2, [r4, #24]
    31c4:	601a      	str	r2, [r3, #0]
    31c6:	4b4b      	ldr	r3, [pc, #300]	; (32f4 <main+0x23c>)
    31c8:	6a62      	ldr	r2, [r4, #36]	; 0x24
    31ca:	601a      	str	r2, [r3, #0]
    31cc:	4b4a      	ldr	r3, [pc, #296]	; (32f8 <main+0x240>)
    31ce:	6aa2      	ldr	r2, [r4, #40]	; 0x28
    31d0:	601a      	str	r2, [r3, #0]
    31d2:	4b4a      	ldr	r3, [pc, #296]	; (32fc <main+0x244>)
    31d4:	6a22      	ldr	r2, [r4, #32]
    31d6:	601a      	str	r2, [r3, #0]
    31d8:	6b23      	ldr	r3, [r4, #48]	; 0x30
    31da:	4a49      	ldr	r2, [pc, #292]	; (3300 <main+0x248>)
    31dc:	b29b      	uxth	r3, r3
    31de:	8013      	strh	r3, [r2, #0]
    31e0:	6b63      	ldr	r3, [r4, #52]	; 0x34
    31e2:	4a48      	ldr	r2, [pc, #288]	; (3304 <main+0x24c>)
    31e4:	b29b      	uxth	r3, r3
    31e6:	8013      	strh	r3, [r2, #0]
    31e8:	6ba3      	ldr	r3, [r4, #56]	; 0x38
    31ea:	4a47      	ldr	r2, [pc, #284]	; (3308 <main+0x250>)
    31ec:	b29b      	uxth	r3, r3
    31ee:	8013      	strh	r3, [r2, #0]
    31f0:	6be3      	ldr	r3, [r4, #60]	; 0x3c
    31f2:	4a46      	ldr	r2, [pc, #280]	; (330c <main+0x254>)
    31f4:	b29b      	uxth	r3, r3
    31f6:	8013      	strh	r3, [r2, #0]
    31f8:	6c23      	ldr	r3, [r4, #64]	; 0x40
    31fa:	4a45      	ldr	r2, [pc, #276]	; (3310 <main+0x258>)
    31fc:	b29b      	uxth	r3, r3
    31fe:	8013      	strh	r3, [r2, #0]
    3200:	4b44      	ldr	r3, [pc, #272]	; (3314 <main+0x25c>)
    3202:	4798      	blx	r3
    3204:	4b44      	ldr	r3, [pc, #272]	; (3318 <main+0x260>)
    3206:	4798      	blx	r3
    3208:	2000      	movs	r0, #0
    320a:	47b8      	blx	r7
    320c:	f44f 7398 	mov.w	r3, #304	; 0x130
    3210:	f8c4 3204 	str.w	r3, [r4, #516]	; 0x204
    3214:	f8c4 3208 	str.w	r3, [r4, #520]	; 0x208
    3218:	6a63      	ldr	r3, [r4, #36]	; 0x24
    321a:	8030      	strh	r0, [r6, #0]
    321c:	f8c4 320c 	str.w	r3, [r4, #524]	; 0x20c
    3220:	2600      	movs	r6, #0
    3222:	f44f 43a0 	mov.w	r3, #20480	; 0x5000
    3226:	2201      	movs	r2, #1
    3228:	f8c4 3210 	str.w	r3, [r4, #528]	; 0x210
    322c:	f8c4 6214 	str.w	r6, [r4, #532]	; 0x214
    3230:	f8c4 6218 	str.w	r6, [r4, #536]	; 0x218
    3234:	f240 31ff 	movw	r1, #1023	; 0x3ff
    3238:	4630      	mov	r0, r6
    323a:	4b38      	ldr	r3, [pc, #224]	; (331c <main+0x264>)
    323c:	4c38      	ldr	r4, [pc, #224]	; (3320 <main+0x268>)
    323e:	4798      	blx	r3
    3240:	2101      	movs	r1, #1
    3242:	4b38      	ldr	r3, [pc, #224]	; (3324 <main+0x26c>)
    3244:	4838      	ldr	r0, [pc, #224]	; (3328 <main+0x270>)
    3246:	4798      	blx	r3
    3248:	4630      	mov	r0, r6
    324a:	4b38      	ldr	r3, [pc, #224]	; (332c <main+0x274>)
    324c:	4e38      	ldr	r6, [pc, #224]	; (3330 <main+0x278>)
    324e:	4798      	blx	r3
    3250:	4b38      	ldr	r3, [pc, #224]	; (3334 <main+0x27c>)
    3252:	2202      	movs	r2, #2
    3254:	f883 204d 	strb.w	r2, [r3, #77]	; 0x4d
    3258:	4b37      	ldr	r3, [pc, #220]	; (3338 <main+0x280>)
    325a:	4a38      	ldr	r2, [pc, #224]	; (333c <main+0x284>)
    325c:	611a      	str	r2, [r3, #16]
    325e:	4b38      	ldr	r3, [pc, #224]	; (3340 <main+0x288>)
    3260:	4a38      	ldr	r2, [pc, #224]	; (3344 <main+0x28c>)
    3262:	601a      	str	r2, [r3, #0]
    3264:	682b      	ldr	r3, [r5, #0]
    3266:	0759      	lsls	r1, r3, #29
    3268:	d500      	bpl.n	326c <main+0x1b4>
    326a:	47a0      	blx	r4
    326c:	682b      	ldr	r3, [r5, #0]
    326e:	071a      	lsls	r2, r3, #28
    3270:	d500      	bpl.n	3274 <main+0x1bc>
    3272:	47b0      	blx	r6
    3274:	682b      	ldr	r3, [r5, #0]
    3276:	06db      	lsls	r3, r3, #27
    3278:	d5f4      	bpl.n	3264 <main+0x1ac>
    327a:	4b33      	ldr	r3, [pc, #204]	; (3348 <main+0x290>)
    327c:	4798      	blx	r3
    327e:	e7f1      	b.n	3264 <main+0x1ac>
    3280:	20000210 	.word	0x20000210
    3284:	41008000 	.word	0x41008000
    3288:	00000d95 	.word	0x00000d95
    328c:	000002d1 	.word	0x000002d1
    3290:	40003800 	.word	0x40003800
    3294:	200006c8 	.word	0x200006c8
    3298:	00000995 	.word	0x00000995
    329c:	00002199 	.word	0x00002199
    32a0:	0000221d 	.word	0x0000221d
    32a4:	00002281 	.word	0x00002281
    32a8:	200006e8 	.word	0x200006e8
    32ac:	00000d71 	.word	0x00000d71
    32b0:	00000b11 	.word	0x00000b11
    32b4:	00002301 	.word	0x00002301
    32b8:	000022a9 	.word	0x000022a9
    32bc:	00002cd1 	.word	0x00002cd1
    32c0:	00002275 	.word	0x00002275
    32c4:	00002c11 	.word	0x00002c11
    32c8:	000034e5 	.word	0x000034e5
    32cc:	00002ac5 	.word	0x00002ac5
    32d0:	20000028 	.word	0x20000028
    32d4:	20028bf8 	.word	0x20028bf8
    32d8:	00000a81 	.word	0x00000a81
    32dc:	00000a5d 	.word	0x00000a5d
    32e0:	0000245d 	.word	0x0000245d
    32e4:	20000b30 	.word	0x20000b30
    32e8:	20029260 	.word	0x20029260
    32ec:	20000b34 	.word	0x20000b34
    32f0:	20000bdc 	.word	0x20000bdc
    32f4:	20000be0 	.word	0x20000be0
    32f8:	20029258 	.word	0x20029258
    32fc:	20000bf0 	.word	0x20000bf0
    3300:	20029248 	.word	0x20029248
    3304:	20000be8 	.word	0x20000be8
    3308:	20000bd8 	.word	0x20000bd8
    330c:	2002925c 	.word	0x2002925c
    3310:	2002925e 	.word	0x2002925e
    3314:	00002a75 	.word	0x00002a75
    3318:	00002aa5 	.word	0x00002aa5
    331c:	00003ae5 	.word	0x00003ae5
    3320:	00002dd5 	.word	0x00002dd5
    3324:	00003b75 	.word	0x00003b75
    3328:	20000414 	.word	0x20000414
    332c:	00003ba1 	.word	0x00003ba1
    3330:	00002ef5 	.word	0x00002ef5
    3334:	4100a000 	.word	0x4100a000
    3338:	200006b4 	.word	0x200006b4
    333c:	00002b75 	.word	0x00002b75
    3340:	43002c00 	.word	0x43002c00
    3344:	c0000020 	.word	0xc0000020
    3348:	00002e69 	.word	0x00002e69

0000334c <SDMMC_UNSTUFF_BITS>:
    334c:	b570      	push	{r4, r5, r6, lr}
    334e:	1a89      	subs	r1, r1, r2
    3350:	2408      	movs	r4, #8
    3352:	3107      	adds	r1, #7
    3354:	fb91 f1f4 	sdiv	r1, r1, r4
    3358:	4408      	add	r0, r1
    335a:	f002 0207 	and.w	r2, r2, #7
    335e:	f810 1c01 	ldrb.w	r1, [r0, #-1]
    3362:	18d4      	adds	r4, r2, r3
    3364:	2c08      	cmp	r4, #8
    3366:	fa41 f102 	asr.w	r1, r1, r2
    336a:	dd18      	ble.n	339e <SDMMC_UNSTUFF_BITS+0x52>
    336c:	f810 5c02 	ldrb.w	r5, [r0, #-2]
    3370:	f1c2 0608 	rsb	r6, r2, #8
    3374:	40b5      	lsls	r5, r6
    3376:	2c10      	cmp	r4, #16
    3378:	ea41 0105 	orr.w	r1, r1, r5
    337c:	dd0f      	ble.n	339e <SDMMC_UNSTUFF_BITS+0x52>
    337e:	f810 0c03 	ldrb.w	r0, [r0, #-3]
    3382:	f1c2 0510 	rsb	r5, r2, #16
    3386:	2c18      	cmp	r4, #24
    3388:	bfc8      	it	gt
    338a:	f1c2 0218 	rsbgt	r2, r2, #24
    338e:	fa00 f505 	lsl.w	r5, r0, r5
    3392:	ea41 0105 	orr.w	r1, r1, r5
    3396:	bfc4      	itt	gt
    3398:	fa00 f202 	lslgt.w	r2, r0, r2
    339c:	4311      	orrgt	r1, r2
    339e:	2001      	movs	r0, #1
    33a0:	4098      	lsls	r0, r3
    33a2:	3801      	subs	r0, #1
    33a4:	4008      	ands	r0, r1
    33a6:	bd70      	pop	{r4, r5, r6, pc}

000033a8 <gpio_get_pin_level>:
    33a8:	b537      	push	{r0, r1, r2, r4, r5, lr}
    33aa:	4b0e      	ldr	r3, [pc, #56]	; (33e4 <gpio_get_pin_level+0x3c>)
    33ac:	4605      	mov	r5, r0
    33ae:	a801      	add	r0, sp, #4
    33b0:	4798      	blx	r3
    33b2:	096b      	lsrs	r3, r5, #5
    33b4:	490c      	ldr	r1, [pc, #48]	; (33e8 <gpio_get_pin_level+0x40>)
    33b6:	01db      	lsls	r3, r3, #7
    33b8:	18ca      	adds	r2, r1, r3
    33ba:	58c9      	ldr	r1, [r1, r3]
    33bc:	6a13      	ldr	r3, [r2, #32]
    33be:	6914      	ldr	r4, [r2, #16]
    33c0:	405c      	eors	r4, r3
    33c2:	400c      	ands	r4, r1
    33c4:	a801      	add	r0, sp, #4
    33c6:	405c      	eors	r4, r3
    33c8:	4b08      	ldr	r3, [pc, #32]	; (33ec <gpio_get_pin_level+0x44>)
    33ca:	4798      	blx	r3
    33cc:	f005 051f 	and.w	r5, r5, #31
    33d0:	2301      	movs	r3, #1
    33d2:	fa03 f505 	lsl.w	r5, r3, r5
    33d6:	4225      	tst	r5, r4
    33d8:	bf14      	ite	ne
    33da:	4618      	movne	r0, r3
    33dc:	2000      	moveq	r0, #0
    33de:	b003      	add	sp, #12
    33e0:	bd30      	pop	{r4, r5, pc}
    33e2:	bf00      	nop
    33e4:	00000a11 	.word	0x00000a11
    33e8:	41008000 	.word	0x41008000
    33ec:	00000a1f 	.word	0x00000a1f

000033f0 <sd_mmc_configure_slot>:
    33f0:	b513      	push	{r0, r1, r4, lr}
    33f2:	4807      	ldr	r0, [pc, #28]	; (3410 <sd_mmc_configure_slot+0x20>)
    33f4:	6802      	ldr	r2, [r0, #0]
    33f6:	7901      	ldrb	r1, [r0, #4]
    33f8:	7f94      	ldrb	r4, [r2, #30]
    33fa:	7b53      	ldrb	r3, [r2, #13]
    33fc:	3400      	adds	r4, #0
    33fe:	bf18      	it	ne
    3400:	2401      	movne	r4, #1
    3402:	9400      	str	r4, [sp, #0]
    3404:	6812      	ldr	r2, [r2, #0]
    3406:	4c03      	ldr	r4, [pc, #12]	; (3414 <sd_mmc_configure_slot+0x24>)
    3408:	6880      	ldr	r0, [r0, #8]
    340a:	47a0      	blx	r4
    340c:	b002      	add	sp, #8
    340e:	bd10      	pop	{r4, pc}
    3410:	2000065c 	.word	0x2000065c
    3414:	00000b9d 	.word	0x00000b9d

00003418 <sd_mmc_deselect_slot>:
    3418:	4b03      	ldr	r3, [pc, #12]	; (3428 <sd_mmc_deselect_slot+0x10>)
    341a:	7919      	ldrb	r1, [r3, #4]
    341c:	b911      	cbnz	r1, 3424 <sd_mmc_deselect_slot+0xc>
    341e:	6898      	ldr	r0, [r3, #8]
    3420:	4b02      	ldr	r3, [pc, #8]	; (342c <sd_mmc_deselect_slot+0x14>)
    3422:	4718      	bx	r3
    3424:	4770      	bx	lr
    3426:	bf00      	nop
    3428:	2000065c 	.word	0x2000065c
    342c:	00000bb5 	.word	0x00000bb5

00003430 <sd_mmc_select_slot>:
    3430:	b570      	push	{r4, r5, r6, lr}
    3432:	4606      	mov	r6, r0
    3434:	2800      	cmp	r0, #0
    3436:	d13c      	bne.n	34b2 <sd_mmc_select_slot+0x82>
    3438:	4d1f      	ldr	r5, [pc, #124]	; (34b8 <sd_mmc_select_slot+0x88>)
    343a:	68eb      	ldr	r3, [r5, #12]
    343c:	462c      	mov	r4, r5
    343e:	b303      	cbz	r3, 3482 <sd_mmc_select_slot+0x52>
    3440:	f9b3 0000 	ldrsh.w	r0, [r3]
    3444:	1c42      	adds	r2, r0, #1
    3446:	d01c      	beq.n	3482 <sd_mmc_select_slot+0x52>
    3448:	4b1c      	ldr	r3, [pc, #112]	; (34bc <sd_mmc_select_slot+0x8c>)
    344a:	b2c0      	uxtb	r0, r0
    344c:	4798      	blx	r3
    344e:	68eb      	ldr	r3, [r5, #12]
    3450:	885b      	ldrh	r3, [r3, #2]
    3452:	4298      	cmp	r0, r3
    3454:	d003      	beq.n	345e <sd_mmc_select_slot+0x2e>
    3456:	2304      	movs	r3, #4
    3458:	76ab      	strb	r3, [r5, #26]
    345a:	2002      	movs	r0, #2
    345c:	bd70      	pop	{r4, r5, r6, pc}
    345e:	7eab      	ldrb	r3, [r5, #26]
    3460:	2b04      	cmp	r3, #4
    3462:	d101      	bne.n	3468 <sd_mmc_select_slot+0x38>
    3464:	2301      	movs	r3, #1
    3466:	e7f7      	b.n	3458 <sd_mmc_select_slot+0x28>
    3468:	2b01      	cmp	r3, #1
    346a:	d106      	bne.n	347a <sd_mmc_select_slot+0x4a>
    346c:	2202      	movs	r2, #2
    346e:	76aa      	strb	r2, [r5, #26]
    3470:	4a13      	ldr	r2, [pc, #76]	; (34c0 <sd_mmc_select_slot+0x90>)
    3472:	612a      	str	r2, [r5, #16]
    3474:	776b      	strb	r3, [r5, #29]
    3476:	f885 602e 	strb.w	r6, [r5, #46]	; 0x2e
    347a:	7ea0      	ldrb	r0, [r4, #26]
    347c:	2803      	cmp	r0, #3
    347e:	d10d      	bne.n	349c <sd_mmc_select_slot+0x6c>
    3480:	bd70      	pop	{r4, r5, r6, pc}
    3482:	7ea3      	ldrb	r3, [r4, #26]
    3484:	3b03      	subs	r3, #3
    3486:	2b01      	cmp	r3, #1
    3488:	d808      	bhi.n	349c <sd_mmc_select_slot+0x6c>
    348a:	2302      	movs	r3, #2
    348c:	76a3      	strb	r3, [r4, #26]
    348e:	4b0c      	ldr	r3, [pc, #48]	; (34c0 <sd_mmc_select_slot+0x90>)
    3490:	6123      	str	r3, [r4, #16]
    3492:	2301      	movs	r3, #1
    3494:	7763      	strb	r3, [r4, #29]
    3496:	2300      	movs	r3, #0
    3498:	f884 302e 	strb.w	r3, [r4, #46]	; 0x2e
    349c:	2300      	movs	r3, #0
    349e:	7123      	strb	r3, [r4, #4]
    34a0:	4b08      	ldr	r3, [pc, #32]	; (34c4 <sd_mmc_select_slot+0x94>)
    34a2:	6023      	str	r3, [r4, #0]
    34a4:	4b08      	ldr	r3, [pc, #32]	; (34c8 <sd_mmc_select_slot+0x98>)
    34a6:	4798      	blx	r3
    34a8:	7ea0      	ldrb	r0, [r4, #26]
    34aa:	1e83      	subs	r3, r0, #2
    34ac:	4258      	negs	r0, r3
    34ae:	4158      	adcs	r0, r3
    34b0:	bd70      	pop	{r4, r5, r6, pc}
    34b2:	2004      	movs	r0, #4
    34b4:	bd70      	pop	{r4, r5, r6, pc}
    34b6:	bf00      	nop
    34b8:	2000065c 	.word	0x2000065c
    34bc:	000033a9 	.word	0x000033a9
    34c0:	00061a80 	.word	0x00061a80
    34c4:	2000066c 	.word	0x2000066c
    34c8:	000033f1 	.word	0x000033f1

000034cc <sd_mmc_init>:
    34cc:	b510      	push	{r4, lr}
    34ce:	4b04      	ldr	r3, [pc, #16]	; (34e0 <sd_mmc_init+0x14>)
    34d0:	2404      	movs	r4, #4
    34d2:	769c      	strb	r4, [r3, #26]
    34d4:	24ff      	movs	r4, #255	; 0xff
    34d6:	711c      	strb	r4, [r3, #4]
    34d8:	6098      	str	r0, [r3, #8]
    34da:	60d9      	str	r1, [r3, #12]
    34dc:	631a      	str	r2, [r3, #48]	; 0x30
    34de:	bd10      	pop	{r4, pc}
    34e0:	2000065c 	.word	0x2000065c

000034e4 <sd_mmc_check>:
    34e4:	e92d 4ff0 	stmdb	sp!, {r4, r5, r6, r7, r8, r9, sl, fp, lr}
    34e8:	4b8a      	ldr	r3, [pc, #552]	; (3714 <sd_mmc_check+0x230>)
    34ea:	b095      	sub	sp, #84	; 0x54
    34ec:	4798      	blx	r3
    34ee:	2801      	cmp	r0, #1
    34f0:	4607      	mov	r7, r0
    34f2:	d005      	beq.n	3500 <sd_mmc_check+0x1c>
    34f4:	4b88      	ldr	r3, [pc, #544]	; (3718 <sd_mmc_check+0x234>)
    34f6:	4798      	blx	r3
    34f8:	4638      	mov	r0, r7
    34fa:	b015      	add	sp, #84	; 0x54
    34fc:	e8bd 8ff0 	ldmia.w	sp!, {r4, r5, r6, r7, r8, r9, sl, fp, pc}
    3500:	4c86      	ldr	r4, [pc, #536]	; (371c <sd_mmc_check+0x238>)
    3502:	4e87      	ldr	r6, [pc, #540]	; (3720 <sd_mmc_check+0x23c>)
    3504:	6823      	ldr	r3, [r4, #0]
    3506:	2500      	movs	r5, #0
    3508:	72d8      	strb	r0, [r3, #11]
    350a:	731d      	strb	r5, [r3, #12]
    350c:	811d      	strh	r5, [r3, #8]
    350e:	68a0      	ldr	r0, [r4, #8]
    3510:	47b0      	blx	r6
    3512:	462a      	mov	r2, r5
    3514:	f44f 4180 	mov.w	r1, #16384	; 0x4000
    3518:	68a0      	ldr	r0, [r4, #8]
    351a:	4d82      	ldr	r5, [pc, #520]	; (3724 <sd_mmc_check+0x240>)
    351c:	47a8      	blx	r5
    351e:	46b2      	mov	sl, r6
    3520:	2800      	cmp	r0, #0
    3522:	f000 80dc 	beq.w	36de <sd_mmc_check+0x1fa>
    3526:	f44f 72d5 	mov.w	r2, #426	; 0x1aa
    352a:	f245 5108 	movw	r1, #21768	; 0x5508
    352e:	68a0      	ldr	r0, [r4, #8]
    3530:	47a8      	blx	r5
    3532:	2800      	cmp	r0, #0
    3534:	f000 8196 	beq.w	3864 <sd_mmc_check+0x380>
    3538:	4b7b      	ldr	r3, [pc, #492]	; (3728 <sd_mmc_check+0x244>)
    353a:	68a0      	ldr	r0, [r4, #8]
    353c:	4798      	blx	r3
    353e:	1c43      	adds	r3, r0, #1
    3540:	f000 8190 	beq.w	3864 <sd_mmc_check+0x380>
    3544:	f3c0 000b 	ubfx	r0, r0, #0, #12
    3548:	f5b0 7fd5 	cmp.w	r0, #426	; 0x1aa
    354c:	f040 80c7 	bne.w	36de <sd_mmc_check+0x1fa>
    3550:	463b      	mov	r3, r7
    3552:	6822      	ldr	r2, [r4, #0]
    3554:	7ad2      	ldrb	r2, [r2, #11]
    3556:	07d2      	lsls	r2, r2, #31
    3558:	d52a      	bpl.n	35b0 <sd_mmc_check+0xcc>
    355a:	2b00      	cmp	r3, #0
    355c:	4b73      	ldr	r3, [pc, #460]	; (372c <sd_mmc_check+0x248>)
    355e:	f8df 91c8 	ldr.w	r9, [pc, #456]	; 3728 <sd_mmc_check+0x244>
    3562:	bf14      	ite	ne
    3564:	4698      	movne	r8, r3
    3566:	f44f 18fc 	moveq.w	r8, #2064384	; 0x1f8000
    356a:	f640 0635 	movw	r6, #2101	; 0x835
    356e:	2200      	movs	r2, #0
    3570:	f241 1137 	movw	r1, #4407	; 0x1137
    3574:	68a0      	ldr	r0, [r4, #8]
    3576:	47a8      	blx	r5
    3578:	2800      	cmp	r0, #0
    357a:	f000 80a4 	beq.w	36c6 <sd_mmc_check+0x1e2>
    357e:	4642      	mov	r2, r8
    3580:	f244 5129 	movw	r1, #17705	; 0x4529
    3584:	68a0      	ldr	r0, [r4, #8]
    3586:	47a8      	blx	r5
    3588:	2800      	cmp	r0, #0
    358a:	f000 809c 	beq.w	36c6 <sd_mmc_check+0x1e2>
    358e:	68a0      	ldr	r0, [r4, #8]
    3590:	47c8      	blx	r9
    3592:	2800      	cmp	r0, #0
    3594:	f280 8094 	bge.w	36c0 <sd_mmc_check+0x1dc>
    3598:	0046      	lsls	r6, r0, #1
    359a:	d504      	bpl.n	35a6 <sd_mmc_check+0xc2>
    359c:	6822      	ldr	r2, [r4, #0]
    359e:	7ad3      	ldrb	r3, [r2, #11]
    35a0:	f043 0308 	orr.w	r3, r3, #8
    35a4:	72d3      	strb	r3, [r2, #11]
    35a6:	6823      	ldr	r3, [r4, #0]
    35a8:	7adb      	ldrb	r3, [r3, #11]
    35aa:	07d8      	lsls	r0, r3, #31
    35ac:	f100 808f 	bmi.w	36ce <sd_mmc_check+0x1ea>
    35b0:	2200      	movs	r2, #0
    35b2:	f245 1103 	movw	r1, #20739	; 0x5103
    35b6:	68a0      	ldr	r0, [r4, #8]
    35b8:	47a8      	blx	r5
    35ba:	2800      	cmp	r0, #0
    35bc:	f000 808f 	beq.w	36de <sd_mmc_check+0x1fa>
    35c0:	4e59      	ldr	r6, [pc, #356]	; (3728 <sd_mmc_check+0x244>)
    35c2:	68a0      	ldr	r0, [r4, #8]
    35c4:	f8d4 8000 	ldr.w	r8, [r4]
    35c8:	47b0      	blx	r6
    35ca:	6823      	ldr	r3, [r4, #0]
    35cc:	9603      	str	r6, [sp, #12]
    35ce:	0c00      	lsrs	r0, r0, #16
    35d0:	f8a8 0008 	strh.w	r0, [r8, #8]
    35d4:	7ada      	ldrb	r2, [r3, #11]
    35d6:	f012 0f01 	tst.w	r2, #1
    35da:	d037      	beq.n	364c <sd_mmc_check+0x168>
    35dc:	891a      	ldrh	r2, [r3, #8]
    35de:	68a0      	ldr	r0, [r4, #8]
    35e0:	0412      	lsls	r2, r2, #16
    35e2:	f641 3109 	movw	r1, #6921	; 0x1b09
    35e6:	47a8      	blx	r5
    35e8:	2800      	cmp	r0, #0
    35ea:	d078      	beq.n	36de <sd_mmc_check+0x1fa>
    35ec:	6821      	ldr	r1, [r4, #0]
    35ee:	68a0      	ldr	r0, [r4, #8]
    35f0:	4b4f      	ldr	r3, [pc, #316]	; (3730 <sd_mmc_check+0x24c>)
    35f2:	f8df 8150 	ldr.w	r8, [pc, #336]	; 3744 <sd_mmc_check+0x260>
    35f6:	310e      	adds	r1, #14
    35f8:	4798      	blx	r3
    35fa:	f8d4 b000 	ldr.w	fp, [r4]
    35fe:	f10b 090e 	add.w	r9, fp, #14
    3602:	2308      	movs	r3, #8
    3604:	2260      	movs	r2, #96	; 0x60
    3606:	2180      	movs	r1, #128	; 0x80
    3608:	4648      	mov	r0, r9
    360a:	47c0      	blx	r8
    360c:	4a49      	ldr	r2, [pc, #292]	; (3734 <sd_mmc_check+0x250>)
    360e:	f3c0 01c3 	ubfx	r1, r0, #3, #4
    3612:	f000 0007 	and.w	r0, r0, #7
    3616:	eb02 0080 	add.w	r0, r2, r0, lsl #2
    361a:	f44f 737a 	mov.w	r3, #1000	; 0x3e8
    361e:	6c00      	ldr	r0, [r0, #64]	; 0x40
    3620:	f852 2021 	ldr.w	r2, [r2, r1, lsl #2]
    3624:	4343      	muls	r3, r0
    3626:	4353      	muls	r3, r2
    3628:	f8cb 3000 	str.w	r3, [fp]
    362c:	227e      	movs	r2, #126	; 0x7e
    362e:	2302      	movs	r3, #2
    3630:	2180      	movs	r1, #128	; 0x80
    3632:	4648      	mov	r0, r9
    3634:	47c0      	blx	r8
    3636:	2800      	cmp	r0, #0
    3638:	d055      	beq.n	36e6 <sd_mmc_check+0x202>
    363a:	2316      	movs	r3, #22
    363c:	2230      	movs	r2, #48	; 0x30
    363e:	2180      	movs	r1, #128	; 0x80
    3640:	4648      	mov	r0, r9
    3642:	47c0      	blx	r8
    3644:	3001      	adds	r0, #1
    3646:	0240      	lsls	r0, r0, #9
    3648:	f8cb 0004 	str.w	r0, [fp, #4]
    364c:	6823      	ldr	r3, [r4, #0]
    364e:	68a0      	ldr	r0, [r4, #8]
    3650:	891a      	ldrh	r2, [r3, #8]
    3652:	f243 1107 	movw	r1, #12551	; 0x3107
    3656:	0412      	lsls	r2, r2, #16
    3658:	47a8      	blx	r5
    365a:	2800      	cmp	r0, #0
    365c:	d03f      	beq.n	36de <sd_mmc_check+0x1fa>
    365e:	6823      	ldr	r3, [r4, #0]
    3660:	7ada      	ldrb	r2, [r3, #11]
    3662:	07d1      	lsls	r1, r2, #31
    3664:	d575      	bpl.n	3752 <sd_mmc_check+0x26e>
    3666:	891a      	ldrh	r2, [r3, #8]
    3668:	68a0      	ldr	r0, [r4, #8]
    366a:	0412      	lsls	r2, r2, #16
    366c:	f241 1137 	movw	r1, #4407	; 0x1137
    3670:	47a8      	blx	r5
    3672:	2800      	cmp	r0, #0
    3674:	d033      	beq.n	36de <sd_mmc_check+0x1fa>
    3676:	2601      	movs	r6, #1
    3678:	9601      	str	r6, [sp, #4]
    367a:	9600      	str	r6, [sp, #0]
    367c:	2308      	movs	r3, #8
    367e:	2200      	movs	r2, #0
    3680:	492d      	ldr	r1, [pc, #180]	; (3738 <sd_mmc_check+0x254>)
    3682:	68a0      	ldr	r0, [r4, #8]
    3684:	f8df 80c0 	ldr.w	r8, [pc, #192]	; 3748 <sd_mmc_check+0x264>
    3688:	47c0      	blx	r8
    368a:	b340      	cbz	r0, 36de <sd_mmc_check+0x1fa>
    368c:	4632      	mov	r2, r6
    368e:	a904      	add	r1, sp, #16
    3690:	68a0      	ldr	r0, [r4, #8]
    3692:	4b2a      	ldr	r3, [pc, #168]	; (373c <sd_mmc_check+0x258>)
    3694:	4798      	blx	r3
    3696:	b310      	cbz	r0, 36de <sd_mmc_check+0x1fa>
    3698:	68a0      	ldr	r0, [r4, #8]
    369a:	4b29      	ldr	r3, [pc, #164]	; (3740 <sd_mmc_check+0x25c>)
    369c:	4798      	blx	r3
    369e:	b1f0      	cbz	r0, 36de <sd_mmc_check+0x1fa>
    36a0:	2304      	movs	r3, #4
    36a2:	2238      	movs	r2, #56	; 0x38
    36a4:	2140      	movs	r1, #64	; 0x40
    36a6:	a804      	add	r0, sp, #16
    36a8:	f8df 8098 	ldr.w	r8, [pc, #152]	; 3744 <sd_mmc_check+0x260>
    36ac:	47c0      	blx	r8
    36ae:	42b0      	cmp	r0, r6
    36b0:	d04c      	beq.n	374c <sd_mmc_check+0x268>
    36b2:	d302      	bcc.n	36ba <sd_mmc_check+0x1d6>
    36b4:	2802      	cmp	r0, #2
    36b6:	f000 80ca 	beq.w	384e <sd_mmc_check+0x36a>
    36ba:	6823      	ldr	r3, [r4, #0]
    36bc:	2210      	movs	r2, #16
    36be:	e047      	b.n	3750 <sd_mmc_check+0x26c>
    36c0:	3e01      	subs	r6, #1
    36c2:	f47f af54 	bne.w	356e <sd_mmc_check+0x8a>
    36c6:	6823      	ldr	r3, [r4, #0]
    36c8:	2200      	movs	r2, #0
    36ca:	72da      	strb	r2, [r3, #11]
    36cc:	e007      	b.n	36de <sd_mmc_check+0x1fa>
    36ce:	2200      	movs	r2, #0
    36d0:	f645 3102 	movw	r1, #23298	; 0x5b02
    36d4:	68a0      	ldr	r0, [r4, #8]
    36d6:	47a8      	blx	r5
    36d8:	2800      	cmp	r0, #0
    36da:	f47f af69 	bne.w	35b0 <sd_mmc_check+0xcc>
    36de:	6823      	ldr	r3, [r4, #0]
    36e0:	2703      	movs	r7, #3
    36e2:	729f      	strb	r7, [r3, #10]
    36e4:	e706      	b.n	34f4 <sd_mmc_check+0x10>
    36e6:	230c      	movs	r3, #12
    36e8:	223e      	movs	r2, #62	; 0x3e
    36ea:	2180      	movs	r1, #128	; 0x80
    36ec:	4648      	mov	r0, r9
    36ee:	47c0      	blx	r8
    36f0:	2303      	movs	r3, #3
    36f2:	4606      	mov	r6, r0
    36f4:	222f      	movs	r2, #47	; 0x2f
    36f6:	2180      	movs	r1, #128	; 0x80
    36f8:	4648      	mov	r0, r9
    36fa:	47c0      	blx	r8
    36fc:	3601      	adds	r6, #1
    36fe:	3002      	adds	r0, #2
    3700:	4086      	lsls	r6, r0
    3702:	2304      	movs	r3, #4
    3704:	2250      	movs	r2, #80	; 0x50
    3706:	2180      	movs	r1, #128	; 0x80
    3708:	4648      	mov	r0, r9
    370a:	47c0      	blx	r8
    370c:	fa06 f000 	lsl.w	r0, r6, r0
    3710:	0a80      	lsrs	r0, r0, #10
    3712:	e799      	b.n	3648 <sd_mmc_check+0x164>
    3714:	00003431 	.word	0x00003431
    3718:	00003419 	.word	0x00003419
    371c:	2000065c 	.word	0x2000065c
    3720:	00000bcd 	.word	0x00000bcd
    3724:	00000bd5 	.word	0x00000bd5
    3728:	00000bdd 	.word	0x00000bdd
    372c:	401f8000 	.word	0x401f8000
    3730:	00000be5 	.word	0x00000be5
    3734:	000040c4 	.word	0x000040c4
    3738:	00081133 	.word	0x00081133
    373c:	00000c19 	.word	0x00000c19
    3740:	00000c29 	.word	0x00000c29
    3744:	0000334d 	.word	0x0000334d
    3748:	00000bfd 	.word	0x00000bfd
    374c:	6823      	ldr	r3, [r4, #0]
    374e:	221a      	movs	r2, #26
    3750:	731a      	strb	r2, [r3, #12]
    3752:	7921      	ldrb	r1, [r4, #4]
    3754:	68a0      	ldr	r0, [r4, #8]
    3756:	4b44      	ldr	r3, [pc, #272]	; (3868 <sd_mmc_check+0x384>)
    3758:	4798      	blx	r3
    375a:	2803      	cmp	r0, #3
    375c:	d917      	bls.n	378e <sd_mmc_check+0x2aa>
    375e:	6823      	ldr	r3, [r4, #0]
    3760:	7ada      	ldrb	r2, [r3, #11]
    3762:	07d2      	lsls	r2, r2, #31
    3764:	d511      	bpl.n	378a <sd_mmc_check+0x2a6>
    3766:	891a      	ldrh	r2, [r3, #8]
    3768:	68a0      	ldr	r0, [r4, #8]
    376a:	0412      	lsls	r2, r2, #16
    376c:	f241 1137 	movw	r1, #4407	; 0x1137
    3770:	47a8      	blx	r5
    3772:	2800      	cmp	r0, #0
    3774:	d0b3      	beq.n	36de <sd_mmc_check+0x1fa>
    3776:	2202      	movs	r2, #2
    3778:	f241 1106 	movw	r1, #4358	; 0x1106
    377c:	68a0      	ldr	r0, [r4, #8]
    377e:	47a8      	blx	r5
    3780:	2800      	cmp	r0, #0
    3782:	d0ac      	beq.n	36de <sd_mmc_check+0x1fa>
    3784:	6823      	ldr	r3, [r4, #0]
    3786:	2204      	movs	r2, #4
    3788:	735a      	strb	r2, [r3, #13]
    378a:	4b38      	ldr	r3, [pc, #224]	; (386c <sd_mmc_check+0x388>)
    378c:	4798      	blx	r3
    378e:	68a0      	ldr	r0, [r4, #8]
    3790:	4b37      	ldr	r3, [pc, #220]	; (3870 <sd_mmc_check+0x38c>)
    3792:	4798      	blx	r3
    3794:	2800      	cmp	r0, #0
    3796:	d049      	beq.n	382c <sd_mmc_check+0x348>
    3798:	6823      	ldr	r3, [r4, #0]
    379a:	7ada      	ldrb	r2, [r3, #11]
    379c:	07d6      	lsls	r6, r2, #31
    379e:	d543      	bpl.n	3828 <sd_mmc_check+0x344>
    37a0:	7b1b      	ldrb	r3, [r3, #12]
    37a2:	2b10      	cmp	r3, #16
    37a4:	d940      	bls.n	3828 <sd_mmc_check+0x344>
    37a6:	2240      	movs	r2, #64	; 0x40
    37a8:	2100      	movs	r1, #0
    37aa:	4b32      	ldr	r3, [pc, #200]	; (3874 <sd_mmc_check+0x390>)
    37ac:	f8df 80d8 	ldr.w	r8, [pc, #216]	; 3888 <sd_mmc_check+0x3a4>
    37b0:	2601      	movs	r6, #1
    37b2:	a804      	add	r0, sp, #16
    37b4:	4798      	blx	r3
    37b6:	9601      	str	r6, [sp, #4]
    37b8:	9600      	str	r6, [sp, #0]
    37ba:	2340      	movs	r3, #64	; 0x40
    37bc:	4a2e      	ldr	r2, [pc, #184]	; (3878 <sd_mmc_check+0x394>)
    37be:	492f      	ldr	r1, [pc, #188]	; (387c <sd_mmc_check+0x398>)
    37c0:	68a0      	ldr	r0, [r4, #8]
    37c2:	47c0      	blx	r8
    37c4:	2800      	cmp	r0, #0
    37c6:	d08a      	beq.n	36de <sd_mmc_check+0x1fa>
    37c8:	4632      	mov	r2, r6
    37ca:	a904      	add	r1, sp, #16
    37cc:	68a0      	ldr	r0, [r4, #8]
    37ce:	4b2c      	ldr	r3, [pc, #176]	; (3880 <sd_mmc_check+0x39c>)
    37d0:	4798      	blx	r3
    37d2:	2800      	cmp	r0, #0
    37d4:	d083      	beq.n	36de <sd_mmc_check+0x1fa>
    37d6:	68a0      	ldr	r0, [r4, #8]
    37d8:	4b2a      	ldr	r3, [pc, #168]	; (3884 <sd_mmc_check+0x3a0>)
    37da:	4798      	blx	r3
    37dc:	2800      	cmp	r0, #0
    37de:	f43f af7e 	beq.w	36de <sd_mmc_check+0x1fa>
    37e2:	68a0      	ldr	r0, [r4, #8]
    37e4:	9b03      	ldr	r3, [sp, #12]
    37e6:	4798      	blx	r3
    37e8:	0600      	lsls	r0, r0, #24
    37ea:	f53f af78 	bmi.w	36de <sd_mmc_check+0x1fa>
    37ee:	2304      	movs	r3, #4
    37f0:	f44f 72bc 	mov.w	r2, #376	; 0x178
    37f4:	f44f 7100 	mov.w	r1, #512	; 0x200
    37f8:	a804      	add	r0, sp, #16
    37fa:	f8df 8090 	ldr.w	r8, [pc, #144]	; 388c <sd_mmc_check+0x3a8>
    37fe:	47c0      	blx	r8
    3800:	280f      	cmp	r0, #15
    3802:	d011      	beq.n	3828 <sd_mmc_check+0x344>
    3804:	2310      	movs	r3, #16
    3806:	f44f 7288 	mov.w	r2, #272	; 0x110
    380a:	f44f 7100 	mov.w	r1, #512	; 0x200
    380e:	eb0d 0003 	add.w	r0, sp, r3
    3812:	47c0      	blx	r8
    3814:	2800      	cmp	r0, #0
    3816:	f47f af62 	bne.w	36de <sd_mmc_check+0x1fa>
    381a:	68a0      	ldr	r0, [r4, #8]
    381c:	47d0      	blx	sl
    381e:	6823      	ldr	r3, [r4, #0]
    3820:	681a      	ldr	r2, [r3, #0]
    3822:	779e      	strb	r6, [r3, #30]
    3824:	40b2      	lsls	r2, r6
    3826:	601a      	str	r2, [r3, #0]
    3828:	4b10      	ldr	r3, [pc, #64]	; (386c <sd_mmc_check+0x388>)
    382a:	4798      	blx	r3
    382c:	6823      	ldr	r3, [r4, #0]
    382e:	7adb      	ldrb	r3, [r3, #11]
    3830:	07d9      	lsls	r1, r3, #31
    3832:	d508      	bpl.n	3846 <sd_mmc_check+0x362>
    3834:	f44f 7200 	mov.w	r2, #512	; 0x200
    3838:	f241 1110 	movw	r1, #4368	; 0x1110
    383c:	68a0      	ldr	r0, [r4, #8]
    383e:	47a8      	blx	r5
    3840:	2800      	cmp	r0, #0
    3842:	f43f af4c 	beq.w	36de <sd_mmc_check+0x1fa>
    3846:	6823      	ldr	r3, [r4, #0]
    3848:	2200      	movs	r2, #0
    384a:	729a      	strb	r2, [r3, #10]
    384c:	e652      	b.n	34f4 <sd_mmc_check+0x10>
    384e:	222f      	movs	r2, #47	; 0x2f
    3850:	4633      	mov	r3, r6
    3852:	2140      	movs	r1, #64	; 0x40
    3854:	a804      	add	r0, sp, #16
    3856:	47c0      	blx	r8
    3858:	2801      	cmp	r0, #1
    385a:	6823      	ldr	r3, [r4, #0]
    385c:	bf0c      	ite	eq
    385e:	2230      	moveq	r2, #48	; 0x30
    3860:	2220      	movne	r2, #32
    3862:	e775      	b.n	3750 <sd_mmc_check+0x26c>
    3864:	2300      	movs	r3, #0
    3866:	e674      	b.n	3552 <sd_mmc_check+0x6e>
    3868:	00000bbd 	.word	0x00000bbd
    386c:	000033f1 	.word	0x000033f1
    3870:	00000bc5 	.word	0x00000bc5
    3874:	00003f65 	.word	0x00003f65
    3878:	80ffff01 	.word	0x80ffff01
    387c:	00081106 	.word	0x00081106
    3880:	00000c19 	.word	0x00000c19
    3884:	00000c29 	.word	0x00000c29
    3888:	00000bfd 	.word	0x00000bfd
    388c:	0000334d 	.word	0x0000334d

00003890 <sd_mmc_is_write_protected>:
    3890:	b538      	push	{r3, r4, r5, lr}
    3892:	4c0a      	ldr	r4, [pc, #40]	; (38bc <sd_mmc_is_write_protected+0x2c>)
    3894:	6b23      	ldr	r3, [r4, #48]	; 0x30
    3896:	b17b      	cbz	r3, 38b8 <sd_mmc_is_write_protected+0x28>
    3898:	b200      	sxth	r0, r0
    389a:	0085      	lsls	r5, r0, #2
    389c:	f933 0020 	ldrsh.w	r0, [r3, r0, lsl #2]
    38a0:	1c42      	adds	r2, r0, #1
    38a2:	d009      	beq.n	38b8 <sd_mmc_is_write_protected+0x28>
    38a4:	4b06      	ldr	r3, [pc, #24]	; (38c0 <sd_mmc_is_write_protected+0x30>)
    38a6:	b2c0      	uxtb	r0, r0
    38a8:	4798      	blx	r3
    38aa:	6b23      	ldr	r3, [r4, #48]	; 0x30
    38ac:	442b      	add	r3, r5
    38ae:	885b      	ldrh	r3, [r3, #2]
    38b0:	1a1b      	subs	r3, r3, r0
    38b2:	4258      	negs	r0, r3
    38b4:	4158      	adcs	r0, r3
    38b6:	bd38      	pop	{r3, r4, r5, pc}
    38b8:	2000      	movs	r0, #0
    38ba:	bd38      	pop	{r3, r4, r5, pc}
    38bc:	2000065c 	.word	0x2000065c
    38c0:	000033a9 	.word	0x000033a9

000038c4 <sd_mmc_init_read_blocks>:
    38c4:	e92d 4ff7 	stmdb	sp!, {r0, r1, r2, r4, r5, r6, r7, r8, r9, sl, fp, lr}
    38c8:	4b21      	ldr	r3, [pc, #132]	; (3950 <sd_mmc_init_read_blocks+0x8c>)
    38ca:	4689      	mov	r9, r1
    38cc:	4615      	mov	r5, r2
    38ce:	4798      	blx	r3
    38d0:	4680      	mov	r8, r0
    38d2:	b9c8      	cbnz	r0, 3908 <sd_mmc_init_read_blocks+0x44>
    38d4:	4f1f      	ldr	r7, [pc, #124]	; (3954 <sd_mmc_init_read_blocks+0x90>)
    38d6:	f8df a098 	ldr.w	sl, [pc, #152]	; 3970 <sd_mmc_init_read_blocks+0xac>
    38da:	f8df b098 	ldr.w	fp, [pc, #152]	; 3974 <sd_mmc_init_read_blocks+0xb0>
    38de:	463c      	mov	r4, r7
    38e0:	683b      	ldr	r3, [r7, #0]
    38e2:	68b8      	ldr	r0, [r7, #8]
    38e4:	891a      	ldrh	r2, [r3, #8]
    38e6:	f241 110d 	movw	r1, #4365	; 0x110d
    38ea:	0412      	lsls	r2, r2, #16
    38ec:	47d8      	blx	fp
    38ee:	b138      	cbz	r0, 3900 <sd_mmc_init_read_blocks+0x3c>
    38f0:	68b8      	ldr	r0, [r7, #8]
    38f2:	4e19      	ldr	r6, [pc, #100]	; (3958 <sd_mmc_init_read_blocks+0x94>)
    38f4:	47b0      	blx	r6
    38f6:	05c2      	lsls	r2, r0, #23
    38f8:	d40a      	bmi.n	3910 <sd_mmc_init_read_blocks+0x4c>
    38fa:	f1ba 0a01 	subs.w	sl, sl, #1
    38fe:	d1ef      	bne.n	38e0 <sd_mmc_init_read_blocks+0x1c>
    3900:	4b16      	ldr	r3, [pc, #88]	; (395c <sd_mmc_init_read_blocks+0x98>)
    3902:	4798      	blx	r3
    3904:	f04f 0805 	mov.w	r8, #5
    3908:	4640      	mov	r0, r8
    390a:	b003      	add	sp, #12
    390c:	e8bd 8ff0 	ldmia.w	sp!, {r4, r5, r6, r7, r8, r9, sl, fp, pc}
    3910:	4b13      	ldr	r3, [pc, #76]	; (3960 <sd_mmc_init_read_blocks+0x9c>)
    3912:	4914      	ldr	r1, [pc, #80]	; (3964 <sd_mmc_init_read_blocks+0xa0>)
    3914:	2d01      	cmp	r5, #1
    3916:	bf98      	it	ls
    3918:	4619      	movls	r1, r3
    391a:	6823      	ldr	r3, [r4, #0]
    391c:	7adb      	ldrb	r3, [r3, #11]
    391e:	071b      	lsls	r3, r3, #28
    3920:	d401      	bmi.n	3926 <sd_mmc_init_read_blocks+0x62>
    3922:	ea4f 2949 	mov.w	r9, r9, lsl #9
    3926:	2301      	movs	r3, #1
    3928:	9301      	str	r3, [sp, #4]
    392a:	9500      	str	r5, [sp, #0]
    392c:	f44f 7300 	mov.w	r3, #512	; 0x200
    3930:	464a      	mov	r2, r9
    3932:	68a0      	ldr	r0, [r4, #8]
    3934:	4f0c      	ldr	r7, [pc, #48]	; (3968 <sd_mmc_init_read_blocks+0xa4>)
    3936:	47b8      	blx	r7
    3938:	2800      	cmp	r0, #0
    393a:	d0e1      	beq.n	3900 <sd_mmc_init_read_blocks+0x3c>
    393c:	68a0      	ldr	r0, [r4, #8]
    393e:	47b0      	blx	r6
    3940:	4b0a      	ldr	r3, [pc, #40]	; (396c <sd_mmc_init_read_blocks+0xa8>)
    3942:	4003      	ands	r3, r0
    3944:	2b00      	cmp	r3, #0
    3946:	d1db      	bne.n	3900 <sd_mmc_init_read_blocks+0x3c>
    3948:	86a5      	strh	r5, [r4, #52]	; 0x34
    394a:	86e5      	strh	r5, [r4, #54]	; 0x36
    394c:	e7dc      	b.n	3908 <sd_mmc_init_read_blocks+0x44>
    394e:	bf00      	nop
    3950:	00003431 	.word	0x00003431
    3954:	2000065c 	.word	0x2000065c
    3958:	00000bdd 	.word	0x00000bdd
    395c:	00003419 	.word	0x00003419
    3960:	00081111 	.word	0x00081111
    3964:	00101112 	.word	0x00101112
    3968:	00000bfd 	.word	0x00000bfd
    396c:	e4580000 	.word	0xe4580000
    3970:	00030d41 	.word	0x00030d41
    3974:	00000bd5 	.word	0x00000bd5

00003978 <sd_mmc_start_read_blocks>:
    3978:	b538      	push	{r3, r4, r5, lr}
    397a:	4c08      	ldr	r4, [pc, #32]	; (399c <sd_mmc_start_read_blocks+0x24>)
    397c:	4b08      	ldr	r3, [pc, #32]	; (39a0 <sd_mmc_start_read_blocks+0x28>)
    397e:	460d      	mov	r5, r1
    3980:	460a      	mov	r2, r1
    3982:	4601      	mov	r1, r0
    3984:	68a0      	ldr	r0, [r4, #8]
    3986:	4798      	blx	r3
    3988:	b910      	cbnz	r0, 3990 <sd_mmc_start_read_blocks+0x18>
    398a:	86a0      	strh	r0, [r4, #52]	; 0x34
    398c:	2005      	movs	r0, #5
    398e:	bd38      	pop	{r3, r4, r5, pc}
    3990:	8ea1      	ldrh	r1, [r4, #52]	; 0x34
    3992:	1b49      	subs	r1, r1, r5
    3994:	86a1      	strh	r1, [r4, #52]	; 0x34
    3996:	2000      	movs	r0, #0
    3998:	bd38      	pop	{r3, r4, r5, pc}
    399a:	bf00      	nop
    399c:	2000065c 	.word	0x2000065c
    39a0:	00000c19 	.word	0x00000c19

000039a4 <sd_mmc_wait_end_of_read_blocks>:
    39a4:	b570      	push	{r4, r5, r6, lr}
    39a6:	4e12      	ldr	r6, [pc, #72]	; (39f0 <sd_mmc_wait_end_of_read_blocks+0x4c>)
    39a8:	4b12      	ldr	r3, [pc, #72]	; (39f4 <sd_mmc_wait_end_of_read_blocks+0x50>)
    39aa:	4604      	mov	r4, r0
    39ac:	68b0      	ldr	r0, [r6, #8]
    39ae:	4798      	blx	r3
    39b0:	4635      	mov	r5, r6
    39b2:	b1d8      	cbz	r0, 39ec <sd_mmc_wait_end_of_read_blocks+0x48>
    39b4:	b13c      	cbz	r4, 39c6 <sd_mmc_wait_end_of_read_blocks+0x22>
    39b6:	2300      	movs	r3, #0
    39b8:	86b3      	strh	r3, [r6, #52]	; 0x34
    39ba:	8eeb      	ldrh	r3, [r5, #54]	; 0x36
    39bc:	2b01      	cmp	r3, #1
    39be:	d107      	bne.n	39d0 <sd_mmc_wait_end_of_read_blocks+0x2c>
    39c0:	4b0d      	ldr	r3, [pc, #52]	; (39f8 <sd_mmc_wait_end_of_read_blocks+0x54>)
    39c2:	4798      	blx	r3
    39c4:	e002      	b.n	39cc <sd_mmc_wait_end_of_read_blocks+0x28>
    39c6:	8eb3      	ldrh	r3, [r6, #52]	; 0x34
    39c8:	2b00      	cmp	r3, #0
    39ca:	d0f6      	beq.n	39ba <sd_mmc_wait_end_of_read_blocks+0x16>
    39cc:	2000      	movs	r0, #0
    39ce:	bd70      	pop	{r4, r5, r6, pc}
    39d0:	2200      	movs	r2, #0
    39d2:	f243 110c 	movw	r1, #12556	; 0x310c
    39d6:	68a8      	ldr	r0, [r5, #8]
    39d8:	4c08      	ldr	r4, [pc, #32]	; (39fc <sd_mmc_wait_end_of_read_blocks+0x58>)
    39da:	47a0      	blx	r4
    39dc:	4602      	mov	r2, r0
    39de:	2800      	cmp	r0, #0
    39e0:	d1ee      	bne.n	39c0 <sd_mmc_wait_end_of_read_blocks+0x1c>
    39e2:	f243 110c 	movw	r1, #12556	; 0x310c
    39e6:	68a8      	ldr	r0, [r5, #8]
    39e8:	47a0      	blx	r4
    39ea:	e7e9      	b.n	39c0 <sd_mmc_wait_end_of_read_blocks+0x1c>
    39ec:	2005      	movs	r0, #5
    39ee:	bd70      	pop	{r4, r5, r6, pc}
    39f0:	2000065c 	.word	0x2000065c
    39f4:	00000c29 	.word	0x00000c29
    39f8:	00003419 	.word	0x00003419
    39fc:	00000bd5 	.word	0x00000bd5

00003a00 <sd_mmc_write_with_ADMA>:
    3a00:	e92d 41f0 	stmdb	sp!, {r4, r5, r6, r7, r8, lr}
    3a04:	461f      	mov	r7, r3
    3a06:	4b23      	ldr	r3, [pc, #140]	; (3a94 <sd_mmc_write_with_ADMA+0x94>)
    3a08:	4605      	mov	r5, r0
    3a0a:	460e      	mov	r6, r1
    3a0c:	4690      	mov	r8, r2
    3a0e:	4798      	blx	r3
    3a10:	4604      	mov	r4, r0
    3a12:	b930      	cbnz	r0, 3a22 <sd_mmc_write_with_ADMA+0x22>
    3a14:	4628      	mov	r0, r5
    3a16:	4b20      	ldr	r3, [pc, #128]	; (3a98 <sd_mmc_write_with_ADMA+0x98>)
    3a18:	4798      	blx	r3
    3a1a:	b128      	cbz	r0, 3a28 <sd_mmc_write_with_ADMA+0x28>
    3a1c:	4b1f      	ldr	r3, [pc, #124]	; (3a9c <sd_mmc_write_with_ADMA+0x9c>)
    3a1e:	4798      	blx	r3
    3a20:	2407      	movs	r4, #7
    3a22:	4620      	mov	r0, r4
    3a24:	e8bd 81f0 	ldmia.w	sp!, {r4, r5, r6, r7, r8, pc}
    3a28:	4b1d      	ldr	r3, [pc, #116]	; (3aa0 <sd_mmc_write_with_ADMA+0xa0>)
    3a2a:	4a1e      	ldr	r2, [pc, #120]	; (3aa4 <sd_mmc_write_with_ADMA+0xa4>)
    3a2c:	4d1e      	ldr	r5, [pc, #120]	; (3aa8 <sd_mmc_write_with_ADMA+0xa8>)
    3a2e:	2f01      	cmp	r7, #1
    3a30:	bf88      	it	hi
    3a32:	461a      	movhi	r2, r3
    3a34:	682b      	ldr	r3, [r5, #0]
    3a36:	7adb      	ldrb	r3, [r3, #11]
    3a38:	071b      	lsls	r3, r3, #28
    3a3a:	f04f 438a 	mov.w	r3, #1157627904	; 0x45000000
    3a3e:	f44f 7100 	mov.w	r1, #512	; 0x200
    3a42:	f8c3 8058 	str.w	r8, [r3, #88]	; 0x58
    3a46:	8099      	strh	r1, [r3, #4]
    3a48:	80df      	strh	r7, [r3, #6]
    3a4a:	6a59      	ldr	r1, [r3, #36]	; 0x24
    3a4c:	bf58      	it	pl
    3a4e:	0276      	lslpl	r6, r6, #9
    3a50:	07c8      	lsls	r0, r1, #31
    3a52:	d4e6      	bmi.n	3a22 <sd_mmc_write_with_ADMA+0x22>
    3a54:	6a5b      	ldr	r3, [r3, #36]	; 0x24
    3a56:	f3c3 0340 	ubfx	r3, r3, #1, #1
    3a5a:	2b00      	cmp	r3, #0
    3a5c:	d1e1      	bne.n	3a22 <sd_mmc_write_with_ADMA+0x22>
    3a5e:	0311      	lsls	r1, r2, #12
    3a60:	d402      	bmi.n	3a68 <sd_mmc_write_with_ADMA+0x68>
    3a62:	02d3      	lsls	r3, r2, #11
    3a64:	d5dd      	bpl.n	3a22 <sd_mmc_write_with_ADMA+0x22>
    3a66:	2322      	movs	r3, #34	; 0x22
    3a68:	f04f 408a 	mov.w	r0, #1157627904	; 0x45000000
    3a6c:	f043 0305 	orr.w	r3, r3, #5
    3a70:	8183      	strh	r3, [r0, #12]
    3a72:	2120      	movs	r1, #32
    3a74:	4633      	mov	r3, r6
    3a76:	4e0d      	ldr	r6, [pc, #52]	; (3aac <sd_mmc_write_with_ADMA+0xac>)
    3a78:	47b0      	blx	r6
    3a7a:	b918      	cbnz	r0, 3a84 <sd_mmc_write_with_ADMA+0x84>
    3a7c:	4b07      	ldr	r3, [pc, #28]	; (3a9c <sd_mmc_write_with_ADMA+0x9c>)
    3a7e:	4798      	blx	r3
    3a80:	2405      	movs	r4, #5
    3a82:	e7ce      	b.n	3a22 <sd_mmc_write_with_ADMA+0x22>
    3a84:	4b0a      	ldr	r3, [pc, #40]	; (3ab0 <sd_mmc_write_with_ADMA+0xb0>)
    3a86:	68a8      	ldr	r0, [r5, #8]
    3a88:	4798      	blx	r3
    3a8a:	4b0a      	ldr	r3, [pc, #40]	; (3ab4 <sd_mmc_write_with_ADMA+0xb4>)
    3a8c:	4003      	ands	r3, r0
    3a8e:	2b00      	cmp	r3, #0
    3a90:	d0c7      	beq.n	3a22 <sd_mmc_write_with_ADMA+0x22>
    3a92:	e7f3      	b.n	3a7c <sd_mmc_write_with_ADMA+0x7c>
    3a94:	00003431 	.word	0x00003431
    3a98:	00003891 	.word	0x00003891
    3a9c:	00003419 	.word	0x00003419
    3aa0:	00109119 	.word	0x00109119
    3aa4:	00089118 	.word	0x00089118
    3aa8:	2000065c 	.word	0x2000065c
    3aac:	00000bed 	.word	0x00000bed
    3ab0:	00000bdd 	.word	0x00000bdd
    3ab4:	e4580000 	.word	0xe4580000

00003ab8 <sd_mmc_wait_end_of_ADMA_write>:
    3ab8:	b508      	push	{r3, lr}
    3aba:	f04f 428a 	mov.w	r2, #1157627904	; 0x45000000
    3abe:	8e53      	ldrh	r3, [r2, #50]	; 0x32
    3ac0:	f003 0370 	and.w	r3, r3, #112	; 0x70
    3ac4:	b94b      	cbnz	r3, 3ada <sd_mmc_wait_end_of_ADMA_write+0x22>
    3ac6:	8e13      	ldrh	r3, [r2, #48]	; 0x30
    3ac8:	079b      	lsls	r3, r3, #30
    3aca:	d5f8      	bpl.n	3abe <sd_mmc_wait_end_of_ADMA_write+0x6>
    3acc:	8e13      	ldrh	r3, [r2, #48]	; 0x30
    3ace:	b29b      	uxth	r3, r3
    3ad0:	f043 0302 	orr.w	r3, r3, #2
    3ad4:	8613      	strh	r3, [r2, #48]	; 0x30
    3ad6:	4b02      	ldr	r3, [pc, #8]	; (3ae0 <sd_mmc_wait_end_of_ADMA_write+0x28>)
    3ad8:	4798      	blx	r3
    3ada:	2000      	movs	r0, #0
    3adc:	bd08      	pop	{r3, pc}
    3ade:	bf00      	nop
    3ae0:	00003419 	.word	0x00003419

00003ae4 <sd_mmc_init_write_blocks>:
    3ae4:	b5f7      	push	{r0, r1, r2, r4, r5, r6, r7, lr}
    3ae6:	4b1a      	ldr	r3, [pc, #104]	; (3b50 <sd_mmc_init_write_blocks+0x6c>)
    3ae8:	4604      	mov	r4, r0
    3aea:	460d      	mov	r5, r1
    3aec:	4617      	mov	r7, r2
    3aee:	4798      	blx	r3
    3af0:	4606      	mov	r6, r0
    3af2:	b930      	cbnz	r0, 3b02 <sd_mmc_init_write_blocks+0x1e>
    3af4:	4620      	mov	r0, r4
    3af6:	4b17      	ldr	r3, [pc, #92]	; (3b54 <sd_mmc_init_write_blocks+0x70>)
    3af8:	4798      	blx	r3
    3afa:	b128      	cbz	r0, 3b08 <sd_mmc_init_write_blocks+0x24>
    3afc:	4b16      	ldr	r3, [pc, #88]	; (3b58 <sd_mmc_init_write_blocks+0x74>)
    3afe:	4798      	blx	r3
    3b00:	2607      	movs	r6, #7
    3b02:	4630      	mov	r0, r6
    3b04:	b003      	add	sp, #12
    3b06:	bdf0      	pop	{r4, r5, r6, r7, pc}
    3b08:	4b14      	ldr	r3, [pc, #80]	; (3b5c <sd_mmc_init_write_blocks+0x78>)
    3b0a:	4c15      	ldr	r4, [pc, #84]	; (3b60 <sd_mmc_init_write_blocks+0x7c>)
    3b0c:	4915      	ldr	r1, [pc, #84]	; (3b64 <sd_mmc_init_write_blocks+0x80>)
    3b0e:	2f01      	cmp	r7, #1
    3b10:	bf88      	it	hi
    3b12:	4619      	movhi	r1, r3
    3b14:	6823      	ldr	r3, [r4, #0]
    3b16:	7adb      	ldrb	r3, [r3, #11]
    3b18:	9700      	str	r7, [sp, #0]
    3b1a:	071b      	lsls	r3, r3, #28
    3b1c:	f04f 0301 	mov.w	r3, #1
    3b20:	bf58      	it	pl
    3b22:	026d      	lslpl	r5, r5, #9
    3b24:	9301      	str	r3, [sp, #4]
    3b26:	462a      	mov	r2, r5
    3b28:	f44f 7300 	mov.w	r3, #512	; 0x200
    3b2c:	68a0      	ldr	r0, [r4, #8]
    3b2e:	4d0e      	ldr	r5, [pc, #56]	; (3b68 <sd_mmc_init_write_blocks+0x84>)
    3b30:	47a8      	blx	r5
    3b32:	b918      	cbnz	r0, 3b3c <sd_mmc_init_write_blocks+0x58>
    3b34:	4b08      	ldr	r3, [pc, #32]	; (3b58 <sd_mmc_init_write_blocks+0x74>)
    3b36:	4798      	blx	r3
    3b38:	2605      	movs	r6, #5
    3b3a:	e7e2      	b.n	3b02 <sd_mmc_init_write_blocks+0x1e>
    3b3c:	4b0b      	ldr	r3, [pc, #44]	; (3b6c <sd_mmc_init_write_blocks+0x88>)
    3b3e:	68a0      	ldr	r0, [r4, #8]
    3b40:	4798      	blx	r3
    3b42:	4b0b      	ldr	r3, [pc, #44]	; (3b70 <sd_mmc_init_write_blocks+0x8c>)
    3b44:	4003      	ands	r3, r0
    3b46:	2b00      	cmp	r3, #0
    3b48:	d1f4      	bne.n	3b34 <sd_mmc_init_write_blocks+0x50>
    3b4a:	86a7      	strh	r7, [r4, #52]	; 0x34
    3b4c:	86e7      	strh	r7, [r4, #54]	; 0x36
    3b4e:	e7d8      	b.n	3b02 <sd_mmc_init_write_blocks+0x1e>
    3b50:	00003431 	.word	0x00003431
    3b54:	00003891 	.word	0x00003891
    3b58:	00003419 	.word	0x00003419
    3b5c:	00109119 	.word	0x00109119
    3b60:	2000065c 	.word	0x2000065c
    3b64:	00089118 	.word	0x00089118
    3b68:	00000bfd 	.word	0x00000bfd
    3b6c:	00000bdd 	.word	0x00000bdd
    3b70:	e4580000 	.word	0xe4580000

00003b74 <sd_mmc_start_write_blocks>:
    3b74:	b538      	push	{r3, r4, r5, lr}
    3b76:	4c08      	ldr	r4, [pc, #32]	; (3b98 <sd_mmc_start_write_blocks+0x24>)
    3b78:	4b08      	ldr	r3, [pc, #32]	; (3b9c <sd_mmc_start_write_blocks+0x28>)
    3b7a:	460d      	mov	r5, r1
    3b7c:	460a      	mov	r2, r1
    3b7e:	4601      	mov	r1, r0
    3b80:	68a0      	ldr	r0, [r4, #8]
    3b82:	4798      	blx	r3
    3b84:	b910      	cbnz	r0, 3b8c <sd_mmc_start_write_blocks+0x18>
    3b86:	86a0      	strh	r0, [r4, #52]	; 0x34
    3b88:	2005      	movs	r0, #5
    3b8a:	bd38      	pop	{r3, r4, r5, pc}
    3b8c:	8ea1      	ldrh	r1, [r4, #52]	; 0x34
    3b8e:	1b49      	subs	r1, r1, r5
    3b90:	86a1      	strh	r1, [r4, #52]	; 0x34
    3b92:	2000      	movs	r0, #0
    3b94:	bd38      	pop	{r3, r4, r5, pc}
    3b96:	bf00      	nop
    3b98:	2000065c 	.word	0x2000065c
    3b9c:	00000c21 	.word	0x00000c21

00003ba0 <sd_mmc_wait_end_of_write_blocks>:
    3ba0:	b538      	push	{r3, r4, r5, lr}
    3ba2:	4d10      	ldr	r5, [pc, #64]	; (3be4 <sd_mmc_wait_end_of_write_blocks+0x44>)
    3ba4:	4b10      	ldr	r3, [pc, #64]	; (3be8 <sd_mmc_wait_end_of_write_blocks+0x48>)
    3ba6:	4604      	mov	r4, r0
    3ba8:	68a8      	ldr	r0, [r5, #8]
    3baa:	4798      	blx	r3
    3bac:	462b      	mov	r3, r5
    3bae:	b1b0      	cbz	r0, 3bde <sd_mmc_wait_end_of_write_blocks+0x3e>
    3bb0:	b13c      	cbz	r4, 3bc2 <sd_mmc_wait_end_of_write_blocks+0x22>
    3bb2:	2200      	movs	r2, #0
    3bb4:	86aa      	strh	r2, [r5, #52]	; 0x34
    3bb6:	8eda      	ldrh	r2, [r3, #54]	; 0x36
    3bb8:	4c0c      	ldr	r4, [pc, #48]	; (3bec <sd_mmc_wait_end_of_write_blocks+0x4c>)
    3bba:	2a01      	cmp	r2, #1
    3bbc:	d106      	bne.n	3bcc <sd_mmc_wait_end_of_write_blocks+0x2c>
    3bbe:	47a0      	blx	r4
    3bc0:	e002      	b.n	3bc8 <sd_mmc_wait_end_of_write_blocks+0x28>
    3bc2:	8eaa      	ldrh	r2, [r5, #52]	; 0x34
    3bc4:	2a00      	cmp	r2, #0
    3bc6:	d0f6      	beq.n	3bb6 <sd_mmc_wait_end_of_write_blocks+0x16>
    3bc8:	2000      	movs	r0, #0
    3bca:	bd38      	pop	{r3, r4, r5, pc}
    3bcc:	6898      	ldr	r0, [r3, #8]
    3bce:	4b08      	ldr	r3, [pc, #32]	; (3bf0 <sd_mmc_wait_end_of_write_blocks+0x50>)
    3bd0:	2200      	movs	r2, #0
    3bd2:	f243 110c 	movw	r1, #12556	; 0x310c
    3bd6:	4798      	blx	r3
    3bd8:	2800      	cmp	r0, #0
    3bda:	d1f0      	bne.n	3bbe <sd_mmc_wait_end_of_write_blocks+0x1e>
    3bdc:	47a0      	blx	r4
    3bde:	2005      	movs	r0, #5
    3be0:	bd38      	pop	{r3, r4, r5, pc}
    3be2:	bf00      	nop
    3be4:	2000065c 	.word	0x2000065c
    3be8:	00000c31 	.word	0x00000c31
    3bec:	00003419 	.word	0x00003419
    3bf0:	00000bd5 	.word	0x00000bd5

00003bf4 <sd_mmc_stack_init>:
    3bf4:	4a02      	ldr	r2, [pc, #8]	; (3c00 <sd_mmc_stack_init+0xc>)
    3bf6:	4803      	ldr	r0, [pc, #12]	; (3c04 <sd_mmc_stack_init+0x10>)
    3bf8:	4b03      	ldr	r3, [pc, #12]	; (3c08 <sd_mmc_stack_init+0x14>)
    3bfa:	1d11      	adds	r1, r2, #4
    3bfc:	4718      	bx	r3
    3bfe:	bf00      	nop
    3c00:	20000034 	.word	0x20000034
    3c04:	200006d0 	.word	0x200006d0
    3c08:	000034cd 	.word	0x000034cd

00003c0c <__aeabi_uldivmod>:
    3c0c:	b953      	cbnz	r3, 3c24 <__aeabi_uldivmod+0x18>
    3c0e:	b94a      	cbnz	r2, 3c24 <__aeabi_uldivmod+0x18>
    3c10:	2900      	cmp	r1, #0
    3c12:	bf08      	it	eq
    3c14:	2800      	cmpeq	r0, #0
    3c16:	bf1c      	itt	ne
    3c18:	f04f 31ff 	movne.w	r1, #4294967295
    3c1c:	f04f 30ff 	movne.w	r0, #4294967295
    3c20:	f000 b97a 	b.w	3f18 <__aeabi_idiv0>
    3c24:	f1ad 0c08 	sub.w	ip, sp, #8
    3c28:	e96d ce04 	strd	ip, lr, [sp, #-16]!
    3c2c:	f000 f806 	bl	3c3c <__udivmoddi4>
    3c30:	f8dd e004 	ldr.w	lr, [sp, #4]
    3c34:	e9dd 2302 	ldrd	r2, r3, [sp, #8]
    3c38:	b004      	add	sp, #16
    3c3a:	4770      	bx	lr

00003c3c <__udivmoddi4>:
    3c3c:	e92d 47f0 	stmdb	sp!, {r4, r5, r6, r7, r8, r9, sl, lr}
    3c40:	468c      	mov	ip, r1
    3c42:	460d      	mov	r5, r1
    3c44:	4604      	mov	r4, r0
    3c46:	9e08      	ldr	r6, [sp, #32]
    3c48:	2b00      	cmp	r3, #0
    3c4a:	d151      	bne.n	3cf0 <__udivmoddi4+0xb4>
    3c4c:	428a      	cmp	r2, r1
    3c4e:	4617      	mov	r7, r2
    3c50:	d96d      	bls.n	3d2e <__udivmoddi4+0xf2>
    3c52:	fab2 fe82 	clz	lr, r2
    3c56:	f1be 0f00 	cmp.w	lr, #0
    3c5a:	d00b      	beq.n	3c74 <__udivmoddi4+0x38>
    3c5c:	f1ce 0c20 	rsb	ip, lr, #32
    3c60:	fa01 f50e 	lsl.w	r5, r1, lr
    3c64:	fa20 fc0c 	lsr.w	ip, r0, ip
    3c68:	fa02 f70e 	lsl.w	r7, r2, lr
    3c6c:	ea4c 0c05 	orr.w	ip, ip, r5
    3c70:	fa00 f40e 	lsl.w	r4, r0, lr
    3c74:	ea4f 4a17 	mov.w	sl, r7, lsr #16
    3c78:	0c25      	lsrs	r5, r4, #16
    3c7a:	fbbc f8fa 	udiv	r8, ip, sl
    3c7e:	fa1f f987 	uxth.w	r9, r7
    3c82:	fb0a cc18 	mls	ip, sl, r8, ip
    3c86:	ea45 450c 	orr.w	r5, r5, ip, lsl #16
    3c8a:	fb08 f309 	mul.w	r3, r8, r9
    3c8e:	42ab      	cmp	r3, r5
    3c90:	d90a      	bls.n	3ca8 <__udivmoddi4+0x6c>
    3c92:	19ed      	adds	r5, r5, r7
    3c94:	f108 32ff 	add.w	r2, r8, #4294967295
    3c98:	f080 8123 	bcs.w	3ee2 <__udivmoddi4+0x2a6>
    3c9c:	42ab      	cmp	r3, r5
    3c9e:	f240 8120 	bls.w	3ee2 <__udivmoddi4+0x2a6>
    3ca2:	f1a8 0802 	sub.w	r8, r8, #2
    3ca6:	443d      	add	r5, r7
    3ca8:	1aed      	subs	r5, r5, r3
    3caa:	b2a4      	uxth	r4, r4
    3cac:	fbb5 f0fa 	udiv	r0, r5, sl
    3cb0:	fb0a 5510 	mls	r5, sl, r0, r5
    3cb4:	ea44 4405 	orr.w	r4, r4, r5, lsl #16
    3cb8:	fb00 f909 	mul.w	r9, r0, r9
    3cbc:	45a1      	cmp	r9, r4
    3cbe:	d909      	bls.n	3cd4 <__udivmoddi4+0x98>
    3cc0:	19e4      	adds	r4, r4, r7
    3cc2:	f100 33ff 	add.w	r3, r0, #4294967295
    3cc6:	f080 810a 	bcs.w	3ede <__udivmoddi4+0x2a2>
    3cca:	45a1      	cmp	r9, r4
    3ccc:	f240 8107 	bls.w	3ede <__udivmoddi4+0x2a2>
    3cd0:	3802      	subs	r0, #2
    3cd2:	443c      	add	r4, r7
    3cd4:	eba4 0409 	sub.w	r4, r4, r9
    3cd8:	ea40 4008 	orr.w	r0, r0, r8, lsl #16
    3cdc:	2100      	movs	r1, #0
    3cde:	2e00      	cmp	r6, #0
    3ce0:	d061      	beq.n	3da6 <__udivmoddi4+0x16a>
    3ce2:	fa24 f40e 	lsr.w	r4, r4, lr
    3ce6:	2300      	movs	r3, #0
    3ce8:	6034      	str	r4, [r6, #0]
    3cea:	6073      	str	r3, [r6, #4]
    3cec:	e8bd 87f0 	ldmia.w	sp!, {r4, r5, r6, r7, r8, r9, sl, pc}
    3cf0:	428b      	cmp	r3, r1
    3cf2:	d907      	bls.n	3d04 <__udivmoddi4+0xc8>
    3cf4:	2e00      	cmp	r6, #0
    3cf6:	d054      	beq.n	3da2 <__udivmoddi4+0x166>
    3cf8:	2100      	movs	r1, #0
    3cfa:	e886 0021 	stmia.w	r6, {r0, r5}
    3cfe:	4608      	mov	r0, r1
    3d00:	e8bd 87f0 	ldmia.w	sp!, {r4, r5, r6, r7, r8, r9, sl, pc}
    3d04:	fab3 f183 	clz	r1, r3
    3d08:	2900      	cmp	r1, #0
    3d0a:	f040 808e 	bne.w	3e2a <__udivmoddi4+0x1ee>
    3d0e:	42ab      	cmp	r3, r5
    3d10:	d302      	bcc.n	3d18 <__udivmoddi4+0xdc>
    3d12:	4282      	cmp	r2, r0
    3d14:	f200 80fa 	bhi.w	3f0c <__udivmoddi4+0x2d0>
    3d18:	1a84      	subs	r4, r0, r2
    3d1a:	eb65 0503 	sbc.w	r5, r5, r3
    3d1e:	2001      	movs	r0, #1
    3d20:	46ac      	mov	ip, r5
    3d22:	2e00      	cmp	r6, #0
    3d24:	d03f      	beq.n	3da6 <__udivmoddi4+0x16a>
    3d26:	e886 1010 	stmia.w	r6, {r4, ip}
    3d2a:	e8bd 87f0 	ldmia.w	sp!, {r4, r5, r6, r7, r8, r9, sl, pc}
    3d2e:	b912      	cbnz	r2, 3d36 <__udivmoddi4+0xfa>
    3d30:	2701      	movs	r7, #1
    3d32:	fbb7 f7f2 	udiv	r7, r7, r2
    3d36:	fab7 fe87 	clz	lr, r7
    3d3a:	f1be 0f00 	cmp.w	lr, #0
    3d3e:	d134      	bne.n	3daa <__udivmoddi4+0x16e>
    3d40:	1beb      	subs	r3, r5, r7
    3d42:	0c3a      	lsrs	r2, r7, #16
    3d44:	fa1f fc87 	uxth.w	ip, r7
    3d48:	2101      	movs	r1, #1
    3d4a:	fbb3 f8f2 	udiv	r8, r3, r2
    3d4e:	0c25      	lsrs	r5, r4, #16
    3d50:	fb02 3318 	mls	r3, r2, r8, r3
    3d54:	ea45 4503 	orr.w	r5, r5, r3, lsl #16
    3d58:	fb0c f308 	mul.w	r3, ip, r8
    3d5c:	42ab      	cmp	r3, r5
    3d5e:	d907      	bls.n	3d70 <__udivmoddi4+0x134>
    3d60:	19ed      	adds	r5, r5, r7
    3d62:	f108 30ff 	add.w	r0, r8, #4294967295
    3d66:	d202      	bcs.n	3d6e <__udivmoddi4+0x132>
    3d68:	42ab      	cmp	r3, r5
    3d6a:	f200 80d1 	bhi.w	3f10 <__udivmoddi4+0x2d4>
    3d6e:	4680      	mov	r8, r0
    3d70:	1aed      	subs	r5, r5, r3
    3d72:	b2a3      	uxth	r3, r4
    3d74:	fbb5 f0f2 	udiv	r0, r5, r2
    3d78:	fb02 5510 	mls	r5, r2, r0, r5
    3d7c:	ea43 4405 	orr.w	r4, r3, r5, lsl #16
    3d80:	fb0c fc00 	mul.w	ip, ip, r0
    3d84:	45a4      	cmp	ip, r4
    3d86:	d907      	bls.n	3d98 <__udivmoddi4+0x15c>
    3d88:	19e4      	adds	r4, r4, r7
    3d8a:	f100 33ff 	add.w	r3, r0, #4294967295
    3d8e:	d202      	bcs.n	3d96 <__udivmoddi4+0x15a>
    3d90:	45a4      	cmp	ip, r4
    3d92:	f200 80b8 	bhi.w	3f06 <__udivmoddi4+0x2ca>
    3d96:	4618      	mov	r0, r3
    3d98:	eba4 040c 	sub.w	r4, r4, ip
    3d9c:	ea40 4008 	orr.w	r0, r0, r8, lsl #16
    3da0:	e79d      	b.n	3cde <__udivmoddi4+0xa2>
    3da2:	4631      	mov	r1, r6
    3da4:	4630      	mov	r0, r6
    3da6:	e8bd 87f0 	ldmia.w	sp!, {r4, r5, r6, r7, r8, r9, sl, pc}
    3daa:	f1ce 0420 	rsb	r4, lr, #32
    3dae:	fa05 f30e 	lsl.w	r3, r5, lr
    3db2:	fa07 f70e 	lsl.w	r7, r7, lr
    3db6:	fa20 f804 	lsr.w	r8, r0, r4
    3dba:	0c3a      	lsrs	r2, r7, #16
    3dbc:	fa25 f404 	lsr.w	r4, r5, r4
    3dc0:	ea48 0803 	orr.w	r8, r8, r3
    3dc4:	fbb4 f1f2 	udiv	r1, r4, r2
    3dc8:	ea4f 4518 	mov.w	r5, r8, lsr #16
    3dcc:	fb02 4411 	mls	r4, r2, r1, r4
    3dd0:	fa1f fc87 	uxth.w	ip, r7
    3dd4:	ea45 4504 	orr.w	r5, r5, r4, lsl #16
    3dd8:	fb01 f30c 	mul.w	r3, r1, ip
    3ddc:	42ab      	cmp	r3, r5
    3dde:	fa00 f40e 	lsl.w	r4, r0, lr
    3de2:	d909      	bls.n	3df8 <__udivmoddi4+0x1bc>
    3de4:	19ed      	adds	r5, r5, r7
    3de6:	f101 30ff 	add.w	r0, r1, #4294967295
    3dea:	f080 808a 	bcs.w	3f02 <__udivmoddi4+0x2c6>
    3dee:	42ab      	cmp	r3, r5
    3df0:	f240 8087 	bls.w	3f02 <__udivmoddi4+0x2c6>
    3df4:	3902      	subs	r1, #2
    3df6:	443d      	add	r5, r7
    3df8:	1aeb      	subs	r3, r5, r3
    3dfa:	fa1f f588 	uxth.w	r5, r8
    3dfe:	fbb3 f0f2 	udiv	r0, r3, r2
    3e02:	fb02 3310 	mls	r3, r2, r0, r3
    3e06:	ea45 4503 	orr.w	r5, r5, r3, lsl #16
    3e0a:	fb00 f30c 	mul.w	r3, r0, ip
    3e0e:	42ab      	cmp	r3, r5
    3e10:	d907      	bls.n	3e22 <__udivmoddi4+0x1e6>
    3e12:	19ed      	adds	r5, r5, r7
    3e14:	f100 38ff 	add.w	r8, r0, #4294967295
    3e18:	d26f      	bcs.n	3efa <__udivmoddi4+0x2be>
    3e1a:	42ab      	cmp	r3, r5
    3e1c:	d96d      	bls.n	3efa <__udivmoddi4+0x2be>
    3e1e:	3802      	subs	r0, #2
    3e20:	443d      	add	r5, r7
    3e22:	1aeb      	subs	r3, r5, r3
    3e24:	ea40 4101 	orr.w	r1, r0, r1, lsl #16
    3e28:	e78f      	b.n	3d4a <__udivmoddi4+0x10e>
    3e2a:	f1c1 0720 	rsb	r7, r1, #32
    3e2e:	fa22 f807 	lsr.w	r8, r2, r7
    3e32:	408b      	lsls	r3, r1
    3e34:	fa05 f401 	lsl.w	r4, r5, r1
    3e38:	ea48 0303 	orr.w	r3, r8, r3
    3e3c:	fa20 fe07 	lsr.w	lr, r0, r7
    3e40:	ea4f 4c13 	mov.w	ip, r3, lsr #16
    3e44:	40fd      	lsrs	r5, r7
    3e46:	ea4e 0e04 	orr.w	lr, lr, r4
    3e4a:	fbb5 f9fc 	udiv	r9, r5, ip
    3e4e:	ea4f 441e 	mov.w	r4, lr, lsr #16
    3e52:	fb0c 5519 	mls	r5, ip, r9, r5
    3e56:	fa1f f883 	uxth.w	r8, r3
    3e5a:	ea44 4505 	orr.w	r5, r4, r5, lsl #16
    3e5e:	fb09 f408 	mul.w	r4, r9, r8
    3e62:	42ac      	cmp	r4, r5
    3e64:	fa02 f201 	lsl.w	r2, r2, r1
    3e68:	fa00 fa01 	lsl.w	sl, r0, r1
    3e6c:	d908      	bls.n	3e80 <__udivmoddi4+0x244>
    3e6e:	18ed      	adds	r5, r5, r3
    3e70:	f109 30ff 	add.w	r0, r9, #4294967295
    3e74:	d243      	bcs.n	3efe <__udivmoddi4+0x2c2>
    3e76:	42ac      	cmp	r4, r5
    3e78:	d941      	bls.n	3efe <__udivmoddi4+0x2c2>
    3e7a:	f1a9 0902 	sub.w	r9, r9, #2
    3e7e:	441d      	add	r5, r3
    3e80:	1b2d      	subs	r5, r5, r4
    3e82:	fa1f fe8e 	uxth.w	lr, lr
    3e86:	fbb5 f0fc 	udiv	r0, r5, ip
    3e8a:	fb0c 5510 	mls	r5, ip, r0, r5
    3e8e:	ea4e 4405 	orr.w	r4, lr, r5, lsl #16
    3e92:	fb00 f808 	mul.w	r8, r0, r8
    3e96:	45a0      	cmp	r8, r4
    3e98:	d907      	bls.n	3eaa <__udivmoddi4+0x26e>
    3e9a:	18e4      	adds	r4, r4, r3
    3e9c:	f100 35ff 	add.w	r5, r0, #4294967295
    3ea0:	d229      	bcs.n	3ef6 <__udivmoddi4+0x2ba>
    3ea2:	45a0      	cmp	r8, r4
    3ea4:	d927      	bls.n	3ef6 <__udivmoddi4+0x2ba>
    3ea6:	3802      	subs	r0, #2
    3ea8:	441c      	add	r4, r3
    3eaa:	ea40 4009 	orr.w	r0, r0, r9, lsl #16
    3eae:	eba4 0408 	sub.w	r4, r4, r8
    3eb2:	fba0 8902 	umull	r8, r9, r0, r2
    3eb6:	454c      	cmp	r4, r9
    3eb8:	46c6      	mov	lr, r8
    3eba:	464d      	mov	r5, r9
    3ebc:	d315      	bcc.n	3eea <__udivmoddi4+0x2ae>
    3ebe:	d012      	beq.n	3ee6 <__udivmoddi4+0x2aa>
    3ec0:	b156      	cbz	r6, 3ed8 <__udivmoddi4+0x29c>
    3ec2:	ebba 030e 	subs.w	r3, sl, lr
    3ec6:	eb64 0405 	sbc.w	r4, r4, r5
    3eca:	fa04 f707 	lsl.w	r7, r4, r7
    3ece:	40cb      	lsrs	r3, r1
    3ed0:	431f      	orrs	r7, r3
    3ed2:	40cc      	lsrs	r4, r1
    3ed4:	6037      	str	r7, [r6, #0]
    3ed6:	6074      	str	r4, [r6, #4]
    3ed8:	2100      	movs	r1, #0
    3eda:	e8bd 87f0 	ldmia.w	sp!, {r4, r5, r6, r7, r8, r9, sl, pc}
    3ede:	4618      	mov	r0, r3
    3ee0:	e6f8      	b.n	3cd4 <__udivmoddi4+0x98>
    3ee2:	4690      	mov	r8, r2
    3ee4:	e6e0      	b.n	3ca8 <__udivmoddi4+0x6c>
    3ee6:	45c2      	cmp	sl, r8
    3ee8:	d2ea      	bcs.n	3ec0 <__udivmoddi4+0x284>
    3eea:	ebb8 0e02 	subs.w	lr, r8, r2
    3eee:	eb69 0503 	sbc.w	r5, r9, r3
    3ef2:	3801      	subs	r0, #1
    3ef4:	e7e4      	b.n	3ec0 <__udivmoddi4+0x284>
    3ef6:	4628      	mov	r0, r5
    3ef8:	e7d7      	b.n	3eaa <__udivmoddi4+0x26e>
    3efa:	4640      	mov	r0, r8
    3efc:	e791      	b.n	3e22 <__udivmoddi4+0x1e6>
    3efe:	4681      	mov	r9, r0
    3f00:	e7be      	b.n	3e80 <__udivmoddi4+0x244>
    3f02:	4601      	mov	r1, r0
    3f04:	e778      	b.n	3df8 <__udivmoddi4+0x1bc>
    3f06:	3802      	subs	r0, #2
    3f08:	443c      	add	r4, r7
    3f0a:	e745      	b.n	3d98 <__udivmoddi4+0x15c>
    3f0c:	4608      	mov	r0, r1
    3f0e:	e708      	b.n	3d22 <__udivmoddi4+0xe6>
    3f10:	f1a8 0802 	sub.w	r8, r8, #2
    3f14:	443d      	add	r5, r7
    3f16:	e72b      	b.n	3d70 <__udivmoddi4+0x134>

00003f18 <__aeabi_idiv0>:
    3f18:	4770      	bx	lr
    3f1a:	bf00      	nop

00003f1c <__libc_init_array>:
    3f1c:	b570      	push	{r4, r5, r6, lr}
    3f1e:	4e0d      	ldr	r6, [pc, #52]	; (3f54 <__libc_init_array+0x38>)
    3f20:	4c0d      	ldr	r4, [pc, #52]	; (3f58 <__libc_init_array+0x3c>)
    3f22:	1ba4      	subs	r4, r4, r6
    3f24:	10a4      	asrs	r4, r4, #2
    3f26:	2500      	movs	r5, #0
    3f28:	42a5      	cmp	r5, r4
    3f2a:	d109      	bne.n	3f40 <__libc_init_array+0x24>
    3f2c:	4e0b      	ldr	r6, [pc, #44]	; (3f5c <__libc_init_array+0x40>)
    3f2e:	4c0c      	ldr	r4, [pc, #48]	; (3f60 <__libc_init_array+0x44>)
    3f30:	f000 f916 	bl	4160 <_init>
    3f34:	1ba4      	subs	r4, r4, r6
    3f36:	10a4      	asrs	r4, r4, #2
    3f38:	2500      	movs	r5, #0
    3f3a:	42a5      	cmp	r5, r4
    3f3c:	d105      	bne.n	3f4a <__libc_init_array+0x2e>
    3f3e:	bd70      	pop	{r4, r5, r6, pc}
    3f40:	f856 3025 	ldr.w	r3, [r6, r5, lsl #2]
    3f44:	4798      	blx	r3
    3f46:	3501      	adds	r5, #1
    3f48:	e7ee      	b.n	3f28 <__libc_init_array+0xc>
    3f4a:	f856 3025 	ldr.w	r3, [r6, r5, lsl #2]
    3f4e:	4798      	blx	r3
    3f50:	3501      	adds	r5, #1
    3f52:	e7f2      	b.n	3f3a <__libc_init_array+0x1e>
    3f54:	0000416c 	.word	0x0000416c
    3f58:	0000416c 	.word	0x0000416c
    3f5c:	0000416c 	.word	0x0000416c
    3f60:	00004170 	.word	0x00004170

00003f64 <memset>:
    3f64:	4402      	add	r2, r0
    3f66:	4603      	mov	r3, r0
    3f68:	4293      	cmp	r3, r2
    3f6a:	d100      	bne.n	3f6e <memset+0xa>
    3f6c:	4770      	bx	lr
    3f6e:	f803 1b01 	strb.w	r1, [r3], #1
    3f72:	e7f9      	b.n	3f68 <memset+0x4>

00003f74 <_adcs>:
    3f74:	0000 0000 0018 0000 1800 0000 0000 0000     ................
	...

00003f8c <_cfgs>:
    3f8c:	5000 0020 0000 0a00 0000 0000 0000 0000     .P .............
	...

0000408c <_map>:
    408c:	0006 0000 0036 0000 0007 0000 0037 0000     ....6.......7...
    409c:	0009 0000 0019 0000 000e 0000 002e 0000     ................
    40ac:	3800 4000 3c00 4000 a000 4101 c000 4101     .8.@.<.@...A...A
    40bc:	1400 4200 1800 4200                         ...B...B

000040c4 <sd_trans_multipliers>:
    40c4:	0000 0000 000a 0000 000c 0000 000d 0000     ................
    40d4:	000f 0000 0014 0000 0019 0000 001e 0000     ................
    40e4:	0023 0000 0028 0000 002d 0000 0032 0000     #...(...-...2...
    40f4:	0037 0000 003c 0000 0046 0000 0050 0000     7...<...F...P...

00004104 <sd_mmc_trans_units>:
    4104:	000a 0000 0064 0000 03e8 0000 2710 0000     ....d........'..
	...

00004120 <mmc_trans_multipliers>:
    4120:	0000 0000 000a 0000 000c 0000 000d 0000     ................
    4130:	000f 0000 0014 0000 001a 0000 001e 0000     ................
    4140:	0023 0000 0028 0000 002d 0000 0034 0000     #...(...-...4...
    4150:	0037 0000 003c 0000 0046 0000 0050 0000     7...<...F...P...

00004160 <_init>:
    4160:	b5f8      	push	{r3, r4, r5, r6, r7, lr}
    4162:	bf00      	nop
    4164:	bcf8      	pop	{r3, r4, r5, r6, r7}
    4166:	bc08      	pop	{r3}
    4168:	469e      	mov	lr, r3
    416a:	4770      	bx	lr

0000416c <__init_array_start>:
    416c:	00000289 	.word	0x00000289

00004170 <_fini>:
    4170:	b5f8      	push	{r3, r4, r5, r6, r7, lr}
    4172:	bf00      	nop
    4174:	bcf8      	pop	{r3, r4, r5, r6, r7}
    4176:	bc08      	pop	{r3}
    4178:	469e      	mov	lr, r3
    417a:	4770      	bx	lr

0000417c <__fini_array_start>:
    417c:	00000265 	.word	0x00000265
