
WFMiniScopeV4.elf:     file format elf32-littlearm

Sections:
Idx Name          Size      VMA       LMA       File off  Algn
  0 .text         00002a5c  00400000  00400000  00010000  2**2
                  CONTENTS, ALLOC, LOAD, READONLY, CODE
  1 .relocate     00000444  20400000  00402a5c  00020000  2**3
                  CONTENTS, ALLOC, LOAD, CODE
  2 .bss          00057fb4  20400448  00402ea8  00020448  2**3
                  ALLOC
  3 .stack        00002004  204583fc  0045ae5c  00020448  2**0
                  ALLOC
  4 .heap         00000200  2045a400  0045ce60  00020448  2**0
                  ALLOC
  5 .ARM.attributes 0000002e  00000000  00000000  00020444  2**0
                  CONTENTS, READONLY
  6 .comment      00000059  00000000  00000000  00020472  2**0
                  CONTENTS, READONLY
  7 .debug_info   0002153b  00000000  00000000  000204cb  2**0
                  CONTENTS, READONLY, DEBUGGING
  8 .debug_abbrev 0000404b  00000000  00000000  00041a06  2**0
                  CONTENTS, READONLY, DEBUGGING
  9 .debug_loc    00007934  00000000  00000000  00045a51  2**0
                  CONTENTS, READONLY, DEBUGGING
 10 .debug_aranges 00000bb8  00000000  00000000  0004d385  2**0
                  CONTENTS, READONLY, DEBUGGING
 11 .debug_ranges 00000e18  00000000  00000000  0004df3d  2**0
                  CONTENTS, READONLY, DEBUGGING
 12 .debug_macro  000211bb  00000000  00000000  0004ed55  2**0
                  CONTENTS, READONLY, DEBUGGING
 13 .debug_line   00011a2d  00000000  00000000  0006ff10  2**0
                  CONTENTS, READONLY, DEBUGGING
 14 .debug_str    0008a5aa  00000000  00000000  0008193d  2**0
                  CONTENTS, READONLY, DEBUGGING
 15 .debug_frame  00001b94  00000000  00000000  0010bee8  2**2
                  CONTENTS, READONLY, DEBUGGING

Disassembly of section .text:

00400000 <exception_table>:
  400000:	00 a4 45 20 81 21 40 00 7d 21 40 00 7d 21 40 00     ..E .!@.}!@.}!@.
  400010:	7d 21 40 00 7d 21 40 00 7d 21 40 00 00 00 00 00     }!@.}!@.}!@.....
	...
  40002c:	7d 21 40 00 7d 21 40 00 00 00 00 00 7d 21 40 00     }!@.}!@.....}!@.
  40003c:	b1 1d 40 00 7d 21 40 00 7d 21 40 00 7d 21 40 00     ..@.}!@.}!@.}!@.
  40004c:	7d 21 40 00 7d 21 40 00 7d 21 40 00 7d 21 40 00     }!@.}!@.}!@.}!@.
  40005c:	7d 21 40 00 7d 21 40 00 00 00 00 00 b5 1b 40 00     }!@.}!@.......@.
  40006c:	0d 11 40 00 00 00 00 00 7d 21 40 00 7d 21 40 00     ..@.....}!@.}!@.
  40007c:	7d 21 40 00 21 11 40 00 00 00 00 00 7d 21 40 00     }!@.!.@.....}!@.
  40008c:	7d 21 40 00 7d 21 40 00 7d 21 40 00 7d 21 40 00     }!@.}!@.}!@.}!@.
  40009c:	7d 21 40 00 7d 21 40 00 7d 21 40 00 00 00 00 00     }!@.}!@.}!@.....
	...
  4000b4:	7d 21 40 00 7d 21 40 00 7d 21 40 00 7d 21 40 00     }!@.}!@.}!@.}!@.
  4000c4:	7d 21 40 00 7d 21 40 00 7d 21 40 00 00 00 00 00     }!@.}!@.}!@.....
  4000d4:	7d 21 40 00 00 00 00 00 7d 21 40 00 7d 21 40 00     }!@.....}!@.}!@.
  4000e4:	7d 21 40 00 7d 21 40 00 7d 21 40 00 7d 21 40 00     }!@.}!@.}!@.}!@.
  4000f4:	7d 21 40 00 7d 21 40 00 00 00 00 00 00 00 00 00     }!@.}!@.........
  400104:	00 00 00 00 7d 21 40 00 7d 21 40 00 7d 21 40 00     ....}!@.}!@.}!@.
	...
  400120:	7d 21 40 00 7d 21 40 00 91 17 40 00 7d 21 40 00     }!@.}!@...@.}!@.
  400130:	7d 21 40 00 00 00 00 00 00 00 00 00 7d 21 40 00     }!@.........}!@.

00400140 <__do_global_dtors_aux>:
  400140:	b510      	push	{r4, lr}
  400142:	4c05      	ldr	r4, [pc, #20]	; (400158 <__do_global_dtors_aux+0x18>)
  400144:	7823      	ldrb	r3, [r4, #0]
  400146:	b933      	cbnz	r3, 400156 <__do_global_dtors_aux+0x16>
  400148:	4b04      	ldr	r3, [pc, #16]	; (40015c <__do_global_dtors_aux+0x1c>)
  40014a:	b113      	cbz	r3, 400152 <__do_global_dtors_aux+0x12>
  40014c:	4804      	ldr	r0, [pc, #16]	; (400160 <__do_global_dtors_aux+0x20>)
  40014e:	f3af 8000 	nop.w
  400152:	2301      	movs	r3, #1
  400154:	7023      	strb	r3, [r4, #0]
  400156:	bd10      	pop	{r4, pc}
  400158:	20400448 	.word	0x20400448
  40015c:	00000000 	.word	0x00000000
  400160:	00402a5c 	.word	0x00402a5c

00400164 <frame_dummy>:
  400164:	4b0c      	ldr	r3, [pc, #48]	; (400198 <frame_dummy+0x34>)
  400166:	b143      	cbz	r3, 40017a <frame_dummy+0x16>
  400168:	480c      	ldr	r0, [pc, #48]	; (40019c <frame_dummy+0x38>)
  40016a:	490d      	ldr	r1, [pc, #52]	; (4001a0 <frame_dummy+0x3c>)
  40016c:	b510      	push	{r4, lr}
  40016e:	f3af 8000 	nop.w
  400172:	480c      	ldr	r0, [pc, #48]	; (4001a4 <frame_dummy+0x40>)
  400174:	6803      	ldr	r3, [r0, #0]
  400176:	b923      	cbnz	r3, 400182 <frame_dummy+0x1e>
  400178:	bd10      	pop	{r4, pc}
  40017a:	480a      	ldr	r0, [pc, #40]	; (4001a4 <frame_dummy+0x40>)
  40017c:	6803      	ldr	r3, [r0, #0]
  40017e:	b933      	cbnz	r3, 40018e <frame_dummy+0x2a>
  400180:	4770      	bx	lr
  400182:	4b09      	ldr	r3, [pc, #36]	; (4001a8 <frame_dummy+0x44>)
  400184:	2b00      	cmp	r3, #0
  400186:	d0f7      	beq.n	400178 <frame_dummy+0x14>
  400188:	e8bd 4010 	ldmia.w	sp!, {r4, lr}
  40018c:	4718      	bx	r3
  40018e:	4b06      	ldr	r3, [pc, #24]	; (4001a8 <frame_dummy+0x44>)
  400190:	2b00      	cmp	r3, #0
  400192:	d0f5      	beq.n	400180 <frame_dummy+0x1c>
  400194:	4718      	bx	r3
  400196:	bf00      	nop
  400198:	00000000 	.word	0x00000000
  40019c:	00402a5c 	.word	0x00402a5c
  4001a0:	2040044c 	.word	0x2040044c
  4001a4:	00402a5c 	.word	0x00402a5c
  4001a8:	00000000 	.word	0x00000000

004001ac <sd_mmc_configure_slot>:

/**
 * \brief Configures the driver with the selected card configuration
 */
static void sd_mmc_configure_slot(void)
{
  4001ac:	b510      	push	{r4, lr}
	driver_select_device(sd_mmc_slot_sel, sd_mmc_card->clock,
  4001ae:	4b06      	ldr	r3, [pc, #24]	; (4001c8 <sd_mmc_configure_slot+0x1c>)
  4001b0:	6819      	ldr	r1, [r3, #0]
  4001b2:	7f8b      	ldrb	r3, [r1, #30]
  4001b4:	3300      	adds	r3, #0
  4001b6:	bf18      	it	ne
  4001b8:	2301      	movne	r3, #1
  4001ba:	7b4a      	ldrb	r2, [r1, #13]
  4001bc:	6809      	ldr	r1, [r1, #0]
  4001be:	4803      	ldr	r0, [pc, #12]	; (4001cc <sd_mmc_configure_slot+0x20>)
  4001c0:	7800      	ldrb	r0, [r0, #0]
  4001c2:	4c03      	ldr	r4, [pc, #12]	; (4001d0 <sd_mmc_configure_slot+0x24>)
  4001c4:	47a0      	blx	r4
  4001c6:	bd10      	pop	{r4, pc}
  4001c8:	20400464 	.word	0x20400464
  4001cc:	2040048c 	.word	0x2040048c
  4001d0:	00400cc5 	.word	0x00400cc5

004001d4 <sd_mmc_select_slot>:
	if (slot >= SD_MMC_MEM_CNT) {
  4001d4:	b108      	cbz	r0, 4001da <sd_mmc_select_slot+0x6>
		return SD_MMC_ERR_SLOT;
  4001d6:	2004      	movs	r0, #4
  4001d8:	4770      	bx	lr
{
  4001da:	b510      	push	{r4, lr}
	if ((sd_mmc_cards[slot].state == SD_MMC_CARD_STATE_NO_CARD)
  4001dc:	4b0e      	ldr	r3, [pc, #56]	; (400218 <sd_mmc_select_slot+0x44>)
			|| (sd_mmc_cards[slot].state == SD_MMC_CARD_STATE_UNUSABLE)) {
  4001de:	7a9b      	ldrb	r3, [r3, #10]
  4001e0:	3b03      	subs	r3, #3
	if ((sd_mmc_cards[slot].state == SD_MMC_CARD_STATE_NO_CARD)
  4001e2:	b2db      	uxtb	r3, r3
  4001e4:	2b01      	cmp	r3, #1
  4001e6:	d90d      	bls.n	400204 <sd_mmc_select_slot+0x30>
	sd_mmc_slot_sel = slot;
  4001e8:	2200      	movs	r2, #0
  4001ea:	4b0c      	ldr	r3, [pc, #48]	; (40021c <sd_mmc_select_slot+0x48>)
  4001ec:	701a      	strb	r2, [r3, #0]
	sd_mmc_card = &sd_mmc_cards[slot];
  4001ee:	4c0a      	ldr	r4, [pc, #40]	; (400218 <sd_mmc_select_slot+0x44>)
  4001f0:	4b0b      	ldr	r3, [pc, #44]	; (400220 <sd_mmc_select_slot+0x4c>)
  4001f2:	601c      	str	r4, [r3, #0]
	sd_mmc_configure_slot();
  4001f4:	4b0b      	ldr	r3, [pc, #44]	; (400224 <sd_mmc_select_slot+0x50>)
  4001f6:	4798      	blx	r3
			SD_MMC_INIT_ONGOING : SD_MMC_OK;
  4001f8:	7aa0      	ldrb	r0, [r4, #10]
  4001fa:	2802      	cmp	r0, #2
  4001fc:	bf14      	ite	ne
  4001fe:	2000      	movne	r0, #0
  400200:	2001      	moveq	r0, #1
  400202:	bd10      	pop	{r4, pc}
		sd_mmc_cards[slot].state = SD_MMC_CARD_STATE_INIT;
  400204:	4b04      	ldr	r3, [pc, #16]	; (400218 <sd_mmc_select_slot+0x44>)
  400206:	2202      	movs	r2, #2
  400208:	729a      	strb	r2, [r3, #10]
		sd_mmc_cards[slot].clock = SDMMC_CLOCK_INIT;
  40020a:	4a07      	ldr	r2, [pc, #28]	; (400228 <sd_mmc_select_slot+0x54>)
  40020c:	601a      	str	r2, [r3, #0]
		sd_mmc_cards[slot].bus_width = 1;
  40020e:	2201      	movs	r2, #1
  400210:	735a      	strb	r2, [r3, #13]
		sd_mmc_cards[slot].high_speed = 0;
  400212:	2200      	movs	r2, #0
  400214:	779a      	strb	r2, [r3, #30]
  400216:	e7e7      	b.n	4001e8 <sd_mmc_select_slot+0x14>
  400218:	20400468 	.word	0x20400468
  40021c:	2040048c 	.word	0x2040048c
  400220:	20400464 	.word	0x20400464
  400224:	004001ad 	.word	0x004001ad
  400228:	00061a80 	.word	0x00061a80

0040022c <sd_mmc_cmd9_mci>:
{
  40022c:	b510      	push	{r4, lr}
	if (!driver_send_cmd(SDMMC_MCI_CMD9_SEND_CSD, (uint32_t)sd_mmc_card->rca << 16)) {
  40022e:	4b09      	ldr	r3, [pc, #36]	; (400254 <sd_mmc_cmd9_mci+0x28>)
  400230:	681b      	ldr	r3, [r3, #0]
  400232:	8919      	ldrh	r1, [r3, #8]
  400234:	0409      	lsls	r1, r1, #16
  400236:	f641 3009 	movw	r0, #6921	; 0x1b09
  40023a:	4b07      	ldr	r3, [pc, #28]	; (400258 <sd_mmc_cmd9_mci+0x2c>)
  40023c:	4798      	blx	r3
  40023e:	4604      	mov	r4, r0
  400240:	b908      	cbnz	r0, 400246 <sd_mmc_cmd9_mci+0x1a>
}
  400242:	4620      	mov	r0, r4
  400244:	bd10      	pop	{r4, pc}
	driver_get_response_128(sd_mmc_card->csd);
  400246:	4b03      	ldr	r3, [pc, #12]	; (400254 <sd_mmc_cmd9_mci+0x28>)
  400248:	6818      	ldr	r0, [r3, #0]
  40024a:	300e      	adds	r0, #14
  40024c:	4b03      	ldr	r3, [pc, #12]	; (40025c <sd_mmc_cmd9_mci+0x30>)
  40024e:	4798      	blx	r3
	return true;
  400250:	e7f7      	b.n	400242 <sd_mmc_cmd9_mci+0x16>
  400252:	bf00      	nop
  400254:	20400464 	.word	0x20400464
  400258:	00400d59 	.word	0x00400d59
  40025c:	00400d85 	.word	0x00400d85

00400260 <sd_mmc_deselect_slot>:

/**
 * \brief Deselect the current card slot
 */
static void sd_mmc_deselect_slot(void)
{
  400260:	b508      	push	{r3, lr}
	if (sd_mmc_slot_sel < SD_MMC_MEM_CNT) {
  400262:	4b04      	ldr	r3, [pc, #16]	; (400274 <sd_mmc_deselect_slot+0x14>)
  400264:	781b      	ldrb	r3, [r3, #0]
  400266:	b103      	cbz	r3, 40026a <sd_mmc_deselect_slot+0xa>
  400268:	bd08      	pop	{r3, pc}
		driver_deselect_device(sd_mmc_slot_sel);
  40026a:	2000      	movs	r0, #0
  40026c:	4b02      	ldr	r3, [pc, #8]	; (400278 <sd_mmc_deselect_slot+0x18>)
  40026e:	4798      	blx	r3
	}
}
  400270:	e7fa      	b.n	400268 <sd_mmc_deselect_slot+0x8>
  400272:	bf00      	nop
  400274:	2040048c 	.word	0x2040048c
  400278:	00400d35 	.word	0x00400d35

0040027c <sd_mmc_init>:

//-------------------------------------------------------------------
//--------------------- PUBLIC FUNCTIONS ----------------------------

void sd_mmc_init(void)
{
  40027c:	b508      	push	{r3, lr}
	pmc_enable_periph_clk(SD_MMC_##slot##_WP_PIO_ID);
	MREPEAT(SD_MMC_MEM_CNT, SD_MMC_ENABLE_WP_PIN, ~)
# undef SD_MMC_ENABLE_WP_PIN
#endif
	for (uint8_t slot = 0; slot < SD_MMC_MEM_CNT; slot++) {
		sd_mmc_cards[slot].state = SD_MMC_CARD_STATE_NO_CARD;
  40027e:	2204      	movs	r2, #4
  400280:	4b03      	ldr	r3, [pc, #12]	; (400290 <sd_mmc_init+0x14>)
  400282:	729a      	strb	r2, [r3, #10]
	}
	sd_mmc_slot_sel = 0xFF; // No slot configurated
  400284:	22ff      	movs	r2, #255	; 0xff
  400286:	4b03      	ldr	r3, [pc, #12]	; (400294 <sd_mmc_init+0x18>)
  400288:	701a      	strb	r2, [r3, #0]
	driver_init();
  40028a:	4b03      	ldr	r3, [pc, #12]	; (400298 <sd_mmc_init+0x1c>)
  40028c:	4798      	blx	r3
  40028e:	bd08      	pop	{r3, pc}
  400290:	20400468 	.word	0x20400468
  400294:	2040048c 	.word	0x2040048c
  400298:	00400c89 	.word	0x00400c89

0040029c <sd_mmc_check>:
{
	return SD_MMC_MEM_CNT;
}

sd_mmc_err_t sd_mmc_check(uint8_t slot)
{
  40029c:	e92d 43f0 	stmdb	sp!, {r4, r5, r6, r7, r8, r9, lr}
  4002a0:	b095      	sub	sp, #84	; 0x54
	sd_mmc_err_t sd_mmc_err;

	sd_mmc_err = sd_mmc_select_slot(slot);
  4002a2:	4b8a      	ldr	r3, [pc, #552]	; (4004cc <sd_mmc_check+0x230>)
  4002a4:	4798      	blx	r3
  4002a6:	4604      	mov	r4, r0
	if (sd_mmc_err != SD_MMC_INIT_ONGOING) {
  4002a8:	2801      	cmp	r0, #1
  4002aa:	d005      	beq.n	4002b8 <sd_mmc_check+0x1c>
		sd_mmc_deselect_slot();
  4002ac:	4b88      	ldr	r3, [pc, #544]	; (4004d0 <sd_mmc_check+0x234>)
  4002ae:	4798      	blx	r3
	}
	sd_mmc_debug("SD/MMC card initialization failed\n\r");
	sd_mmc_card->state = SD_MMC_CARD_STATE_UNUSABLE;
	sd_mmc_deselect_slot();
	return SD_MMC_ERR_UNUSABLE;
}
  4002b0:	4620      	mov	r0, r4
  4002b2:	b015      	add	sp, #84	; 0x54
  4002b4:	e8bd 83f0 	ldmia.w	sp!, {r4, r5, r6, r7, r8, r9, pc}
	sd_mmc_card->type = CARD_TYPE_SD;
  4002b8:	4b86      	ldr	r3, [pc, #536]	; (4004d4 <sd_mmc_check+0x238>)
  4002ba:	681b      	ldr	r3, [r3, #0]
  4002bc:	2201      	movs	r2, #1
  4002be:	72da      	strb	r2, [r3, #11]
	sd_mmc_card->version = CARD_VER_UNKNOWN;
  4002c0:	2500      	movs	r5, #0
  4002c2:	731d      	strb	r5, [r3, #12]
	sd_mmc_card->rca = 0;
  4002c4:	811d      	strh	r5, [r3, #8]
	driver_send_clock();
  4002c6:	4b84      	ldr	r3, [pc, #528]	; (4004d8 <sd_mmc_check+0x23c>)
  4002c8:	4798      	blx	r3
	if (!driver_send_cmd(SDMMC_MCI_CMD0_GO_IDLE_STATE, 0)) {
  4002ca:	4629      	mov	r1, r5
  4002cc:	f44f 4080 	mov.w	r0, #16384	; 0x4000
  4002d0:	4b82      	ldr	r3, [pc, #520]	; (4004dc <sd_mmc_check+0x240>)
  4002d2:	4798      	blx	r3
  4002d4:	b930      	cbnz	r0, 4002e4 <sd_mmc_check+0x48>
	sd_mmc_card->state = SD_MMC_CARD_STATE_UNUSABLE;
  4002d6:	4b7f      	ldr	r3, [pc, #508]	; (4004d4 <sd_mmc_check+0x238>)
  4002d8:	681b      	ldr	r3, [r3, #0]
  4002da:	2403      	movs	r4, #3
  4002dc:	729c      	strb	r4, [r3, #10]
	sd_mmc_deselect_slot();
  4002de:	4b7c      	ldr	r3, [pc, #496]	; (4004d0 <sd_mmc_check+0x234>)
  4002e0:	4798      	blx	r3
	return SD_MMC_ERR_UNUSABLE;
  4002e2:	e7e5      	b.n	4002b0 <sd_mmc_check+0x14>
	if (!driver_send_cmd(SD_CMD8_SEND_IF_COND,
  4002e4:	f44f 71d5 	mov.w	r1, #426	; 0x1aa
  4002e8:	f245 5008 	movw	r0, #21768	; 0x5508
  4002ec:	4b7b      	ldr	r3, [pc, #492]	; (4004dc <sd_mmc_check+0x240>)
  4002ee:	4798      	blx	r3
  4002f0:	2800      	cmp	r0, #0
  4002f2:	f040 8090 	bne.w	400416 <sd_mmc_check+0x17a>
	*v2 = 0;
  4002f6:	2200      	movs	r2, #0
	if (sd_mmc_card->type & CARD_TYPE_SD) {
  4002f8:	4b76      	ldr	r3, [pc, #472]	; (4004d4 <sd_mmc_check+0x238>)
  4002fa:	681b      	ldr	r3, [r3, #0]
  4002fc:	7adb      	ldrb	r3, [r3, #11]
  4002fe:	f013 0f01 	tst.w	r3, #1
  400302:	f040 82a7 	bne.w	400854 <sd_mmc_check+0x5b8>
	if (!driver_send_cmd(SD_CMD3_SEND_RELATIVE_ADDR, 0)) {
  400306:	2100      	movs	r1, #0
  400308:	f245 1003 	movw	r0, #20739	; 0x5103
  40030c:	4b73      	ldr	r3, [pc, #460]	; (4004dc <sd_mmc_check+0x240>)
  40030e:	4798      	blx	r3
  400310:	2800      	cmp	r0, #0
  400312:	d0e0      	beq.n	4002d6 <sd_mmc_check+0x3a>
	sd_mmc_card->rca = (driver_get_response() >> 16) & 0xFFFF;
  400314:	4d6f      	ldr	r5, [pc, #444]	; (4004d4 <sd_mmc_check+0x238>)
  400316:	682e      	ldr	r6, [r5, #0]
  400318:	4b71      	ldr	r3, [pc, #452]	; (4004e0 <sd_mmc_check+0x244>)
  40031a:	4798      	blx	r3
  40031c:	0c00      	lsrs	r0, r0, #16
  40031e:	8130      	strh	r0, [r6, #8]
	if (sd_mmc_card->type & CARD_TYPE_SD) {
  400320:	682b      	ldr	r3, [r5, #0]
  400322:	7adb      	ldrb	r3, [r3, #11]
  400324:	f013 0f01 	tst.w	r3, #1
  400328:	d034      	beq.n	400394 <sd_mmc_check+0xf8>
		if (!sd_mmc_cmd9_mci()) {
  40032a:	4b6e      	ldr	r3, [pc, #440]	; (4004e4 <sd_mmc_check+0x248>)
  40032c:	4798      	blx	r3
  40032e:	2800      	cmp	r0, #0
  400330:	d0d1      	beq.n	4002d6 <sd_mmc_check+0x3a>
	tran_speed = CSD_TRAN_SPEED(sd_mmc_card->csd);
  400332:	682b      	ldr	r3, [r5, #0]
 */
static inline uint32_t SDMMC_UNSTUFF_BITS(uint8_t *reg, uint16_t reg_size,
		uint16_t pos, uint8_t size)
{
	uint32_t value;
	value = reg[((reg_size - pos + 7) / 8) - 1] >> (pos % 8);
  400334:	7c5a      	ldrb	r2, [r3, #17]
	mul = sd_trans_multipliers[(tran_speed >> 3) & 0xF];
  400336:	f3c2 00c3 	ubfx	r0, r2, #3, #4
	unit = sd_mmc_trans_units[tran_speed & 0x7];
  40033a:	f002 0207 	and.w	r2, r2, #7
	sd_mmc_card->clock = unit * mul * 1000;
  40033e:	496a      	ldr	r1, [pc, #424]	; (4004e8 <sd_mmc_check+0x24c>)
  400340:	f851 1022 	ldr.w	r1, [r1, r2, lsl #2]
  400344:	f44f 727a 	mov.w	r2, #1000	; 0x3e8
  400348:	fb02 f201 	mul.w	r2, r2, r1
  40034c:	4967      	ldr	r1, [pc, #412]	; (4004ec <sd_mmc_check+0x250>)
  40034e:	f851 1020 	ldr.w	r1, [r1, r0, lsl #2]
  400352:	fb02 f201 	mul.w	r2, r2, r1
  400356:	601a      	str	r2, [r3, #0]
	if (CSD_STRUCTURE_VERSION(sd_mmc_card->csd) >= SD_CSD_VER_2_0) {
  400358:	7b9a      	ldrb	r2, [r3, #14]
  40035a:	0992      	lsrs	r2, r2, #6
  40035c:	f040 81b3 	bne.w	4006c6 <sd_mmc_check+0x42a>
  400360:	7d99      	ldrb	r1, [r3, #22]
	if (((pos % 8) + size) > 8) {
		value |= (uint32_t)reg[((reg_size - pos + 7) / 8) - 2] << (8 - (pos % 8));
  400362:	7d58      	ldrb	r0, [r3, #21]
	}
	if (((pos % 8) + size) > 16) {
		value |= (uint32_t)reg[((reg_size - pos + 7) / 8) - 3] << (16 - (pos % 8));
  400364:	7d1a      	ldrb	r2, [r3, #20]
  400366:	0292      	lsls	r2, r2, #10
	}
	if (((pos % 8) + size) > 16) {
		value |= (uint32_t)reg[((reg_size - pos + 7) / 8) - 3] << (16 - (pos % 8));
  400368:	ea42 0280 	orr.w	r2, r2, r0, lsl #2
  40036c:	ea42 12a1 	orr.w	r2, r2, r1, asr #6
	value = reg[((reg_size - pos + 7) / 8) - 1] >> (pos % 8);
  400370:	7e18      	ldrb	r0, [r3, #24]
		value |= (uint32_t)reg[((reg_size - pos + 7) / 8) - 2] << (8 - (pos % 8));
  400372:	7dd9      	ldrb	r1, [r3, #23]
  400374:	0049      	lsls	r1, r1, #1
  400376:	ea41 11e0 	orr.w	r1, r1, r0, asr #7
	}
	value &=  ((uint32_t)1 << size) - 1;
  40037a:	f3c2 020b 	ubfx	r2, r2, #0, #12
		uint32_t blocknr = ((SD_CSD_1_0_C_SIZE(sd_mmc_card->csd) + 1) *
  40037e:	3201      	adds	r2, #1
  400380:	f001 0107 	and.w	r1, r1, #7
				(1 << (SD_CSD_1_0_C_SIZE_MULT(sd_mmc_card->csd) + 2)));
  400384:	3102      	adds	r1, #2
		uint32_t blocknr = ((SD_CSD_1_0_C_SIZE(sd_mmc_card->csd) + 1) *
  400386:	408a      	lsls	r2, r1
  400388:	7cd9      	ldrb	r1, [r3, #19]
  40038a:	f001 010f 	and.w	r1, r1, #15
		sd_mmc_card->capacity = blocknr *
  40038e:	408a      	lsls	r2, r1
				/ 1024;
  400390:	0a92      	lsrs	r2, r2, #10
		sd_mmc_card->capacity = blocknr *
  400392:	605a      	str	r2, [r3, #4]
			(uint32_t)sd_mmc_card->rca << 16)) {
  400394:	4b4f      	ldr	r3, [pc, #316]	; (4004d4 <sd_mmc_check+0x238>)
  400396:	681b      	ldr	r3, [r3, #0]
  400398:	8919      	ldrh	r1, [r3, #8]
	if (!driver_send_cmd(SDMMC_CMD7_SELECT_CARD_CMD,
  40039a:	0409      	lsls	r1, r1, #16
  40039c:	f243 1007 	movw	r0, #12551	; 0x3107
  4003a0:	4b4e      	ldr	r3, [pc, #312]	; (4004dc <sd_mmc_check+0x240>)
  4003a2:	4798      	blx	r3
  4003a4:	2800      	cmp	r0, #0
  4003a6:	d096      	beq.n	4002d6 <sd_mmc_check+0x3a>
	if (sd_mmc_card->type & CARD_TYPE_SD) {
  4003a8:	4b4a      	ldr	r3, [pc, #296]	; (4004d4 <sd_mmc_check+0x238>)
  4003aa:	681b      	ldr	r3, [r3, #0]
  4003ac:	7ada      	ldrb	r2, [r3, #11]
  4003ae:	f012 0f01 	tst.w	r2, #1
  4003b2:	f000 8199 	beq.w	4006e8 <sd_mmc_check+0x44c>
	if (!driver_send_cmd(SDMMC_CMD55_APP_CMD, (uint32_t)sd_mmc_card->rca << 16)) {
  4003b6:	8919      	ldrh	r1, [r3, #8]
  4003b8:	0409      	lsls	r1, r1, #16
  4003ba:	f241 1037 	movw	r0, #4407	; 0x1137
  4003be:	4b47      	ldr	r3, [pc, #284]	; (4004dc <sd_mmc_check+0x240>)
  4003c0:	4798      	blx	r3
  4003c2:	2800      	cmp	r0, #0
  4003c4:	d087      	beq.n	4002d6 <sd_mmc_check+0x3a>
	if (!driver_adtc_start(SD_ACMD51_SEND_SCR, 0,
  4003c6:	2301      	movs	r3, #1
  4003c8:	9300      	str	r3, [sp, #0]
  4003ca:	2208      	movs	r2, #8
  4003cc:	2100      	movs	r1, #0
  4003ce:	4848      	ldr	r0, [pc, #288]	; (4004f0 <sd_mmc_check+0x254>)
  4003d0:	4d48      	ldr	r5, [pc, #288]	; (4004f4 <sd_mmc_check+0x258>)
  4003d2:	47a8      	blx	r5
  4003d4:	2800      	cmp	r0, #0
  4003d6:	f43f af7e 	beq.w	4002d6 <sd_mmc_check+0x3a>
	if (!driver_start_read_blocks(scr, 1)) {
  4003da:	2101      	movs	r1, #1
  4003dc:	a804      	add	r0, sp, #16
  4003de:	4b46      	ldr	r3, [pc, #280]	; (4004f8 <sd_mmc_check+0x25c>)
  4003e0:	4798      	blx	r3
  4003e2:	2800      	cmp	r0, #0
  4003e4:	f43f af77 	beq.w	4002d6 <sd_mmc_check+0x3a>
	if (!driver_wait_end_of_read_blocks()) {
  4003e8:	4b44      	ldr	r3, [pc, #272]	; (4004fc <sd_mmc_check+0x260>)
  4003ea:	4798      	blx	r3
  4003ec:	2800      	cmp	r0, #0
  4003ee:	f43f af72 	beq.w	4002d6 <sd_mmc_check+0x3a>
	switch (SD_SCR_SD_SPEC(scr)) {
  4003f2:	f89d 3010 	ldrb.w	r3, [sp, #16]
  4003f6:	f003 030f 	and.w	r3, r3, #15
  4003fa:	2b01      	cmp	r3, #1
  4003fc:	f000 81bb 	beq.w	400776 <sd_mmc_check+0x4da>
  400400:	2b00      	cmp	r3, #0
  400402:	f000 816d 	beq.w	4006e0 <sd_mmc_check+0x444>
  400406:	2b02      	cmp	r3, #2
  400408:	f000 81ba 	beq.w	400780 <sd_mmc_check+0x4e4>
		sd_mmc_card->version = CARD_VER_SD_1_0;
  40040c:	4b31      	ldr	r3, [pc, #196]	; (4004d4 <sd_mmc_check+0x238>)
  40040e:	681b      	ldr	r3, [r3, #0]
  400410:	2210      	movs	r2, #16
  400412:	731a      	strb	r2, [r3, #12]
  400414:	e168      	b.n	4006e8 <sd_mmc_check+0x44c>
	resp = driver_get_response();
  400416:	4b32      	ldr	r3, [pc, #200]	; (4004e0 <sd_mmc_check+0x244>)
  400418:	4798      	blx	r3
	if (resp == 0xFFFFFFFF) {
  40041a:	f1b0 3fff 	cmp.w	r0, #4294967295
  40041e:	f000 8217 	beq.w	400850 <sd_mmc_check+0x5b4>
	if ((resp & (SD_CMD8_MASK_PATTERN | SD_CMD8_MASK_VOLTAGE))
  400422:	f3c0 000b 	ubfx	r0, r0, #0, #12
  400426:	f5b0 7fd5 	cmp.w	r0, #426	; 0x1aa
  40042a:	f47f af54 	bne.w	4002d6 <sd_mmc_check+0x3a>
	*v2 = 1;
  40042e:	2201      	movs	r2, #1
  400430:	e762      	b.n	4002f8 <sd_mmc_check+0x5c>
			if ((resp & OCR_CCS) != 0) {
  400432:	f010 4f80 	tst.w	r0, #1073741824	; 0x40000000
  400436:	d005      	beq.n	400444 <sd_mmc_check+0x1a8>
				sd_mmc_card->type |= CARD_TYPE_HC;
  400438:	4b26      	ldr	r3, [pc, #152]	; (4004d4 <sd_mmc_check+0x238>)
  40043a:	681a      	ldr	r2, [r3, #0]
  40043c:	7ad3      	ldrb	r3, [r2, #11]
  40043e:	f043 0308 	orr.w	r3, r3, #8
  400442:	72d3      	strb	r3, [r2, #11]
	if (sd_mmc_card->type & CARD_TYPE_SD) {
  400444:	4b23      	ldr	r3, [pc, #140]	; (4004d4 <sd_mmc_check+0x238>)
  400446:	681b      	ldr	r3, [r3, #0]
  400448:	7adb      	ldrb	r3, [r3, #11]
  40044a:	f013 0f01 	tst.w	r3, #1
  40044e:	f43f af5a 	beq.w	400306 <sd_mmc_check+0x6a>
		if (!driver_send_cmd(SDMMC_CMD2_ALL_SEND_CID, 0)) {
  400452:	2100      	movs	r1, #0
  400454:	f645 3002 	movw	r0, #23298	; 0x5b02
  400458:	4b20      	ldr	r3, [pc, #128]	; (4004dc <sd_mmc_check+0x240>)
  40045a:	4798      	blx	r3
  40045c:	2800      	cmp	r0, #0
  40045e:	f47f af52 	bne.w	400306 <sd_mmc_check+0x6a>
  400462:	e738      	b.n	4002d6 <sd_mmc_check+0x3a>
			if ((resp & OCR_ACCESS_MODE_MASK)
  400464:	f000 40c0 	and.w	r0, r0, #1610612736	; 0x60000000
  400468:	f1b0 4f80 	cmp.w	r0, #1073741824	; 0x40000000
  40046c:	d027      	beq.n	4004be <sd_mmc_check+0x222>
	if (!driver_send_cmd(SDMMC_CMD2_ALL_SEND_CID, 0)) {
  40046e:	2100      	movs	r1, #0
  400470:	f645 3002 	movw	r0, #23298	; 0x5b02
  400474:	4b19      	ldr	r3, [pc, #100]	; (4004dc <sd_mmc_check+0x240>)
  400476:	4798      	blx	r3
  400478:	2800      	cmp	r0, #0
  40047a:	f43f af2c 	beq.w	4002d6 <sd_mmc_check+0x3a>
	sd_mmc_card->rca = 1;
  40047e:	4b15      	ldr	r3, [pc, #84]	; (4004d4 <sd_mmc_check+0x238>)
  400480:	681b      	ldr	r3, [r3, #0]
  400482:	2201      	movs	r2, #1
  400484:	811a      	strh	r2, [r3, #8]
	if (!driver_send_cmd(MMC_CMD3_SET_RELATIVE_ADDR,
  400486:	f44f 3180 	mov.w	r1, #65536	; 0x10000
  40048a:	f241 1003 	movw	r0, #4355	; 0x1103
  40048e:	4b13      	ldr	r3, [pc, #76]	; (4004dc <sd_mmc_check+0x240>)
  400490:	4798      	blx	r3
  400492:	2800      	cmp	r0, #0
  400494:	f43f af1f 	beq.w	4002d6 <sd_mmc_check+0x3a>
	if (!sd_mmc_cmd9_mci()) {
  400498:	4b12      	ldr	r3, [pc, #72]	; (4004e4 <sd_mmc_check+0x248>)
  40049a:	4798      	blx	r3
  40049c:	2800      	cmp	r0, #0
  40049e:	f43f af1a 	beq.w	4002d6 <sd_mmc_check+0x3a>
	switch (MMC_CSD_SPEC_VERS(sd_mmc_card->csd)) {
  4004a2:	4b0c      	ldr	r3, [pc, #48]	; (4004d4 <sd_mmc_check+0x238>)
  4004a4:	681a      	ldr	r2, [r3, #0]
	value = reg[((reg_size - pos + 7) / 8) - 1] >> (pos % 8);
  4004a6:	7b93      	ldrb	r3, [r2, #14]
	value &=  ((uint32_t)1 << size) - 1;
  4004a8:	f3c3 0383 	ubfx	r3, r3, #2, #4
  4004ac:	3b01      	subs	r3, #1
  4004ae:	2b03      	cmp	r3, #3
  4004b0:	d826      	bhi.n	400500 <sd_mmc_check+0x264>
  4004b2:	e8df f013 	tbh	[pc, r3, lsl #1]
  4004b6:	00ef      	.short	0x00ef
  4004b8:	00f500f2 	.word	0x00f500f2
  4004bc:	00f8      	.short	0x00f8
				sd_mmc_card->type |= CARD_TYPE_HC;
  4004be:	4b05      	ldr	r3, [pc, #20]	; (4004d4 <sd_mmc_check+0x238>)
  4004c0:	681a      	ldr	r2, [r3, #0]
  4004c2:	7ad3      	ldrb	r3, [r2, #11]
  4004c4:	f043 0308 	orr.w	r3, r3, #8
  4004c8:	72d3      	strb	r3, [r2, #11]
  4004ca:	e7d0      	b.n	40046e <sd_mmc_check+0x1d2>
  4004cc:	004001d5 	.word	0x004001d5
  4004d0:	00400261 	.word	0x00400261
  4004d4:	20400464 	.word	0x20400464
  4004d8:	00400d37 	.word	0x00400d37
  4004dc:	00400d59 	.word	0x00400d59
  4004e0:	00400d7d 	.word	0x00400d7d
  4004e4:	0040022d 	.word	0x0040022d
  4004e8:	004029d4 	.word	0x004029d4
  4004ec:	004029f0 	.word	0x004029f0
  4004f0:	00081133 	.word	0x00081133
  4004f4:	00400db5 	.word	0x00400db5
  4004f8:	00400ef1 	.word	0x00400ef1
  4004fc:	00400f55 	.word	0x00400f55
		sd_mmc_card->version = CARD_VER_MMC_1_2;
  400500:	2312      	movs	r3, #18
  400502:	7313      	strb	r3, [r2, #12]
	value = reg[((reg_size - pos + 7) / 8) - 1] >> (pos % 8);
  400504:	7c53      	ldrb	r3, [r2, #17]
	mul = mmc_trans_multipliers[(tran_speed >> 3) & 0xF];
  400506:	f3c3 00c3 	ubfx	r0, r3, #3, #4
	unit = sd_mmc_trans_units[tran_speed & 0x7];
  40050a:	f003 0307 	and.w	r3, r3, #7
	sd_mmc_card->clock = unit * mul * 1000;
  40050e:	49a1      	ldr	r1, [pc, #644]	; (400794 <sd_mmc_check+0x4f8>)
  400510:	f851 1023 	ldr.w	r1, [r1, r3, lsl #2]
  400514:	f44f 737a 	mov.w	r3, #1000	; 0x3e8
  400518:	fb03 f301 	mul.w	r3, r3, r1
  40051c:	499e      	ldr	r1, [pc, #632]	; (400798 <sd_mmc_check+0x4fc>)
  40051e:	f851 1020 	ldr.w	r1, [r1, r0, lsl #2]
  400522:	fb03 f301 	mul.w	r3, r3, r1
  400526:	6013      	str	r3, [r2, #0]
  400528:	7d91      	ldrb	r1, [r2, #22]
		value |= (uint32_t)reg[((reg_size - pos + 7) / 8) - 2] << (8 - (pos % 8));
  40052a:	7d50      	ldrb	r0, [r2, #21]
		value |= (uint32_t)reg[((reg_size - pos + 7) / 8) - 3] << (16 - (pos % 8));
  40052c:	7d13      	ldrb	r3, [r2, #20]
  40052e:	029b      	lsls	r3, r3, #10
		value |= (uint32_t)reg[((reg_size - pos + 7) / 8) - 3] << (16 - (pos % 8));
  400530:	ea43 0380 	orr.w	r3, r3, r0, lsl #2
  400534:	ea43 13a1 	orr.w	r3, r3, r1, asr #6
	value &=  ((uint32_t)1 << size) - 1;
  400538:	f3c3 030b 	ubfx	r3, r3, #0, #12
	if (MMC_CSD_C_SIZE(sd_mmc_card->csd) != 0xFFF) {
  40053c:	f640 71ff 	movw	r1, #4095	; 0xfff
  400540:	428b      	cmp	r3, r1
  400542:	d00f      	beq.n	400564 <sd_mmc_check+0x2c8>
	value = reg[((reg_size - pos + 7) / 8) - 1] >> (pos % 8);
  400544:	7e10      	ldrb	r0, [r2, #24]
		value |= (uint32_t)reg[((reg_size - pos + 7) / 8) - 2] << (8 - (pos % 8));
  400546:	7dd1      	ldrb	r1, [r2, #23]
  400548:	0049      	lsls	r1, r1, #1
  40054a:	ea41 11e0 	orr.w	r1, r1, r0, asr #7
		uint32_t blocknr = ((MMC_CSD_C_SIZE(sd_mmc_card->csd) + 1) *
  40054e:	3301      	adds	r3, #1
	value &=  ((uint32_t)1 << size) - 1;
  400550:	f001 0107 	and.w	r1, r1, #7
			(1 << (MMC_CSD_C_SIZE_MULT(sd_mmc_card->csd) + 2)));
  400554:	3102      	adds	r1, #2
		uint32_t blocknr = ((MMC_CSD_C_SIZE(sd_mmc_card->csd) + 1) *
  400556:	408b      	lsls	r3, r1
  400558:	7cd1      	ldrb	r1, [r2, #19]
  40055a:	f001 010f 	and.w	r1, r1, #15
		sd_mmc_card->capacity = blocknr *
  40055e:	408b      	lsls	r3, r1
			(1 << MMC_CSD_READ_BL_LEN(sd_mmc_card->csd)) / 1024;
  400560:	0a9b      	lsrs	r3, r3, #10
		sd_mmc_card->capacity = blocknr *
  400562:	6053      	str	r3, [r2, #4]
			(uint32_t)sd_mmc_card->rca << 16)) {
  400564:	8911      	ldrh	r1, [r2, #8]
	if (!driver_send_cmd(SDMMC_CMD7_SELECT_CARD_CMD,
  400566:	0409      	lsls	r1, r1, #16
  400568:	f243 1007 	movw	r0, #12551	; 0x3107
  40056c:	4b8b      	ldr	r3, [pc, #556]	; (40079c <sd_mmc_check+0x500>)
  40056e:	4798      	blx	r3
  400570:	2800      	cmp	r0, #0
  400572:	f43f aeb0 	beq.w	4002d6 <sd_mmc_check+0x3a>
	if (sd_mmc_card->version >= CARD_VER_MMC_4) {
  400576:	4b8a      	ldr	r3, [pc, #552]	; (4007a0 <sd_mmc_check+0x504>)
  400578:	681b      	ldr	r3, [r3, #0]
  40057a:	7b1b      	ldrb	r3, [r3, #12]
  40057c:	2b3f      	cmp	r3, #63	; 0x3f
  40057e:	f240 809f 	bls.w	4006c0 <sd_mmc_check+0x424>
	if (!driver_adtc_start(MMC_CMD8_SEND_EXT_CSD, 0,
  400582:	2100      	movs	r1, #0
  400584:	9100      	str	r1, [sp, #0]
  400586:	2301      	movs	r3, #1
  400588:	f44f 7200 	mov.w	r2, #512	; 0x200
  40058c:	4885      	ldr	r0, [pc, #532]	; (4007a4 <sd_mmc_check+0x508>)
  40058e:	4d86      	ldr	r5, [pc, #536]	; (4007a8 <sd_mmc_check+0x50c>)
  400590:	47a8      	blx	r5
  400592:	2800      	cmp	r0, #0
  400594:	f43f ae9f 	beq.w	4002d6 <sd_mmc_check+0x3a>
  400598:	2500      	movs	r5, #0
		if (!driver_read_word(&ext_csd)) {
  40059a:	4e84      	ldr	r6, [pc, #528]	; (4007ac <sd_mmc_check+0x510>)
  40059c:	a803      	add	r0, sp, #12
  40059e:	47b0      	blx	r6
  4005a0:	2800      	cmp	r0, #0
  4005a2:	f43f ae98 	beq.w	4002d6 <sd_mmc_check+0x3a>
	for (i = 0; i < (EXT_CSD_CARD_TYPE_INDEX + 4) / 4; i++) {
  4005a6:	3501      	adds	r5, #1
  4005a8:	b2ad      	uxth	r5, r5
  4005aa:	2d32      	cmp	r5, #50	; 0x32
  4005ac:	d1f6      	bne.n	40059c <sd_mmc_check+0x300>
			& MMC_CTYPE_52MHZ;
  4005ae:	9e03      	ldr	r6, [sp, #12]
  4005b0:	f006 0602 	and.w	r6, r6, #2
	if (MMC_CSD_C_SIZE(sd_mmc_card->csd) == 0xFFF) {
  4005b4:	4b7a      	ldr	r3, [pc, #488]	; (4007a0 <sd_mmc_check+0x504>)
  4005b6:	681b      	ldr	r3, [r3, #0]
	value = reg[((reg_size - pos + 7) / 8) - 1] >> (pos % 8);
  4005b8:	7d9a      	ldrb	r2, [r3, #22]
		value |= (uint32_t)reg[((reg_size - pos + 7) / 8) - 2] << (8 - (pos % 8));
  4005ba:	7d59      	ldrb	r1, [r3, #21]
		value |= (uint32_t)reg[((reg_size - pos + 7) / 8) - 3] << (16 - (pos % 8));
  4005bc:	7d1b      	ldrb	r3, [r3, #20]
  4005be:	029b      	lsls	r3, r3, #10
		value |= (uint32_t)reg[((reg_size - pos + 7) / 8) - 3] << (16 - (pos % 8));
  4005c0:	ea43 0381 	orr.w	r3, r3, r1, lsl #2
  4005c4:	ea43 13a2 	orr.w	r3, r3, r2, asr #6
	value &=  ((uint32_t)1 << size) - 1;
  4005c8:	f3c3 030b 	ubfx	r3, r3, #0, #12
  4005cc:	f640 72ff 	movw	r2, #4095	; 0xfff
  4005d0:	4293      	cmp	r3, r2
  4005d2:	d10e      	bne.n	4005f2 <sd_mmc_check+0x356>
			if (!driver_read_word(&sec_count)) {
  4005d4:	4f75      	ldr	r7, [pc, #468]	; (4007ac <sd_mmc_check+0x510>)
  4005d6:	a804      	add	r0, sp, #16
  4005d8:	47b8      	blx	r7
  4005da:	2800      	cmp	r0, #0
  4005dc:	f43f ae7b 	beq.w	4002d6 <sd_mmc_check+0x3a>
		for (; i <(EXT_CSD_SEC_COUNT_INDEX + 4) / 4; i++) {
  4005e0:	3501      	adds	r5, #1
  4005e2:	b2ad      	uxth	r5, r5
  4005e4:	2d35      	cmp	r5, #53	; 0x35
  4005e6:	d9f6      	bls.n	4005d6 <sd_mmc_check+0x33a>
		sd_mmc_card->capacity = sec_count / 2;
  4005e8:	4b6d      	ldr	r3, [pc, #436]	; (4007a0 <sd_mmc_check+0x504>)
  4005ea:	681a      	ldr	r2, [r3, #0]
  4005ec:	9b04      	ldr	r3, [sp, #16]
  4005ee:	085b      	lsrs	r3, r3, #1
  4005f0:	6053      	str	r3, [r2, #4]
		if (!driver_read_word(&sec_count)) {
  4005f2:	4f6e      	ldr	r7, [pc, #440]	; (4007ac <sd_mmc_check+0x510>)
	for (; i < EXT_CSD_BSIZE / 4; i++) {
  4005f4:	2d7f      	cmp	r5, #127	; 0x7f
  4005f6:	d959      	bls.n	4006ac <sd_mmc_check+0x410>
		if (4 <= driver_get_bus_width(sd_mmc_slot_sel)) {
  4005f8:	4b6d      	ldr	r3, [pc, #436]	; (4007b0 <sd_mmc_check+0x514>)
  4005fa:	7818      	ldrb	r0, [r3, #0]
  4005fc:	4b6d      	ldr	r3, [pc, #436]	; (4007b4 <sd_mmc_check+0x518>)
  4005fe:	4798      	blx	r3
  400600:	2803      	cmp	r0, #3
  400602:	d91d      	bls.n	400640 <sd_mmc_check+0x3a4>
			if (!mmc_cmd6_set_bus_width(driver_get_bus_width(sd_mmc_slot_sel))) {
  400604:	4b6a      	ldr	r3, [pc, #424]	; (4007b0 <sd_mmc_check+0x514>)
  400606:	7818      	ldrb	r0, [r3, #0]
  400608:	4b6a      	ldr	r3, [pc, #424]	; (4007b4 <sd_mmc_check+0x518>)
  40060a:	4798      	blx	r3
  40060c:	4605      	mov	r5, r0
	switch (bus_width) {
  40060e:	2804      	cmp	r0, #4
  400610:	d054      	beq.n	4006bc <sd_mmc_check+0x420>
		arg = MMC_CMD6_ACCESS_SET_BITS
  400612:	4b69      	ldr	r3, [pc, #420]	; (4007b8 <sd_mmc_check+0x51c>)
  400614:	4969      	ldr	r1, [pc, #420]	; (4007bc <sd_mmc_check+0x520>)
  400616:	2808      	cmp	r0, #8
  400618:	bf18      	it	ne
  40061a:	4619      	movne	r1, r3
	if (!driver_send_cmd(MMC_CMD6_SWITCH, arg)) {
  40061c:	f243 1006 	movw	r0, #12550	; 0x3106
  400620:	4b5e      	ldr	r3, [pc, #376]	; (40079c <sd_mmc_check+0x500>)
  400622:	4798      	blx	r3
  400624:	2800      	cmp	r0, #0
  400626:	f43f ae56 	beq.w	4002d6 <sd_mmc_check+0x3a>
	if (driver_get_response() & CARD_STATUS_SWITCH_ERROR) {
  40062a:	4b65      	ldr	r3, [pc, #404]	; (4007c0 <sd_mmc_check+0x524>)
  40062c:	4798      	blx	r3
  40062e:	f010 0f80 	tst.w	r0, #128	; 0x80
  400632:	f47f ae50 	bne.w	4002d6 <sd_mmc_check+0x3a>
	sd_mmc_card->bus_width = bus_width;
  400636:	4b5a      	ldr	r3, [pc, #360]	; (4007a0 <sd_mmc_check+0x504>)
  400638:	681b      	ldr	r3, [r3, #0]
  40063a:	735d      	strb	r5, [r3, #13]
			sd_mmc_configure_slot();
  40063c:	4b61      	ldr	r3, [pc, #388]	; (4007c4 <sd_mmc_check+0x528>)
  40063e:	4798      	blx	r3
		if (driver_is_high_speed_capable() && b_authorize_high_speed) {
  400640:	4b61      	ldr	r3, [pc, #388]	; (4007c8 <sd_mmc_check+0x52c>)
  400642:	4798      	blx	r3
  400644:	b1b6      	cbz	r6, 400674 <sd_mmc_check+0x3d8>
  400646:	b1a8      	cbz	r0, 400674 <sd_mmc_check+0x3d8>
	if (!driver_send_cmd(MMC_CMD6_SWITCH,
  400648:	4960      	ldr	r1, [pc, #384]	; (4007cc <sd_mmc_check+0x530>)
  40064a:	f243 1006 	movw	r0, #12550	; 0x3106
  40064e:	4b53      	ldr	r3, [pc, #332]	; (40079c <sd_mmc_check+0x500>)
  400650:	4798      	blx	r3
  400652:	2800      	cmp	r0, #0
  400654:	f43f ae3f 	beq.w	4002d6 <sd_mmc_check+0x3a>
	if (driver_get_response() & CARD_STATUS_SWITCH_ERROR) {
  400658:	4b59      	ldr	r3, [pc, #356]	; (4007c0 <sd_mmc_check+0x524>)
  40065a:	4798      	blx	r3
  40065c:	f010 0f80 	tst.w	r0, #128	; 0x80
  400660:	f47f ae39 	bne.w	4002d6 <sd_mmc_check+0x3a>
	sd_mmc_card->high_speed = 1;
  400664:	4b4e      	ldr	r3, [pc, #312]	; (4007a0 <sd_mmc_check+0x504>)
  400666:	681b      	ldr	r3, [r3, #0]
  400668:	2201      	movs	r2, #1
  40066a:	779a      	strb	r2, [r3, #30]
	sd_mmc_card->clock = 52000000lu;
  40066c:	4a58      	ldr	r2, [pc, #352]	; (4007d0 <sd_mmc_check+0x534>)
  40066e:	601a      	str	r2, [r3, #0]
			sd_mmc_configure_slot();
  400670:	4b54      	ldr	r3, [pc, #336]	; (4007c4 <sd_mmc_check+0x528>)
  400672:	4798      	blx	r3
		arg = MMC_CMD6_ACCESS_SET_BITS
  400674:	250a      	movs	r5, #10
		if (driver_send_cmd(SDMMC_CMD16_SET_BLOCKLEN, SD_MMC_BLOCK_SIZE)) {
  400676:	f44f 7800 	mov.w	r8, #512	; 0x200
  40067a:	f241 1710 	movw	r7, #4368	; 0x1110
  40067e:	4e47      	ldr	r6, [pc, #284]	; (40079c <sd_mmc_check+0x500>)
  400680:	4641      	mov	r1, r8
  400682:	4638      	mov	r0, r7
  400684:	47b0      	blx	r6
  400686:	2800      	cmp	r0, #0
  400688:	d16e      	bne.n	400768 <sd_mmc_check+0x4cc>
  40068a:	3d01      	subs	r5, #1
	while (retry--) {
  40068c:	f015 05ff 	ands.w	r5, r5, #255	; 0xff
  400690:	d1f6      	bne.n	400680 <sd_mmc_check+0x3e4>
  400692:	e620      	b.n	4002d6 <sd_mmc_check+0x3a>
		sd_mmc_card->version = CARD_VER_MMC_1_4;
  400694:	2314      	movs	r3, #20
  400696:	7313      	strb	r3, [r2, #12]
  400698:	e734      	b.n	400504 <sd_mmc_check+0x268>
		sd_mmc_card->version = CARD_VER_MMC_2_2;
  40069a:	2322      	movs	r3, #34	; 0x22
  40069c:	7313      	strb	r3, [r2, #12]
  40069e:	e731      	b.n	400504 <sd_mmc_check+0x268>
		sd_mmc_card->version = CARD_VER_MMC_3;
  4006a0:	2330      	movs	r3, #48	; 0x30
  4006a2:	7313      	strb	r3, [r2, #12]
  4006a4:	e72e      	b.n	400504 <sd_mmc_check+0x268>
		sd_mmc_card->version = CARD_VER_MMC_4;
  4006a6:	2340      	movs	r3, #64	; 0x40
  4006a8:	7313      	strb	r3, [r2, #12]
  4006aa:	e72b      	b.n	400504 <sd_mmc_check+0x268>
		if (!driver_read_word(&sec_count)) {
  4006ac:	a804      	add	r0, sp, #16
  4006ae:	47b8      	blx	r7
  4006b0:	2800      	cmp	r0, #0
  4006b2:	f43f ae10 	beq.w	4002d6 <sd_mmc_check+0x3a>
	for (; i < EXT_CSD_BSIZE / 4; i++) {
  4006b6:	3501      	adds	r5, #1
  4006b8:	b2ad      	uxth	r5, r5
  4006ba:	e79b      	b.n	4005f4 <sd_mmc_check+0x358>
		arg = MMC_CMD6_ACCESS_SET_BITS
  4006bc:	4945      	ldr	r1, [pc, #276]	; (4007d4 <sd_mmc_check+0x538>)
  4006be:	e7ad      	b.n	40061c <sd_mmc_check+0x380>
		sd_mmc_configure_slot();
  4006c0:	4b40      	ldr	r3, [pc, #256]	; (4007c4 <sd_mmc_check+0x528>)
  4006c2:	4798      	blx	r3
  4006c4:	e7d6      	b.n	400674 <sd_mmc_check+0x3d8>
	value = reg[((reg_size - pos + 7) / 8) - 1] >> (pos % 8);
  4006c6:	7dd9      	ldrb	r1, [r3, #23]
		value |= (uint32_t)reg[((reg_size - pos + 7) / 8) - 2] << (8 - (pos % 8));
  4006c8:	7d98      	ldrb	r0, [r3, #22]
		value |= (uint32_t)reg[((reg_size - pos + 7) / 8) - 3] << (16 - (pos % 8));
  4006ca:	7d5a      	ldrb	r2, [r3, #21]
  4006cc:	0412      	lsls	r2, r2, #16
		value |= (uint32_t)reg[((reg_size - pos + 7) / 8) - 3] << (16 - (pos % 8));
  4006ce:	ea42 2200 	orr.w	r2, r2, r0, lsl #8
  4006d2:	430a      	orrs	r2, r1
	value &=  ((uint32_t)1 << size) - 1;
  4006d4:	f3c2 0215 	ubfx	r2, r2, #0, #22
				* 512;
  4006d8:	3201      	adds	r2, #1
  4006da:	0252      	lsls	r2, r2, #9
		sd_mmc_card->capacity =
  4006dc:	605a      	str	r2, [r3, #4]
  4006de:	e659      	b.n	400394 <sd_mmc_check+0xf8>
		sd_mmc_card->version = CARD_VER_SD_1_0;
  4006e0:	4b2f      	ldr	r3, [pc, #188]	; (4007a0 <sd_mmc_check+0x504>)
  4006e2:	681b      	ldr	r3, [r3, #0]
  4006e4:	2210      	movs	r2, #16
  4006e6:	731a      	strb	r2, [r3, #12]
	if ((4 <= driver_get_bus_width(sd_mmc_slot_sel))) {
  4006e8:	4b31      	ldr	r3, [pc, #196]	; (4007b0 <sd_mmc_check+0x514>)
  4006ea:	7818      	ldrb	r0, [r3, #0]
  4006ec:	4b31      	ldr	r3, [pc, #196]	; (4007b4 <sd_mmc_check+0x518>)
  4006ee:	4798      	blx	r3
  4006f0:	2803      	cmp	r0, #3
  4006f2:	d91c      	bls.n	40072e <sd_mmc_check+0x492>
		if (sd_mmc_card->type & CARD_TYPE_SD) {
  4006f4:	4b2a      	ldr	r3, [pc, #168]	; (4007a0 <sd_mmc_check+0x504>)
  4006f6:	681b      	ldr	r3, [r3, #0]
  4006f8:	7ada      	ldrb	r2, [r3, #11]
  4006fa:	f012 0f01 	tst.w	r2, #1
  4006fe:	d014      	beq.n	40072a <sd_mmc_check+0x48e>
	if (!driver_send_cmd(SDMMC_CMD55_APP_CMD, (uint32_t)sd_mmc_card->rca << 16)) {
  400700:	8919      	ldrh	r1, [r3, #8]
  400702:	0409      	lsls	r1, r1, #16
  400704:	f241 1037 	movw	r0, #4407	; 0x1137
  400708:	4b24      	ldr	r3, [pc, #144]	; (40079c <sd_mmc_check+0x500>)
  40070a:	4798      	blx	r3
  40070c:	2800      	cmp	r0, #0
  40070e:	f43f ade2 	beq.w	4002d6 <sd_mmc_check+0x3a>
	if (!driver_send_cmd(SD_ACMD6_SET_BUS_WIDTH, 0x2)) {
  400712:	2102      	movs	r1, #2
  400714:	f241 1006 	movw	r0, #4358	; 0x1106
  400718:	4b20      	ldr	r3, [pc, #128]	; (40079c <sd_mmc_check+0x500>)
  40071a:	4798      	blx	r3
  40071c:	2800      	cmp	r0, #0
  40071e:	f43f adda 	beq.w	4002d6 <sd_mmc_check+0x3a>
	sd_mmc_card->bus_width = 4;
  400722:	4b1f      	ldr	r3, [pc, #124]	; (4007a0 <sd_mmc_check+0x504>)
  400724:	681b      	ldr	r3, [r3, #0]
  400726:	2204      	movs	r2, #4
  400728:	735a      	strb	r2, [r3, #13]
		sd_mmc_configure_slot();
  40072a:	4b26      	ldr	r3, [pc, #152]	; (4007c4 <sd_mmc_check+0x528>)
  40072c:	4798      	blx	r3
	if (driver_is_high_speed_capable()) {
  40072e:	4b26      	ldr	r3, [pc, #152]	; (4007c8 <sd_mmc_check+0x52c>)
  400730:	4798      	blx	r3
  400732:	b150      	cbz	r0, 40074a <sd_mmc_check+0x4ae>
		if (sd_mmc_card->type & CARD_TYPE_SD) {
  400734:	4b1a      	ldr	r3, [pc, #104]	; (4007a0 <sd_mmc_check+0x504>)
  400736:	681b      	ldr	r3, [r3, #0]
  400738:	7ada      	ldrb	r2, [r3, #11]
  40073a:	f012 0f01 	tst.w	r2, #1
  40073e:	d002      	beq.n	400746 <sd_mmc_check+0x4aa>
			if (sd_mmc_card->version > CARD_VER_SD_1_0) {
  400740:	7b1b      	ldrb	r3, [r3, #12]
  400742:	2b10      	cmp	r3, #16
  400744:	d84a      	bhi.n	4007dc <sd_mmc_check+0x540>
		sd_mmc_configure_slot();
  400746:	4b1f      	ldr	r3, [pc, #124]	; (4007c4 <sd_mmc_check+0x528>)
  400748:	4798      	blx	r3
	if (sd_mmc_card->type & CARD_TYPE_SD) {
  40074a:	4b15      	ldr	r3, [pc, #84]	; (4007a0 <sd_mmc_check+0x504>)
  40074c:	681b      	ldr	r3, [r3, #0]
  40074e:	7adb      	ldrb	r3, [r3, #11]
  400750:	f013 0f01 	tst.w	r3, #1
  400754:	d008      	beq.n	400768 <sd_mmc_check+0x4cc>
		if (!driver_send_cmd(SDMMC_CMD16_SET_BLOCKLEN, SD_MMC_BLOCK_SIZE)) {
  400756:	f44f 7100 	mov.w	r1, #512	; 0x200
  40075a:	f241 1010 	movw	r0, #4368	; 0x1110
  40075e:	4b0f      	ldr	r3, [pc, #60]	; (40079c <sd_mmc_check+0x500>)
  400760:	4798      	blx	r3
	if (sd_mmc_is_spi()? sd_mmc_spi_card_init()
  400762:	2800      	cmp	r0, #0
  400764:	f43f adb7 	beq.w	4002d6 <sd_mmc_check+0x3a>
		sd_mmc_card->state = SD_MMC_CARD_STATE_READY;
  400768:	4b0d      	ldr	r3, [pc, #52]	; (4007a0 <sd_mmc_check+0x504>)
  40076a:	681b      	ldr	r3, [r3, #0]
  40076c:	2200      	movs	r2, #0
  40076e:	729a      	strb	r2, [r3, #10]
		sd_mmc_deselect_slot();
  400770:	4b19      	ldr	r3, [pc, #100]	; (4007d8 <sd_mmc_check+0x53c>)
  400772:	4798      	blx	r3
		return SD_MMC_INIT_ONGOING;
  400774:	e59c      	b.n	4002b0 <sd_mmc_check+0x14>
		sd_mmc_card->version = CARD_VER_SD_1_10;
  400776:	4b0a      	ldr	r3, [pc, #40]	; (4007a0 <sd_mmc_check+0x504>)
  400778:	681b      	ldr	r3, [r3, #0]
  40077a:	221a      	movs	r2, #26
  40077c:	731a      	strb	r2, [r3, #12]
  40077e:	e7b3      	b.n	4006e8 <sd_mmc_check+0x44c>
		if (SD_SCR_SD_SPEC3(scr) == SD_SCR_SD_SPEC_3_00) {
  400780:	f89d 3012 	ldrb.w	r3, [sp, #18]
  400784:	09db      	lsrs	r3, r3, #7
			sd_mmc_card->version = CARD_VER_SD_3_0;
  400786:	4b06      	ldr	r3, [pc, #24]	; (4007a0 <sd_mmc_check+0x504>)
  400788:	681b      	ldr	r3, [r3, #0]
  40078a:	bf14      	ite	ne
  40078c:	2230      	movne	r2, #48	; 0x30
			sd_mmc_card->version = CARD_VER_SD_2_0;
  40078e:	2220      	moveq	r2, #32
  400790:	731a      	strb	r2, [r3, #12]
  400792:	e7a9      	b.n	4006e8 <sd_mmc_check+0x44c>
  400794:	004029d4 	.word	0x004029d4
  400798:	00402994 	.word	0x00402994
  40079c:	00400d59 	.word	0x00400d59
  4007a0:	20400464 	.word	0x20400464
  4007a4:	00081108 	.word	0x00081108
  4007a8:	00400db5 	.word	0x00400db5
  4007ac:	00400e7d 	.word	0x00400e7d
  4007b0:	2040048c 	.word	0x2040048c
  4007b4:	00400cb5 	.word	0x00400cb5
  4007b8:	01b70000 	.word	0x01b70000
  4007bc:	01b70200 	.word	0x01b70200
  4007c0:	00400d7d 	.word	0x00400d7d
  4007c4:	004001ad 	.word	0x004001ad
  4007c8:	00400cbf 	.word	0x00400cbf
  4007cc:	03b90100 	.word	0x03b90100
  4007d0:	03197500 	.word	0x03197500
  4007d4:	01b70100 	.word	0x01b70100
  4007d8:	00400261 	.word	0x00400261
	uint8_t switch_status[SD_SW_STATUS_BSIZE] = {0};
  4007dc:	2540      	movs	r5, #64	; 0x40
  4007de:	462a      	mov	r2, r5
  4007e0:	2100      	movs	r1, #0
  4007e2:	a804      	add	r0, sp, #16
  4007e4:	4b39      	ldr	r3, [pc, #228]	; (4008cc <sd_mmc_check+0x630>)
  4007e6:	4798      	blx	r3
	if (!driver_adtc_start(SD_CMD6_SWITCH_FUNC,
  4007e8:	2301      	movs	r3, #1
  4007ea:	9300      	str	r3, [sp, #0]
  4007ec:	462a      	mov	r2, r5
  4007ee:	4938      	ldr	r1, [pc, #224]	; (4008d0 <sd_mmc_check+0x634>)
  4007f0:	4838      	ldr	r0, [pc, #224]	; (4008d4 <sd_mmc_check+0x638>)
  4007f2:	4d39      	ldr	r5, [pc, #228]	; (4008d8 <sd_mmc_check+0x63c>)
  4007f4:	47a8      	blx	r5
  4007f6:	2800      	cmp	r0, #0
  4007f8:	f43f ad6d 	beq.w	4002d6 <sd_mmc_check+0x3a>
	if (!driver_start_read_blocks(switch_status, 1)) {
  4007fc:	2101      	movs	r1, #1
  4007fe:	a804      	add	r0, sp, #16
  400800:	4b36      	ldr	r3, [pc, #216]	; (4008dc <sd_mmc_check+0x640>)
  400802:	4798      	blx	r3
  400804:	2800      	cmp	r0, #0
  400806:	f43f ad66 	beq.w	4002d6 <sd_mmc_check+0x3a>
	if (!driver_wait_end_of_read_blocks()) {
  40080a:	4b35      	ldr	r3, [pc, #212]	; (4008e0 <sd_mmc_check+0x644>)
  40080c:	4798      	blx	r3
  40080e:	2800      	cmp	r0, #0
  400810:	f43f ad61 	beq.w	4002d6 <sd_mmc_check+0x3a>
	if (driver_get_response() & CARD_STATUS_SWITCH_ERROR) {
  400814:	4b33      	ldr	r3, [pc, #204]	; (4008e4 <sd_mmc_check+0x648>)
  400816:	4798      	blx	r3
  400818:	f010 0f80 	tst.w	r0, #128	; 0x80
  40081c:	f47f ad5b 	bne.w	4002d6 <sd_mmc_check+0x3a>
	if (SD_SW_STATUS_FUN_GRP1_RC(switch_status)
  400820:	f89d 3020 	ldrb.w	r3, [sp, #32]
  400824:	f003 030f 	and.w	r3, r3, #15
  400828:	2b0f      	cmp	r3, #15
  40082a:	d08c      	beq.n	400746 <sd_mmc_check+0x4aa>
	value = reg[((reg_size - pos + 7) / 8) - 1] >> (pos % 8);
  40082c:	f89d 302d 	ldrb.w	r3, [sp, #45]	; 0x2d
		value |= (uint32_t)reg[((reg_size - pos + 7) / 8) - 2] << (8 - (pos % 8));
  400830:	f89d 202c 	ldrb.w	r2, [sp, #44]	; 0x2c
	if (SD_SW_STATUS_FUN_GRP1_BUSY(switch_status)) {
  400834:	ea53 2302 	orrs.w	r3, r3, r2, lsl #8
  400838:	f47f ad4d 	bne.w	4002d6 <sd_mmc_check+0x3a>
	driver_send_clock();
  40083c:	4b2a      	ldr	r3, [pc, #168]	; (4008e8 <sd_mmc_check+0x64c>)
  40083e:	4798      	blx	r3
	sd_mmc_card->high_speed = 1;
  400840:	4b2a      	ldr	r3, [pc, #168]	; (4008ec <sd_mmc_check+0x650>)
  400842:	681b      	ldr	r3, [r3, #0]
  400844:	2201      	movs	r2, #1
  400846:	779a      	strb	r2, [r3, #30]
	sd_mmc_card->clock *= 2;
  400848:	681a      	ldr	r2, [r3, #0]
  40084a:	0052      	lsls	r2, r2, #1
  40084c:	601a      	str	r2, [r3, #0]
  40084e:	e77a      	b.n	400746 <sd_mmc_check+0x4aa>
	*v2 = 0;
  400850:	2200      	movs	r2, #0
  400852:	e551      	b.n	4002f8 <sd_mmc_check+0x5c>
  400854:	2a00      	cmp	r2, #0
  400856:	4f26      	ldr	r7, [pc, #152]	; (4008f0 <sd_mmc_check+0x654>)
  400858:	bf08      	it	eq
  40085a:	f44f 17fc 	moveq.w	r7, #2064384	; 0x1f8000
	if (sd_mmc_card->type & CARD_TYPE_SD) {
  40085e:	f640 0535 	movw	r5, #2101	; 0x835
		if (!driver_send_cmd(SDMMC_CMD55_APP_CMD, 0)) {
  400862:	f04f 0800 	mov.w	r8, #0
  400866:	4e23      	ldr	r6, [pc, #140]	; (4008f4 <sd_mmc_check+0x658>)
		resp = driver_get_response();
  400868:	f8df 9078 	ldr.w	r9, [pc, #120]	; 4008e4 <sd_mmc_check+0x648>
		if (!driver_send_cmd(SDMMC_CMD55_APP_CMD, 0)) {
  40086c:	4641      	mov	r1, r8
  40086e:	f241 1037 	movw	r0, #4407	; 0x1137
  400872:	47b0      	blx	r6
  400874:	b150      	cbz	r0, 40088c <sd_mmc_check+0x5f0>
		if (!driver_send_cmd(SD_MCI_ACMD41_SD_SEND_OP_COND, arg)) {
  400876:	4639      	mov	r1, r7
  400878:	f244 5029 	movw	r0, #17705	; 0x4529
  40087c:	47b0      	blx	r6
  40087e:	b128      	cbz	r0, 40088c <sd_mmc_check+0x5f0>
		resp = driver_get_response();
  400880:	47c8      	blx	r9
		if (resp & OCR_POWER_UP_BUSY) {
  400882:	2800      	cmp	r0, #0
  400884:	f6ff add5 	blt.w	400432 <sd_mmc_check+0x196>
		if (retry-- == 0) {
  400888:	3d01      	subs	r5, #1
  40088a:	d1ef      	bne.n	40086c <sd_mmc_check+0x5d0>
			sd_mmc_card->type = CARD_TYPE_MMC;
  40088c:	4b17      	ldr	r3, [pc, #92]	; (4008ec <sd_mmc_check+0x650>)
  40088e:	681b      	ldr	r3, [r3, #0]
  400890:	2202      	movs	r2, #2
  400892:	72da      	strb	r2, [r3, #11]
	if (!driver_send_cmd(SDMMC_MCI_CMD0_GO_IDLE_STATE, 0)) {
  400894:	2100      	movs	r1, #0
  400896:	f44f 4080 	mov.w	r0, #16384	; 0x4000
  40089a:	4b16      	ldr	r3, [pc, #88]	; (4008f4 <sd_mmc_check+0x658>)
  40089c:	4798      	blx	r3
  40089e:	2800      	cmp	r0, #0
  4008a0:	f43f ad19 	beq.w	4002d6 <sd_mmc_check+0x3a>
  4008a4:	f241 0569 	movw	r5, #4201	; 0x1069
		if (!driver_send_cmd(MMC_MCI_CMD1_SEND_OP_COND,
  4008a8:	f8df 8044 	ldr.w	r8, [pc, #68]	; 4008f0 <sd_mmc_check+0x654>
  4008ac:	4f11      	ldr	r7, [pc, #68]	; (4008f4 <sd_mmc_check+0x658>)
		resp = driver_get_response();
  4008ae:	4e0d      	ldr	r6, [pc, #52]	; (4008e4 <sd_mmc_check+0x648>)
		if (!driver_send_cmd(MMC_MCI_CMD1_SEND_OP_COND,
  4008b0:	4641      	mov	r1, r8
  4008b2:	f244 5001 	movw	r0, #17665	; 0x4501
  4008b6:	47b8      	blx	r7
  4008b8:	2800      	cmp	r0, #0
  4008ba:	f43f ad0c 	beq.w	4002d6 <sd_mmc_check+0x3a>
		resp = driver_get_response();
  4008be:	47b0      	blx	r6
		if (resp & OCR_POWER_UP_BUSY) {
  4008c0:	2800      	cmp	r0, #0
  4008c2:	f6ff adcf 	blt.w	400464 <sd_mmc_check+0x1c8>
		if (retry-- == 0) {
  4008c6:	3d01      	subs	r5, #1
  4008c8:	d1f2      	bne.n	4008b0 <sd_mmc_check+0x614>
  4008ca:	e504      	b.n	4002d6 <sd_mmc_check+0x3a>
  4008cc:	004027d9 	.word	0x004027d9
  4008d0:	80ffff01 	.word	0x80ffff01
  4008d4:	00081106 	.word	0x00081106
  4008d8:	00400db5 	.word	0x00400db5
  4008dc:	00400ef1 	.word	0x00400ef1
  4008e0:	00400f55 	.word	0x00400f55
  4008e4:	00400d7d 	.word	0x00400d7d
  4008e8:	00400d37 	.word	0x00400d37
  4008ec:	20400464 	.word	0x20400464
  4008f0:	401f8000 	.word	0x401f8000
  4008f4:	00400d59 	.word	0x00400d59

004008f8 <sd_mmc_get_type>:

card_type_t sd_mmc_get_type(uint8_t slot)
{
  4008f8:	b508      	push	{r3, lr}
	if (SD_MMC_OK != sd_mmc_select_slot(slot)) {
  4008fa:	4b05      	ldr	r3, [pc, #20]	; (400910 <sd_mmc_get_type+0x18>)
  4008fc:	4798      	blx	r3
  4008fe:	b108      	cbz	r0, 400904 <sd_mmc_get_type+0xc>
		return CARD_TYPE_UNKNOWN;
  400900:	2000      	movs	r0, #0
	}
	sd_mmc_deselect_slot();
	return sd_mmc_card->type;
}
  400902:	bd08      	pop	{r3, pc}
	sd_mmc_deselect_slot();
  400904:	4b03      	ldr	r3, [pc, #12]	; (400914 <sd_mmc_get_type+0x1c>)
  400906:	4798      	blx	r3
	return sd_mmc_card->type;
  400908:	4b03      	ldr	r3, [pc, #12]	; (400918 <sd_mmc_get_type+0x20>)
  40090a:	681b      	ldr	r3, [r3, #0]
  40090c:	7ad8      	ldrb	r0, [r3, #11]
  40090e:	bd08      	pop	{r3, pc}
  400910:	004001d5 	.word	0x004001d5
  400914:	00400261 	.word	0x00400261
  400918:	20400464 	.word	0x20400464

0040091c <sd_mmc_get_capacity>:
	sd_mmc_deselect_slot();
	return sd_mmc_card->version;
}

uint32_t sd_mmc_get_capacity(uint8_t slot)
{
  40091c:	b508      	push	{r3, lr}
	if (SD_MMC_OK != sd_mmc_select_slot(slot)) {
  40091e:	4b05      	ldr	r3, [pc, #20]	; (400934 <sd_mmc_get_capacity+0x18>)
  400920:	4798      	blx	r3
  400922:	b108      	cbz	r0, 400928 <sd_mmc_get_capacity+0xc>
		return 0;
  400924:	2000      	movs	r0, #0
	}
	sd_mmc_deselect_slot();
	return sd_mmc_card->capacity;
}
  400926:	bd08      	pop	{r3, pc}
	sd_mmc_deselect_slot();
  400928:	4b03      	ldr	r3, [pc, #12]	; (400938 <sd_mmc_get_capacity+0x1c>)
  40092a:	4798      	blx	r3
	return sd_mmc_card->capacity;
  40092c:	4b03      	ldr	r3, [pc, #12]	; (40093c <sd_mmc_get_capacity+0x20>)
  40092e:	681b      	ldr	r3, [r3, #0]
  400930:	6858      	ldr	r0, [r3, #4]
  400932:	bd08      	pop	{r3, pc}
  400934:	004001d5 	.word	0x004001d5
  400938:	00400261 	.word	0x00400261
  40093c:	20400464 	.word	0x20400464

00400940 <sd_mmc_init_read_blocks>:
	return false;
}

sd_mmc_err_t sd_mmc_init_read_blocks(uint8_t slot, uint32_t start,
		uint16_t nb_block)
{
  400940:	e92d 47f0 	stmdb	sp!, {r4, r5, r6, r7, r8, r9, sl, lr}
  400944:	b082      	sub	sp, #8
  400946:	468a      	mov	sl, r1
  400948:	4691      	mov	r9, r2
	sd_mmc_err_t sd_mmc_err;
	uint32_t cmd, arg, resp;

	sd_mmc_err = sd_mmc_select_slot(slot);
  40094a:	4b26      	ldr	r3, [pc, #152]	; (4009e4 <sd_mmc_init_read_blocks+0xa4>)
  40094c:	4798      	blx	r3
	if (sd_mmc_err != SD_MMC_OK) {
  40094e:	4680      	mov	r8, r0
  400950:	b118      	cbz	r0, 40095a <sd_mmc_init_read_blocks+0x1a>
		}
	}
	sd_mmc_nb_block_remaining = nb_block;
	sd_mmc_nb_block_to_tranfer = nb_block;
	return SD_MMC_OK;
}
  400952:	4640      	mov	r0, r8
  400954:	b002      	add	sp, #8
  400956:	e8bd 87f0 	ldmia.w	sp!, {r4, r5, r6, r7, r8, r9, sl, pc}
  40095a:	4c23      	ldr	r4, [pc, #140]	; (4009e8 <sd_mmc_init_read_blocks+0xa8>)
					(uint32_t)sd_mmc_card->rca << 16)) {
  40095c:	4e23      	ldr	r6, [pc, #140]	; (4009ec <sd_mmc_init_read_blocks+0xac>)
			if (!driver_send_cmd(SDMMC_MCI_CMD13_SEND_STATUS,
  40095e:	4d24      	ldr	r5, [pc, #144]	; (4009f0 <sd_mmc_init_read_blocks+0xb0>)
			if (driver_get_response() & CARD_STATUS_READY_FOR_DATA) {
  400960:	4f24      	ldr	r7, [pc, #144]	; (4009f4 <sd_mmc_init_read_blocks+0xb4>)
					(uint32_t)sd_mmc_card->rca << 16)) {
  400962:	6833      	ldr	r3, [r6, #0]
  400964:	8919      	ldrh	r1, [r3, #8]
			if (!driver_send_cmd(SDMMC_MCI_CMD13_SEND_STATUS,
  400966:	0409      	lsls	r1, r1, #16
  400968:	f241 100d 	movw	r0, #4365	; 0x110d
  40096c:	47a8      	blx	r5
  40096e:	b128      	cbz	r0, 40097c <sd_mmc_init_read_blocks+0x3c>
			if (driver_get_response() & CARD_STATUS_READY_FOR_DATA) {
  400970:	47b8      	blx	r7
  400972:	f410 7f80 	tst.w	r0, #256	; 0x100
  400976:	d117      	bne.n	4009a8 <sd_mmc_init_read_blocks+0x68>
		if (nec_timeout-- == 0) {
  400978:	3c01      	subs	r4, #1
  40097a:	d1f2      	bne.n	400962 <sd_mmc_init_read_blocks+0x22>
		sd_mmc_deselect_slot();
  40097c:	4b1e      	ldr	r3, [pc, #120]	; (4009f8 <sd_mmc_init_read_blocks+0xb8>)
  40097e:	4798      	blx	r3
		return SD_MMC_ERR_COMM;
  400980:	f04f 0805 	mov.w	r8, #5
  400984:	e7e5      	b.n	400952 <sd_mmc_init_read_blocks+0x12>
		resp = driver_get_response();
  400986:	4b1b      	ldr	r3, [pc, #108]	; (4009f4 <sd_mmc_init_read_blocks+0xb4>)
  400988:	4798      	blx	r3
		if (resp & CARD_STATUS_ERR_RD_WR) {
  40098a:	4b1c      	ldr	r3, [pc, #112]	; (4009fc <sd_mmc_init_read_blocks+0xbc>)
  40098c:	4003      	ands	r3, r0
  40098e:	b933      	cbnz	r3, 40099e <sd_mmc_init_read_blocks+0x5e>
	sd_mmc_nb_block_remaining = nb_block;
  400990:	4b1b      	ldr	r3, [pc, #108]	; (400a00 <sd_mmc_init_read_blocks+0xc0>)
  400992:	f8a3 9000 	strh.w	r9, [r3]
	sd_mmc_nb_block_to_tranfer = nb_block;
  400996:	4b1b      	ldr	r3, [pc, #108]	; (400a04 <sd_mmc_init_read_blocks+0xc4>)
  400998:	f8a3 9000 	strh.w	r9, [r3]
	return SD_MMC_OK;
  40099c:	e7d9      	b.n	400952 <sd_mmc_init_read_blocks+0x12>
			sd_mmc_deselect_slot();
  40099e:	4b16      	ldr	r3, [pc, #88]	; (4009f8 <sd_mmc_init_read_blocks+0xb8>)
  4009a0:	4798      	blx	r3
			return SD_MMC_ERR_COMM;
  4009a2:	f04f 0805 	mov.w	r8, #5
  4009a6:	e7d4      	b.n	400952 <sd_mmc_init_read_blocks+0x12>
		cmd = SDMMC_CMD17_READ_SINGLE_BLOCK;
  4009a8:	4b17      	ldr	r3, [pc, #92]	; (400a08 <sd_mmc_init_read_blocks+0xc8>)
  4009aa:	4818      	ldr	r0, [pc, #96]	; (400a0c <sd_mmc_init_read_blocks+0xcc>)
  4009ac:	f1b9 0f01 	cmp.w	r9, #1
  4009b0:	bf98      	it	ls
  4009b2:	4618      	movls	r0, r3
	if (sd_mmc_card->type & CARD_TYPE_HC) {
  4009b4:	4b0d      	ldr	r3, [pc, #52]	; (4009ec <sd_mmc_init_read_blocks+0xac>)
  4009b6:	681b      	ldr	r3, [r3, #0]
  4009b8:	7adb      	ldrb	r3, [r3, #11]
  4009ba:	f013 0f08 	tst.w	r3, #8
  4009be:	d101      	bne.n	4009c4 <sd_mmc_init_read_blocks+0x84>
		arg = (start * SD_MMC_BLOCK_SIZE);
  4009c0:	ea4f 2a4a 	mov.w	sl, sl, lsl #9
	if (!driver_adtc_start(cmd, arg, SD_MMC_BLOCK_SIZE, nb_block, true)) {
  4009c4:	2301      	movs	r3, #1
  4009c6:	9300      	str	r3, [sp, #0]
  4009c8:	464b      	mov	r3, r9
  4009ca:	f44f 7200 	mov.w	r2, #512	; 0x200
  4009ce:	4651      	mov	r1, sl
  4009d0:	4c0f      	ldr	r4, [pc, #60]	; (400a10 <sd_mmc_init_read_blocks+0xd0>)
  4009d2:	47a0      	blx	r4
  4009d4:	2800      	cmp	r0, #0
  4009d6:	d1d6      	bne.n	400986 <sd_mmc_init_read_blocks+0x46>
		sd_mmc_deselect_slot();
  4009d8:	4b07      	ldr	r3, [pc, #28]	; (4009f8 <sd_mmc_init_read_blocks+0xb8>)
  4009da:	4798      	blx	r3
		return SD_MMC_ERR_COMM;
  4009dc:	f04f 0805 	mov.w	r8, #5
  4009e0:	e7b7      	b.n	400952 <sd_mmc_init_read_blocks+0x12>
  4009e2:	bf00      	nop
  4009e4:	004001d5 	.word	0x004001d5
  4009e8:	00030d41 	.word	0x00030d41
  4009ec:	20400464 	.word	0x20400464
  4009f0:	00400d59 	.word	0x00400d59
  4009f4:	00400d7d 	.word	0x00400d7d
  4009f8:	00400261 	.word	0x00400261
  4009fc:	e4580000 	.word	0xe4580000
  400a00:	20400488 	.word	0x20400488
  400a04:	2040048a 	.word	0x2040048a
  400a08:	00081111 	.word	0x00081111
  400a0c:	00101112 	.word	0x00101112
  400a10:	00400db5 	.word	0x00400db5

00400a14 <sd_mmc_start_read_blocks>:

sd_mmc_err_t sd_mmc_start_read_blocks(void *dest, uint16_t nb_block)
{
  400a14:	b510      	push	{r4, lr}
  400a16:	460c      	mov	r4, r1
	Assert(sd_mmc_nb_block_remaining >= nb_block);

	if (!driver_start_read_blocks(dest, nb_block)) {
  400a18:	4b06      	ldr	r3, [pc, #24]	; (400a34 <sd_mmc_start_read_blocks+0x20>)
  400a1a:	4798      	blx	r3
  400a1c:	b920      	cbnz	r0, 400a28 <sd_mmc_start_read_blocks+0x14>
		sd_mmc_nb_block_remaining = 0;
  400a1e:	2200      	movs	r2, #0
  400a20:	4b05      	ldr	r3, [pc, #20]	; (400a38 <sd_mmc_start_read_blocks+0x24>)
  400a22:	801a      	strh	r2, [r3, #0]
		return SD_MMC_ERR_COMM;
  400a24:	2005      	movs	r0, #5
  400a26:	bd10      	pop	{r4, pc}
	}
	sd_mmc_nb_block_remaining -= nb_block;
  400a28:	4a03      	ldr	r2, [pc, #12]	; (400a38 <sd_mmc_start_read_blocks+0x24>)
  400a2a:	8813      	ldrh	r3, [r2, #0]
  400a2c:	1b1c      	subs	r4, r3, r4
  400a2e:	8014      	strh	r4, [r2, #0]
	return SD_MMC_OK;
  400a30:	2000      	movs	r0, #0
}
  400a32:	bd10      	pop	{r4, pc}
  400a34:	00400ef1 	.word	0x00400ef1
  400a38:	20400488 	.word	0x20400488

00400a3c <sd_mmc_wait_end_of_read_blocks>:

sd_mmc_err_t sd_mmc_wait_end_of_read_blocks(bool abort)
{
  400a3c:	b510      	push	{r4, lr}
  400a3e:	4604      	mov	r4, r0
	if (!driver_wait_end_of_read_blocks()) {
  400a40:	4b13      	ldr	r3, [pc, #76]	; (400a90 <sd_mmc_wait_end_of_read_blocks+0x54>)
  400a42:	4798      	blx	r3
  400a44:	b908      	cbnz	r0, 400a4a <sd_mmc_wait_end_of_read_blocks+0xe>
		return SD_MMC_ERR_COMM;
  400a46:	2005      	movs	r0, #5
  400a48:	bd10      	pop	{r4, pc}
	}
	if (abort) {
  400a4a:	b184      	cbz	r4, 400a6e <sd_mmc_wait_end_of_read_blocks+0x32>
		sd_mmc_nb_block_remaining = 0;
  400a4c:	2200      	movs	r2, #0
  400a4e:	4b11      	ldr	r3, [pc, #68]	; (400a94 <sd_mmc_wait_end_of_read_blocks+0x58>)
  400a50:	801a      	strh	r2, [r3, #0]
	} else if (sd_mmc_nb_block_remaining) {
		return SD_MMC_OK;
	}

	// All blocks are transfered then stop read operation
	if (sd_mmc_nb_block_to_tranfer == 1) {
  400a52:	4b11      	ldr	r3, [pc, #68]	; (400a98 <sd_mmc_wait_end_of_read_blocks+0x5c>)
  400a54:	881b      	ldrh	r3, [r3, #0]
  400a56:	2b01      	cmp	r3, #1
  400a58:	d00f      	beq.n	400a7a <sd_mmc_wait_end_of_read_blocks+0x3e>
		return SD_MMC_OK;
	}
	// WORKAROUND for no compliance card (Atmel Internal ref. !MMC7 !SD19):
	// The errors on this command must be ignored
	// and one retry can be necessary in SPI mode for no compliance card.
	if (!driver_adtc_stop(SDMMC_CMD12_STOP_TRANSMISSION, 0)) {
  400a5a:	2100      	movs	r1, #0
  400a5c:	f243 100c 	movw	r0, #12556	; 0x310c
  400a60:	4b0e      	ldr	r3, [pc, #56]	; (400a9c <sd_mmc_wait_end_of_read_blocks+0x60>)
  400a62:	4798      	blx	r3
  400a64:	b168      	cbz	r0, 400a82 <sd_mmc_wait_end_of_read_blocks+0x46>
		driver_adtc_stop(SDMMC_CMD12_STOP_TRANSMISSION, 0);
	}
	sd_mmc_deselect_slot();
  400a66:	4b0e      	ldr	r3, [pc, #56]	; (400aa0 <sd_mmc_wait_end_of_read_blocks+0x64>)
  400a68:	4798      	blx	r3
	return SD_MMC_OK;
  400a6a:	2000      	movs	r0, #0
  400a6c:	bd10      	pop	{r4, pc}
	} else if (sd_mmc_nb_block_remaining) {
  400a6e:	4b09      	ldr	r3, [pc, #36]	; (400a94 <sd_mmc_wait_end_of_read_blocks+0x58>)
  400a70:	881b      	ldrh	r3, [r3, #0]
  400a72:	2b00      	cmp	r3, #0
  400a74:	d0ed      	beq.n	400a52 <sd_mmc_wait_end_of_read_blocks+0x16>
		return SD_MMC_OK;
  400a76:	2000      	movs	r0, #0
}
  400a78:	bd10      	pop	{r4, pc}
		sd_mmc_deselect_slot();
  400a7a:	4b09      	ldr	r3, [pc, #36]	; (400aa0 <sd_mmc_wait_end_of_read_blocks+0x64>)
  400a7c:	4798      	blx	r3
		return SD_MMC_OK;
  400a7e:	2000      	movs	r0, #0
  400a80:	bd10      	pop	{r4, pc}
		driver_adtc_stop(SDMMC_CMD12_STOP_TRANSMISSION, 0);
  400a82:	2100      	movs	r1, #0
  400a84:	f243 100c 	movw	r0, #12556	; 0x310c
  400a88:	4b04      	ldr	r3, [pc, #16]	; (400a9c <sd_mmc_wait_end_of_read_blocks+0x60>)
  400a8a:	4798      	blx	r3
  400a8c:	e7eb      	b.n	400a66 <sd_mmc_wait_end_of_read_blocks+0x2a>
  400a8e:	bf00      	nop
  400a90:	00400f55 	.word	0x00400f55
  400a94:	20400488 	.word	0x20400488
  400a98:	2040048a 	.word	0x2040048a
  400a9c:	00400d59 	.word	0x00400d59
  400aa0:	00400261 	.word	0x00400261

00400aa4 <sd_mmc_init_write_blocks>:

sd_mmc_err_t sd_mmc_init_write_blocks(uint8_t slot, uint32_t start,
		uint16_t nb_block)
{
  400aa4:	b570      	push	{r4, r5, r6, lr}
  400aa6:	b082      	sub	sp, #8
  400aa8:	460e      	mov	r6, r1
  400aaa:	4615      	mov	r5, r2
	sd_mmc_err_t sd_mmc_err;
	uint32_t cmd, arg, resp;

	sd_mmc_err = sd_mmc_select_slot(slot);
  400aac:	4b16      	ldr	r3, [pc, #88]	; (400b08 <sd_mmc_init_write_blocks+0x64>)
  400aae:	4798      	blx	r3
	if (sd_mmc_err != SD_MMC_OK) {
  400ab0:	4604      	mov	r4, r0
  400ab2:	b9b8      	cbnz	r0, 400ae4 <sd_mmc_init_write_blocks+0x40>
	}

	if (nb_block > 1) {
		cmd = SDMMC_CMD25_WRITE_MULTIPLE_BLOCK;
	} else {
		cmd = SDMMC_CMD24_WRITE_BLOCK;
  400ab4:	4b15      	ldr	r3, [pc, #84]	; (400b0c <sd_mmc_init_write_blocks+0x68>)
  400ab6:	4816      	ldr	r0, [pc, #88]	; (400b10 <sd_mmc_init_write_blocks+0x6c>)
  400ab8:	2d01      	cmp	r5, #1
  400aba:	bf98      	it	ls
  400abc:	4618      	movls	r0, r3
	}
	/*
	 * SDSC Card (CCS=0) uses byte unit address,
	 * SDHC and SDXC Cards (CCS=1) use block unit address (512 Bytes unit).
	 */
	if (sd_mmc_card->type & CARD_TYPE_HC) {
  400abe:	4b15      	ldr	r3, [pc, #84]	; (400b14 <sd_mmc_init_write_blocks+0x70>)
  400ac0:	681b      	ldr	r3, [r3, #0]
  400ac2:	7adb      	ldrb	r3, [r3, #11]
  400ac4:	f013 0f08 	tst.w	r3, #8
		arg = start;
	} else {
		arg = (start * SD_MMC_BLOCK_SIZE);
  400ac8:	bf08      	it	eq
  400aca:	0276      	lsleq	r6, r6, #9
	}
	if (!driver_adtc_start(cmd, arg, SD_MMC_BLOCK_SIZE, nb_block, true)) {
  400acc:	2301      	movs	r3, #1
  400ace:	9300      	str	r3, [sp, #0]
  400ad0:	462b      	mov	r3, r5
  400ad2:	f44f 7200 	mov.w	r2, #512	; 0x200
  400ad6:	4631      	mov	r1, r6
  400ad8:	4e0f      	ldr	r6, [pc, #60]	; (400b18 <sd_mmc_init_write_blocks+0x74>)
  400ada:	47b0      	blx	r6
  400adc:	b928      	cbnz	r0, 400aea <sd_mmc_init_write_blocks+0x46>
		sd_mmc_deselect_slot();
  400ade:	4b0f      	ldr	r3, [pc, #60]	; (400b1c <sd_mmc_init_write_blocks+0x78>)
  400ae0:	4798      	blx	r3
		return SD_MMC_ERR_COMM;
  400ae2:	2405      	movs	r4, #5
		}
	}
	sd_mmc_nb_block_remaining = nb_block;
	sd_mmc_nb_block_to_tranfer = nb_block;
	return SD_MMC_OK;
}
  400ae4:	4620      	mov	r0, r4
  400ae6:	b002      	add	sp, #8
  400ae8:	bd70      	pop	{r4, r5, r6, pc}
		resp = driver_get_response();
  400aea:	4b0d      	ldr	r3, [pc, #52]	; (400b20 <sd_mmc_init_write_blocks+0x7c>)
  400aec:	4798      	blx	r3
		if (resp & CARD_STATUS_ERR_RD_WR) {
  400aee:	4b0d      	ldr	r3, [pc, #52]	; (400b24 <sd_mmc_init_write_blocks+0x80>)
  400af0:	4003      	ands	r3, r0
  400af2:	b923      	cbnz	r3, 400afe <sd_mmc_init_write_blocks+0x5a>
	sd_mmc_nb_block_remaining = nb_block;
  400af4:	4b0c      	ldr	r3, [pc, #48]	; (400b28 <sd_mmc_init_write_blocks+0x84>)
  400af6:	801d      	strh	r5, [r3, #0]
	sd_mmc_nb_block_to_tranfer = nb_block;
  400af8:	4b0c      	ldr	r3, [pc, #48]	; (400b2c <sd_mmc_init_write_blocks+0x88>)
  400afa:	801d      	strh	r5, [r3, #0]
	return SD_MMC_OK;
  400afc:	e7f2      	b.n	400ae4 <sd_mmc_init_write_blocks+0x40>
			sd_mmc_deselect_slot();
  400afe:	4b07      	ldr	r3, [pc, #28]	; (400b1c <sd_mmc_init_write_blocks+0x78>)
  400b00:	4798      	blx	r3
			return SD_MMC_ERR_COMM;
  400b02:	2405      	movs	r4, #5
  400b04:	e7ee      	b.n	400ae4 <sd_mmc_init_write_blocks+0x40>
  400b06:	bf00      	nop
  400b08:	004001d5 	.word	0x004001d5
  400b0c:	00089118 	.word	0x00089118
  400b10:	00109119 	.word	0x00109119
  400b14:	20400464 	.word	0x20400464
  400b18:	00400db5 	.word	0x00400db5
  400b1c:	00400261 	.word	0x00400261
  400b20:	00400d7d 	.word	0x00400d7d
  400b24:	e4580000 	.word	0xe4580000
  400b28:	20400488 	.word	0x20400488
  400b2c:	2040048a 	.word	0x2040048a

00400b30 <sd_mmc_start_write_blocks>:

sd_mmc_err_t sd_mmc_start_write_blocks(const void *src, uint16_t nb_block)
{
  400b30:	b510      	push	{r4, lr}
  400b32:	460c      	mov	r4, r1
	Assert(sd_mmc_nb_block_remaining >= nb_block);
	if (!driver_start_write_blocks(src, nb_block)) 
  400b34:	4b06      	ldr	r3, [pc, #24]	; (400b50 <sd_mmc_start_write_blocks+0x20>)
  400b36:	4798      	blx	r3
  400b38:	b920      	cbnz	r0, 400b44 <sd_mmc_start_write_blocks+0x14>
	{
		sd_mmc_nb_block_remaining = 0;
  400b3a:	2200      	movs	r2, #0
  400b3c:	4b05      	ldr	r3, [pc, #20]	; (400b54 <sd_mmc_start_write_blocks+0x24>)
  400b3e:	801a      	strh	r2, [r3, #0]
		return SD_MMC_ERR_COMM;
  400b40:	2005      	movs	r0, #5
  400b42:	bd10      	pop	{r4, pc}
	}
	sd_mmc_nb_block_remaining -= nb_block;
  400b44:	4a03      	ldr	r2, [pc, #12]	; (400b54 <sd_mmc_start_write_blocks+0x24>)
  400b46:	8813      	ldrh	r3, [r2, #0]
  400b48:	1b1c      	subs	r4, r3, r4
  400b4a:	8014      	strh	r4, [r2, #0]
	return SD_MMC_OK;
  400b4c:	2000      	movs	r0, #0
}
  400b4e:	bd10      	pop	{r4, pc}
  400b50:	00400fb9 	.word	0x00400fb9
  400b54:	20400488 	.word	0x20400488

00400b58 <sd_mmc_wait_end_of_write_blocks>:

sd_mmc_err_t sd_mmc_wait_end_of_write_blocks(bool abort)
{
  400b58:	b510      	push	{r4, lr}
  400b5a:	4604      	mov	r4, r0
	if (!driver_wait_end_of_write_blocks()) 
  400b5c:	4b12      	ldr	r3, [pc, #72]	; (400ba8 <sd_mmc_wait_end_of_write_blocks+0x50>)
  400b5e:	4798      	blx	r3
  400b60:	b908      	cbnz	r0, 400b66 <sd_mmc_wait_end_of_write_blocks+0xe>
	{
		return SD_MMC_ERR_COMM;
  400b62:	2005      	movs	r0, #5
  400b64:	bd10      	pop	{r4, pc}
	}
	if (abort) 
  400b66:	b184      	cbz	r4, 400b8a <sd_mmc_wait_end_of_write_blocks+0x32>
	{
		sd_mmc_nb_block_remaining = 0;
  400b68:	2200      	movs	r2, #0
  400b6a:	4b10      	ldr	r3, [pc, #64]	; (400bac <sd_mmc_wait_end_of_write_blocks+0x54>)
  400b6c:	801a      	strh	r2, [r3, #0]
	{
		return SD_MMC_OK;
	}

	// All blocks are transfered then stop write operation
	if (sd_mmc_nb_block_to_tranfer == 1) {
  400b6e:	4b10      	ldr	r3, [pc, #64]	; (400bb0 <sd_mmc_wait_end_of_write_blocks+0x58>)
  400b70:	881b      	ldrh	r3, [r3, #0]
  400b72:	2b01      	cmp	r3, #1
  400b74:	d00f      	beq.n	400b96 <sd_mmc_wait_end_of_write_blocks+0x3e>
	}

	if (sd_mmc_is_mci()) {
		// Note: SPI multiblock writes terminate using a special
		// token, not a STOP_TRANSMISSION request.
		if (!driver_adtc_stop(SDMMC_CMD12_STOP_TRANSMISSION, 0)) {
  400b76:	2100      	movs	r1, #0
  400b78:	f243 100c 	movw	r0, #12556	; 0x310c
  400b7c:	4b0d      	ldr	r3, [pc, #52]	; (400bb4 <sd_mmc_wait_end_of_write_blocks+0x5c>)
  400b7e:	4798      	blx	r3
  400b80:	b968      	cbnz	r0, 400b9e <sd_mmc_wait_end_of_write_blocks+0x46>
			sd_mmc_deselect_slot();
  400b82:	4b0d      	ldr	r3, [pc, #52]	; (400bb8 <sd_mmc_wait_end_of_write_blocks+0x60>)
  400b84:	4798      	blx	r3
			return SD_MMC_ERR_COMM;
  400b86:	2005      	movs	r0, #5
  400b88:	bd10      	pop	{r4, pc}
	else if (sd_mmc_nb_block_remaining) 
  400b8a:	4b08      	ldr	r3, [pc, #32]	; (400bac <sd_mmc_wait_end_of_write_blocks+0x54>)
  400b8c:	881b      	ldrh	r3, [r3, #0]
  400b8e:	2b00      	cmp	r3, #0
  400b90:	d0ed      	beq.n	400b6e <sd_mmc_wait_end_of_write_blocks+0x16>
		return SD_MMC_OK;
  400b92:	2000      	movs	r0, #0
		}
	}
	sd_mmc_deselect_slot();
	return SD_MMC_OK;
}
  400b94:	bd10      	pop	{r4, pc}
		sd_mmc_deselect_slot();
  400b96:	4b08      	ldr	r3, [pc, #32]	; (400bb8 <sd_mmc_wait_end_of_write_blocks+0x60>)
  400b98:	4798      	blx	r3
		return SD_MMC_OK;
  400b9a:	2000      	movs	r0, #0
  400b9c:	bd10      	pop	{r4, pc}
	sd_mmc_deselect_slot();
  400b9e:	4b06      	ldr	r3, [pc, #24]	; (400bb8 <sd_mmc_wait_end_of_write_blocks+0x60>)
  400ba0:	4798      	blx	r3
	return SD_MMC_OK;
  400ba2:	2000      	movs	r0, #0
  400ba4:	bd10      	pop	{r4, pc}
  400ba6:	bf00      	nop
  400ba8:	0040101d 	.word	0x0040101d
  400bac:	20400488 	.word	0x20400488
  400bb0:	2040048a 	.word	0x2040048a
  400bb4:	00400d59 	.word	0x00400d59
  400bb8:	00400261 	.word	0x00400261

00400bbc <hsmci_reset>:

/**
 * \brief Reset the HSMCI interface
 */
static void hsmci_reset(void)
{
  400bbc:	b470      	push	{r4, r5, r6}
	uint32_t mr = HSMCI->HSMCI_MR;
  400bbe:	f04f 4380 	mov.w	r3, #1073741824	; 0x40000000
  400bc2:	685d      	ldr	r5, [r3, #4]
	uint32_t dtor = HSMCI->HSMCI_DTOR;
  400bc4:	689c      	ldr	r4, [r3, #8]
	uint32_t sdcr = HSMCI->HSMCI_SDCR;
  400bc6:	68d8      	ldr	r0, [r3, #12]
	uint32_t cstor = HSMCI->HSMCI_CSTOR;
  400bc8:	69d9      	ldr	r1, [r3, #28]
	uint32_t cfg = HSMCI->HSMCI_CFG;
  400bca:	6d5a      	ldr	r2, [r3, #84]	; 0x54
	HSMCI->HSMCI_CR = HSMCI_CR_SWRST;
  400bcc:	2680      	movs	r6, #128	; 0x80
  400bce:	601e      	str	r6, [r3, #0]
	HSMCI->HSMCI_MR = mr;
  400bd0:	605d      	str	r5, [r3, #4]
	HSMCI->HSMCI_DTOR = dtor;
  400bd2:	609c      	str	r4, [r3, #8]
	HSMCI->HSMCI_SDCR = sdcr;
  400bd4:	60d8      	str	r0, [r3, #12]
	HSMCI->HSMCI_CSTOR = cstor;
  400bd6:	61d9      	str	r1, [r3, #28]
	HSMCI->HSMCI_CFG = cfg;
  400bd8:	655a      	str	r2, [r3, #84]	; 0x54
#ifdef HSMCI_SR_DMADONE
	HSMCI->HSMCI_DMA = 0;
#endif
#if (SAMV70 || SAMV71 || SAME70 || SAMS70)
#ifdef HSMCI_DMA_DMAEN
	HSMCI->HSMCI_DMA = 0;
  400bda:	2200      	movs	r2, #0
  400bdc:	651a      	str	r2, [r3, #80]	; 0x50
#endif
#endif
	// Enable the HSMCI
	HSMCI->HSMCI_CR = HSMCI_CR_PWSEN | HSMCI_CR_MCIEN;
  400bde:	2205      	movs	r2, #5
  400be0:	601a      	str	r2, [r3, #0]
}
  400be2:	bc70      	pop	{r4, r5, r6}
  400be4:	4770      	bx	lr
	...

00400be8 <hsmci_send_cmd_execute>:
 *
 * \return true if success, otherwise false
 */
static bool hsmci_send_cmd_execute(uint32_t cmdr, sdmmc_cmd_def_t cmd,
		uint32_t arg)
{
  400be8:	b508      	push	{r3, lr}
	uint32_t sr;

	cmdr |= HSMCI_CMDR_CMDNB(cmd) | HSMCI_CMDR_SPCMD_STD;
  400bea:	f001 033f 	and.w	r3, r1, #63	; 0x3f
  400bee:	4318      	orrs	r0, r3
	if (cmd & SDMMC_RESP_PRESENT) {
  400bf0:	f411 7f80 	tst.w	r1, #256	; 0x100
  400bf4:	d004      	beq.n	400c00 <hsmci_send_cmd_execute+0x18>
		cmdr |= HSMCI_CMDR_MAXLAT;
		if (cmd & SDMMC_RESP_136) {
  400bf6:	f411 6f00 	tst.w	r1, #2048	; 0x800
  400bfa:	d00e      	beq.n	400c1a <hsmci_send_cmd_execute+0x32>
			cmdr |= HSMCI_CMDR_RSPTYP_136_BIT;
  400bfc:	f440 5084 	orr.w	r0, r0, #4224	; 0x1080
			cmdr |= HSMCI_CMDR_RSPTYP_R1B;
		} else {
			cmdr |= HSMCI_CMDR_RSPTYP_48_BIT;
		}
	}
	if (cmd & SDMMC_CMD_OPENDRAIN) {
  400c00:	f411 4f80 	tst.w	r1, #16384	; 0x4000
		cmdr |= HSMCI_CMDR_OPDCMD_OPENDRAIN;
  400c04:	bf18      	it	ne
  400c06:	f440 6000 	orrne.w	r0, r0, #2048	; 0x800
	}

	// Write argument
	HSMCI->HSMCI_ARGR = arg;
  400c0a:	f04f 4380 	mov.w	r3, #1073741824	; 0x40000000
  400c0e:	611a      	str	r2, [r3, #16]
	// Write and start command
	HSMCI->HSMCI_CMDR = cmdr;
  400c10:	6158      	str	r0, [r3, #20]

	// Wait end of command
	do {
		sr = HSMCI->HSMCI_SR;
  400c12:	4618      	mov	r0, r3
		if (cmd & SDMMC_RESP_CRC) {
  400c14:	f401 5280 	and.w	r2, r1, #4096	; 0x1000
  400c18:	e00d      	b.n	400c36 <hsmci_send_cmd_execute+0x4e>
		} else if (cmd & SDMMC_RESP_BUSY) {
  400c1a:	f411 5f00 	tst.w	r1, #8192	; 0x2000
			cmdr |= HSMCI_CMDR_RSPTYP_R1B;
  400c1e:	bf14      	ite	ne
  400c20:	f440 5086 	orrne.w	r0, r0, #4288	; 0x10c0
			cmdr |= HSMCI_CMDR_RSPTYP_48_BIT;
  400c24:	f440 5082 	orreq.w	r0, r0, #4160	; 0x1040
  400c28:	e7ea      	b.n	400c00 <hsmci_send_cmd_execute+0x18>
						__func__, cmd, sr);
				hsmci_reset();
				return false;
			}
		} else {
			if (sr & (HSMCI_SR_CSTOE | HSMCI_SR_RTOE
  400c2a:	f413 0f1b 	tst.w	r3, #10158080	; 0x9b0000
  400c2e:	d10c      	bne.n	400c4a <hsmci_send_cmd_execute+0x62>
						__func__, cmd, sr);
				hsmci_reset();
				return false;
			}
		}
	} while (!(sr & HSMCI_SR_CMDRDY));
  400c30:	f013 0f01 	tst.w	r3, #1
  400c34:	d10d      	bne.n	400c52 <hsmci_send_cmd_execute+0x6a>
		sr = HSMCI->HSMCI_SR;
  400c36:	6c03      	ldr	r3, [r0, #64]	; 0x40
		if (cmd & SDMMC_RESP_CRC) {
  400c38:	2a00      	cmp	r2, #0
  400c3a:	d0f6      	beq.n	400c2a <hsmci_send_cmd_execute+0x42>
			if (sr & (HSMCI_SR_CSTOE | HSMCI_SR_RTOE
  400c3c:	f413 0f1f 	tst.w	r3, #10420224	; 0x9f0000
  400c40:	d0f6      	beq.n	400c30 <hsmci_send_cmd_execute+0x48>
				hsmci_reset();
  400c42:	4b10      	ldr	r3, [pc, #64]	; (400c84 <hsmci_send_cmd_execute+0x9c>)
  400c44:	4798      	blx	r3
				return false;
  400c46:	2000      	movs	r0, #0
  400c48:	bd08      	pop	{r3, pc}
				hsmci_reset();
  400c4a:	4b0e      	ldr	r3, [pc, #56]	; (400c84 <hsmci_send_cmd_execute+0x9c>)
  400c4c:	4798      	blx	r3
				return false;
  400c4e:	2000      	movs	r0, #0
  400c50:	bd08      	pop	{r3, pc}

	if (cmd & SDMMC_RESP_BUSY) {
  400c52:	f411 5f00 	tst.w	r1, #8192	; 0x2000
  400c56:	d103      	bne.n	400c60 <hsmci_send_cmd_execute+0x78>
		if (!hsmci_wait_busy()) {
			return false;
		}
	}
	return true;
  400c58:	2001      	movs	r0, #1
  400c5a:	bd08      	pop	{r3, pc}
	return true;
  400c5c:	2001      	movs	r0, #1
  400c5e:	bd08      	pop	{r3, pc}
		sr = HSMCI->HSMCI_SR;
  400c60:	f04f 4380 	mov.w	r3, #1073741824	; 0x40000000
  400c64:	6c1b      	ldr	r3, [r3, #64]	; 0x40
  400c66:	f04f 32ff 	mov.w	r2, #4294967295
  400c6a:	f04f 4180 	mov.w	r1, #1073741824	; 0x40000000
	} while (!((sr & HSMCI_SR_NOTBUSY) && ((sr & HSMCI_SR_DTIP) == 0)));
  400c6e:	f003 0330 	and.w	r3, r3, #48	; 0x30
  400c72:	2b20      	cmp	r3, #32
  400c74:	d0f2      	beq.n	400c5c <hsmci_send_cmd_execute+0x74>
		sr = HSMCI->HSMCI_SR;
  400c76:	6c0b      	ldr	r3, [r1, #64]	; 0x40
		if (busy_wait-- == 0) {
  400c78:	3a01      	subs	r2, #1
  400c7a:	d1f8      	bne.n	400c6e <hsmci_send_cmd_execute+0x86>
			hsmci_reset();
  400c7c:	4b01      	ldr	r3, [pc, #4]	; (400c84 <hsmci_send_cmd_execute+0x9c>)
  400c7e:	4798      	blx	r3
			return false;
  400c80:	2000      	movs	r0, #0
  400c82:	bd08      	pop	{r3, pc}
  400c84:	00400bbd 	.word	0x00400bbd

00400c88 <hsmci_init>:

//-------------------------------------------------------------------
//--------------------- PUBLIC FUNCTIONS ----------------------------

void hsmci_init(void)
{
  400c88:	b510      	push	{r4, lr}
	pmc_enable_periph_clk(ID_HSMCI);
  400c8a:	2012      	movs	r0, #18
  400c8c:	4c08      	ldr	r4, [pc, #32]	; (400cb0 <hsmci_init+0x28>)
  400c8e:	47a0      	blx	r4
#endif

#if (SAMV70 || SAMV71 || SAME70 || SAMS70)
#ifdef HSMCI_DMA_DMAEN
	// Enable clock for DMA controller
	pmc_enable_periph_clk(ID_XDMAC);
  400c90:	203a      	movs	r0, #58	; 0x3a
  400c92:	47a0      	blx	r4
#endif
#endif

	// Set the Data Timeout Register to 2 Mega Cycles
	HSMCI->HSMCI_DTOR = HSMCI_DTOR_DTOMUL_1048576 | HSMCI_DTOR_DTOCYC(2);
  400c94:	f04f 4380 	mov.w	r3, #1073741824	; 0x40000000
  400c98:	2272      	movs	r2, #114	; 0x72
  400c9a:	609a      	str	r2, [r3, #8]
	// Set Completion Signal Timeout to 2 Mega Cycles
	HSMCI->HSMCI_CSTOR = HSMCI_CSTOR_CSTOMUL_1048576 | HSMCI_CSTOR_CSTOCYC(2);
  400c9c:	61da      	str	r2, [r3, #28]
	// Set Configuration Register
	HSMCI->HSMCI_CFG = HSMCI_CFG_FIFOMODE | HSMCI_CFG_FERRCTRL;
  400c9e:	2211      	movs	r2, #17
  400ca0:	655a      	str	r2, [r3, #84]	; 0x54
	// Set power saving to maximum value
	HSMCI->HSMCI_MR = HSMCI_MR_PWSDIV_Msk;
  400ca2:	f44f 62e0 	mov.w	r2, #1792	; 0x700
  400ca6:	605a      	str	r2, [r3, #4]

	// Enable the HSMCI and the Power Saving
	HSMCI->HSMCI_CR = HSMCI_CR_MCIEN | HSMCI_CR_PWSEN;
  400ca8:	2205      	movs	r2, #5
  400caa:	601a      	str	r2, [r3, #0]
  400cac:	bd10      	pop	{r4, pc}
  400cae:	bf00      	nop
  400cb0:	00401f9d 	.word	0x00401f9d

00400cb4 <hsmci_get_bus_width>:
}

uint8_t hsmci_get_bus_width(uint8_t slot)
{
	switch (slot) {
  400cb4:	2800      	cmp	r0, #0
		return SD_MMC_HSMCI_SLOT_1_SIZE;
#endif
	default:
		return 0; // Slot number wrong
	}
}
  400cb6:	bf0c      	ite	eq
  400cb8:	2004      	moveq	r0, #4
  400cba:	2000      	movne	r0, #0
  400cbc:	4770      	bx	lr

00400cbe <hsmci_is_high_speed_capable>:

bool hsmci_is_high_speed_capable(void)
{
	return true;
}
  400cbe:	2001      	movs	r0, #1
  400cc0:	4770      	bx	lr
	...

00400cc4 <hsmci_select_device>:
void hsmci_select_device(uint8_t slot, uint32_t clock, uint8_t bus_width, bool high_speed)
{
	uint32_t hsmci_slot = HSMCI_SDCR_SDCSEL_SLOTA;
	uint32_t hsmci_bus_width = HSMCI_SDCR_SDCBUS_1;

	if (high_speed) {
  400cc4:	b19b      	cbz	r3, 400cee <hsmci_select_device+0x2a>
		HSMCI->HSMCI_CFG |= HSMCI_CFG_HSMODE;
  400cc6:	f04f 4080 	mov.w	r0, #1073741824	; 0x40000000
  400cca:	6d43      	ldr	r3, [r0, #84]	; 0x54
  400ccc:	f443 7380 	orr.w	r3, r3, #256	; 0x100
  400cd0:	6543      	str	r3, [r0, #84]	; 0x54
	if ((speed * 2) < mck) {
  400cd2:	0049      	lsls	r1, r1, #1
  400cd4:	4b15      	ldr	r3, [pc, #84]	; (400d2c <hsmci_select_device+0x68>)
  400cd6:	4299      	cmp	r1, r3
  400cd8:	d810      	bhi.n	400cfc <hsmci_select_device+0x38>
		clkdiv = mck / (2 * speed);
  400cda:	4815      	ldr	r0, [pc, #84]	; (400d30 <hsmci_select_device+0x6c>)
  400cdc:	fbb0 f3f1 	udiv	r3, r0, r1
		rest = mck % (2 * speed);
  400ce0:	fb01 0113 	mls	r1, r1, r3, r0
		if (rest > 0) {
  400ce4:	b101      	cbz	r1, 400ce8 <hsmci_select_device+0x24>
			clkdiv++;
  400ce6:	3301      	adds	r3, #1
		if (clkdiv > 0) {
  400ce8:	b14b      	cbz	r3, 400cfe <hsmci_select_device+0x3a>
			clkdiv -= 1;
  400cea:	3b01      	subs	r3, #1
  400cec:	e007      	b.n	400cfe <hsmci_select_device+0x3a>
	} else {
		HSMCI->HSMCI_CFG &= ~HSMCI_CFG_HSMODE;
  400cee:	f04f 4080 	mov.w	r0, #1073741824	; 0x40000000
  400cf2:	6d43      	ldr	r3, [r0, #84]	; 0x54
  400cf4:	f423 7380 	bic.w	r3, r3, #256	; 0x100
  400cf8:	6543      	str	r3, [r0, #84]	; 0x54
  400cfa:	e7ea      	b.n	400cd2 <hsmci_select_device+0xe>
		clkdiv = 0;
  400cfc:	2300      	movs	r3, #0
	HSMCI->HSMCI_MR &= ~HSMCI_MR_CLKDIV_Msk;
  400cfe:	f04f 4180 	mov.w	r1, #1073741824	; 0x40000000
  400d02:	6848      	ldr	r0, [r1, #4]
  400d04:	f020 00ff 	bic.w	r0, r0, #255	; 0xff
  400d08:	6048      	str	r0, [r1, #4]
	HSMCI->HSMCI_MR |= HSMCI_MR_CLKDIV(clkdiv);
  400d0a:	6848      	ldr	r0, [r1, #4]
  400d0c:	b2db      	uxtb	r3, r3
  400d0e:	4303      	orrs	r3, r0
  400d10:	604b      	str	r3, [r1, #4]
#endif
	default:
		Assert(false); // Slot number wrong
	}

	switch (bus_width) {
  400d12:	2a04      	cmp	r2, #4
  400d14:	d007      	beq.n	400d26 <hsmci_select_device+0x62>
	uint32_t hsmci_bus_width = HSMCI_SDCR_SDCBUS_1;
  400d16:	2a08      	cmp	r2, #8
  400d18:	bf0c      	ite	eq
  400d1a:	22c0      	moveq	r2, #192	; 0xc0
  400d1c:	2200      	movne	r2, #0
		break;

	default:
		Assert(false); // Bus width wrong
	}
	HSMCI->HSMCI_SDCR = hsmci_slot | hsmci_bus_width;
  400d1e:	f04f 4380 	mov.w	r3, #1073741824	; 0x40000000
  400d22:	60da      	str	r2, [r3, #12]
  400d24:	4770      	bx	lr
		hsmci_bus_width = HSMCI_SDCR_SDCBUS_4;
  400d26:	2280      	movs	r2, #128	; 0x80
  400d28:	e7f9      	b.n	400d1e <hsmci_select_device+0x5a>
  400d2a:	bf00      	nop
  400d2c:	089543ff 	.word	0x089543ff
  400d30:	08954400 	.word	0x08954400

00400d34 <hsmci_deselect_device>:
}

void hsmci_deselect_device(uint8_t slot)
{
  400d34:	4770      	bx	lr

00400d36 <hsmci_send_clock>:
}

void hsmci_send_clock(void)
{
	// Configure command
	HSMCI->HSMCI_MR &= ~(HSMCI_MR_WRPROOF | HSMCI_MR_RDPROOF | HSMCI_MR_FBYTE);
  400d36:	f04f 4380 	mov.w	r3, #1073741824	; 0x40000000
  400d3a:	685a      	ldr	r2, [r3, #4]
  400d3c:	f422 5260 	bic.w	r2, r2, #14336	; 0x3800
  400d40:	605a      	str	r2, [r3, #4]
	// Write argument
	HSMCI->HSMCI_ARGR = 0;
  400d42:	2200      	movs	r2, #0
  400d44:	611a      	str	r2, [r3, #16]
	// Write and start initialization command
	HSMCI->HSMCI_CMDR = HSMCI_CMDR_RSPTYP_NORESP
  400d46:	f44f 6210 	mov.w	r2, #2304	; 0x900
  400d4a:	615a      	str	r2, [r3, #20]
			| HSMCI_CMDR_SPCMD_INIT
			| HSMCI_CMDR_OPDCMD_OPENDRAIN;
	// Wait end of initialization command
	while (!(HSMCI->HSMCI_SR & HSMCI_SR_CMDRDY));
  400d4c:	461a      	mov	r2, r3
  400d4e:	6c13      	ldr	r3, [r2, #64]	; 0x40
  400d50:	f013 0f01 	tst.w	r3, #1
  400d54:	d0fb      	beq.n	400d4e <hsmci_send_clock+0x18>
}
  400d56:	4770      	bx	lr

00400d58 <hsmci_send_cmd>:

bool hsmci_send_cmd(sdmmc_cmd_def_t cmd, uint32_t arg)
{
  400d58:	b510      	push	{r4, lr}
	// Configure command
	HSMCI->HSMCI_MR &= ~(HSMCI_MR_WRPROOF | HSMCI_MR_RDPROOF | HSMCI_MR_FBYTE);
  400d5a:	f04f 4380 	mov.w	r3, #1073741824	; 0x40000000
  400d5e:	685a      	ldr	r2, [r3, #4]
  400d60:	f422 5260 	bic.w	r2, r2, #14336	; 0x3800
  400d64:	605a      	str	r2, [r3, #4]
	HSMCI->HSMCI_MR &= ~HSMCI_MR_PDCMODE;
#endif
#if (SAMV70 || SAMV71 || SAME70 || SAMS70)
#ifdef HSMCI_DMA_DMAEN
	// Disable DMA for HSMCI
	HSMCI->HSMCI_DMA = 0;
  400d66:	2400      	movs	r4, #0
  400d68:	651c      	str	r4, [r3, #80]	; 0x50
#endif
#endif
	HSMCI->HSMCI_BLKR = 0;
  400d6a:	619c      	str	r4, [r3, #24]
	return hsmci_send_cmd_execute(0, cmd, arg);
  400d6c:	460a      	mov	r2, r1
  400d6e:	4601      	mov	r1, r0
  400d70:	4620      	mov	r0, r4
  400d72:	4b01      	ldr	r3, [pc, #4]	; (400d78 <hsmci_send_cmd+0x20>)
  400d74:	4798      	blx	r3
}
  400d76:	bd10      	pop	{r4, pc}
  400d78:	00400be9 	.word	0x00400be9

00400d7c <hsmci_get_response>:

uint32_t hsmci_get_response(void)
{
	return HSMCI->HSMCI_RSPR[0];
  400d7c:	f04f 4380 	mov.w	r3, #1073741824	; 0x40000000
  400d80:	6a18      	ldr	r0, [r3, #32]
}
  400d82:	4770      	bx	lr

00400d84 <hsmci_get_response_128>:

void hsmci_get_response_128(uint8_t* response)
{
  400d84:	b410      	push	{r4}
  400d86:	1d03      	adds	r3, r0, #4
  400d88:	3014      	adds	r0, #20
	uint32_t response_32;

	for (uint8_t i = 0; i < 4; i++) {
		response_32 = HSMCI->HSMCI_RSPR[0];
  400d8a:	f04f 4480 	mov.w	r4, #1073741824	; 0x40000000
  400d8e:	6a22      	ldr	r2, [r4, #32]
		*response = (response_32 >> 24) & 0xFF;
  400d90:	0e11      	lsrs	r1, r2, #24
  400d92:	f803 1c04 	strb.w	r1, [r3, #-4]
		response++;
		*response = (response_32 >> 16) & 0xFF;
  400d96:	0c11      	lsrs	r1, r2, #16
  400d98:	f803 1c03 	strb.w	r1, [r3, #-3]
		response++;
		*response = (response_32 >>  8) & 0xFF;
  400d9c:	0a11      	lsrs	r1, r2, #8
  400d9e:	f803 1c02 	strb.w	r1, [r3, #-2]
		response++;
		*response = (response_32 >>  0) & 0xFF;
  400da2:	f803 2c01 	strb.w	r2, [r3, #-1]
  400da6:	3304      	adds	r3, #4
	for (uint8_t i = 0; i < 4; i++) {
  400da8:	4283      	cmp	r3, r0
  400daa:	d1f0      	bne.n	400d8e <hsmci_get_response_128+0xa>
		response++;
	}
}
  400dac:	f85d 4b04 	ldr.w	r4, [sp], #4
  400db0:	4770      	bx	lr
	...

00400db4 <hsmci_adtc_start>:

bool hsmci_adtc_start(sdmmc_cmd_def_t cmd, uint32_t arg, uint16_t block_size, uint16_t nb_block, bool access_block)
{
  400db4:	b570      	push	{r4, r5, r6, lr}
  400db6:	f89d 4010 	ldrb.w	r4, [sp, #16]
	}
#endif

#if (SAMV70 || SAMV71 || SAME70 || SAMS70)
#ifdef HSMCI_DMA_DMAEN
	if (access_block) {
  400dba:	b384      	cbz	r4, 400e1e <hsmci_adtc_start+0x6a>
		// Enable DMA for HSMCI
		HSMCI->HSMCI_DMA = HSMCI_DMA_DMAEN;
  400dbc:	f44f 7580 	mov.w	r5, #256	; 0x100
  400dc0:	f04f 4480 	mov.w	r4, #1073741824	; 0x40000000
  400dc4:	6525      	str	r5, [r4, #80]	; 0x50
#endif
#endif
	// Enabling Read/Write Proof allows to stop the HSMCI Clock during
	// read/write  access if the internal FIFO is full.
	// This will guarantee data integrity, not bandwidth.
	HSMCI->HSMCI_MR |= HSMCI_MR_WRPROOF | HSMCI_MR_RDPROOF;
  400dc6:	f04f 4580 	mov.w	r5, #1073741824	; 0x40000000
  400dca:	686c      	ldr	r4, [r5, #4]
  400dcc:	f444 54c0 	orr.w	r4, r4, #6144	; 0x1800
  400dd0:	606c      	str	r4, [r5, #4]
	// Force byte transfer if needed
	if (block_size & 0x3) {
  400dd2:	f012 0f03 	tst.w	r2, #3
  400dd6:	d027      	beq.n	400e28 <hsmci_adtc_start+0x74>
		HSMCI->HSMCI_MR |= HSMCI_MR_FBYTE;
  400dd8:	686c      	ldr	r4, [r5, #4]
  400dda:	f444 5400 	orr.w	r4, r4, #8192	; 0x2000
  400dde:	606c      	str	r4, [r5, #4]
	} else {
		HSMCI->HSMCI_MR &= ~HSMCI_MR_FBYTE;
	}

	if (cmd & SDMMC_CMD_WRITE) {
  400de0:	f400 4400 	and.w	r4, r0, #32768	; 0x8000
		cmdr = HSMCI_CMDR_TRCMD_START_DATA | HSMCI_CMDR_TRDIR_WRITE;
	} else {
		cmdr = HSMCI_CMDR_TRCMD_START_DATA | HSMCI_CMDR_TRDIR_READ;
  400de4:	2c00      	cmp	r4, #0
  400de6:	bf14      	ite	ne
  400de8:	f44f 3480 	movne.w	r4, #65536	; 0x10000
  400dec:	f44f 24a0 	moveq.w	r4, #327680	; 0x50000
	}

	if (cmd & SDMMC_CMD_SDIO_BYTE) {
  400df0:	f410 3f80 	tst.w	r0, #65536	; 0x10000
  400df4:	d11f      	bne.n	400e36 <hsmci_adtc_start+0x82>
			cmdr |= HSMCI_CMDR_TRTYP_BYTE;
			// Value 0 corresponds to a 512-byte transfer
			HSMCI->HSMCI_BLKR = ((block_size % 512) << HSMCI_BLKR_BCNT_Pos);
	} else {
		HSMCI->HSMCI_BLKR = (block_size << HSMCI_BLKR_BLKLEN_Pos) |
  400df6:	ea43 4502 	orr.w	r5, r3, r2, lsl #16
  400dfa:	f04f 4680 	mov.w	r6, #1073741824	; 0x40000000
  400dfe:	61b5      	str	r5, [r6, #24]
				(nb_block << HSMCI_BLKR_BCNT_Pos);
		if (cmd & SDMMC_CMD_SDIO_BLOCK) {
  400e00:	f410 3f00 	tst.w	r0, #131072	; 0x20000
  400e04:	d12b      	bne.n	400e5e <hsmci_adtc_start+0xaa>
			cmdr |= HSMCI_CMDR_TRTYP_BLOCK;
		} else if (cmd & SDMMC_CMD_STREAM) {
  400e06:	f410 2f80 	tst.w	r0, #262144	; 0x40000
  400e0a:	d12b      	bne.n	400e64 <hsmci_adtc_start+0xb0>
			cmdr |= HSMCI_CMDR_TRTYP_STREAM;
		} else if (cmd & SDMMC_CMD_SINGLE_BLOCK) {
  400e0c:	f410 2f00 	tst.w	r0, #524288	; 0x80000
  400e10:	d118      	bne.n	400e44 <hsmci_adtc_start+0x90>
			cmdr |= HSMCI_CMDR_TRTYP_SINGLE;
		} else if (cmd & SDMMC_CMD_MULTI_BLOCK) {
  400e12:	f410 1f80 	tst.w	r0, #1048576	; 0x100000
			cmdr |= HSMCI_CMDR_TRTYP_MULTIPLE;
  400e16:	bf18      	it	ne
  400e18:	f444 2400 	orrne.w	r4, r4, #524288	; 0x80000
  400e1c:	e012      	b.n	400e44 <hsmci_adtc_start+0x90>
		HSMCI->HSMCI_DMA = 0;
  400e1e:	2500      	movs	r5, #0
  400e20:	f04f 4480 	mov.w	r4, #1073741824	; 0x40000000
  400e24:	6525      	str	r5, [r4, #80]	; 0x50
  400e26:	e7ce      	b.n	400dc6 <hsmci_adtc_start+0x12>
		HSMCI->HSMCI_MR &= ~HSMCI_MR_FBYTE;
  400e28:	f04f 4580 	mov.w	r5, #1073741824	; 0x40000000
  400e2c:	686c      	ldr	r4, [r5, #4]
  400e2e:	f424 5400 	bic.w	r4, r4, #8192	; 0x2000
  400e32:	606c      	str	r4, [r5, #4]
  400e34:	e7d4      	b.n	400de0 <hsmci_adtc_start+0x2c>
			cmdr |= HSMCI_CMDR_TRTYP_BYTE;
  400e36:	f444 1400 	orr.w	r4, r4, #2097152	; 0x200000
			HSMCI->HSMCI_BLKR = ((block_size % 512) << HSMCI_BLKR_BCNT_Pos);
  400e3a:	f3c2 0508 	ubfx	r5, r2, #0, #9
  400e3e:	f04f 4680 	mov.w	r6, #1073741824	; 0x40000000
  400e42:	61b5      	str	r5, [r6, #24]
		} else {
			Assert(false); // Incorrect flags
		}
	}
	hsmci_transfert_pos = 0;
  400e44:	2600      	movs	r6, #0
  400e46:	4d09      	ldr	r5, [pc, #36]	; (400e6c <hsmci_adtc_start+0xb8>)
  400e48:	602e      	str	r6, [r5, #0]
	hsmci_block_size = block_size;
  400e4a:	4d09      	ldr	r5, [pc, #36]	; (400e70 <hsmci_adtc_start+0xbc>)
  400e4c:	802a      	strh	r2, [r5, #0]
	hsmci_nb_block = nb_block;
  400e4e:	4a09      	ldr	r2, [pc, #36]	; (400e74 <hsmci_adtc_start+0xc0>)
  400e50:	8013      	strh	r3, [r2, #0]

	return hsmci_send_cmd_execute(cmdr, cmd, arg);
  400e52:	460a      	mov	r2, r1
  400e54:	4601      	mov	r1, r0
  400e56:	4620      	mov	r0, r4
  400e58:	4b07      	ldr	r3, [pc, #28]	; (400e78 <hsmci_adtc_start+0xc4>)
  400e5a:	4798      	blx	r3
}
  400e5c:	bd70      	pop	{r4, r5, r6, pc}
			cmdr |= HSMCI_CMDR_TRTYP_BLOCK;
  400e5e:	f444 1420 	orr.w	r4, r4, #2621440	; 0x280000
  400e62:	e7ef      	b.n	400e44 <hsmci_adtc_start+0x90>
			cmdr |= HSMCI_CMDR_TRTYP_STREAM;
  400e64:	f444 1480 	orr.w	r4, r4, #1048576	; 0x100000
  400e68:	e7ec      	b.n	400e44 <hsmci_adtc_start+0x90>
  400e6a:	bf00      	nop
  400e6c:	20400494 	.word	0x20400494
  400e70:	2040048e 	.word	0x2040048e
  400e74:	20400490 	.word	0x20400490
  400e78:	00400be9 	.word	0x00400be9

00400e7c <hsmci_read_word>:
{
	return hsmci_send_cmd_execute(HSMCI_CMDR_TRCMD_STOP_DATA, cmd, arg);
}

bool hsmci_read_word(uint32_t* value)
{
  400e7c:	b508      	push	{r3, lr}

	Assert(((uint32_t)hsmci_block_size * hsmci_nb_block) > hsmci_transfert_pos);

	// Wait data available
	do {
		sr = HSMCI->HSMCI_SR;
  400e7e:	f04f 4180 	mov.w	r1, #1073741824	; 0x40000000
		if (sr & (HSMCI_SR_UNRE | HSMCI_SR_OVRE | \
  400e82:	4a16      	ldr	r2, [pc, #88]	; (400edc <hsmci_read_word+0x60>)
		sr = HSMCI->HSMCI_SR;
  400e84:	6c0b      	ldr	r3, [r1, #64]	; 0x40
		if (sr & (HSMCI_SR_UNRE | HSMCI_SR_OVRE | \
  400e86:	4213      	tst	r3, r2
  400e88:	d11d      	bne.n	400ec6 <hsmci_read_word+0x4a>
			hsmci_debug("%s: DMA sr 0x%08x error\n\r",
					__func__, sr);
			hsmci_reset();
			return false;
		}
	} while (!(sr & HSMCI_SR_RXRDY));
  400e8a:	f013 0f02 	tst.w	r3, #2
  400e8e:	d0f9      	beq.n	400e84 <hsmci_read_word+0x8>

	// Read data
	*value = HSMCI->HSMCI_RDR;
  400e90:	f04f 4380 	mov.w	r3, #1073741824	; 0x40000000
  400e94:	6b1b      	ldr	r3, [r3, #48]	; 0x30
  400e96:	6003      	str	r3, [r0, #0]
	hsmci_transfert_pos += 4;
  400e98:	4a11      	ldr	r2, [pc, #68]	; (400ee0 <hsmci_read_word+0x64>)
  400e9a:	6813      	ldr	r3, [r2, #0]
  400e9c:	3304      	adds	r3, #4
  400e9e:	6013      	str	r3, [r2, #0]
	if (((uint32_t)hsmci_block_size * hsmci_nb_block) > hsmci_transfert_pos) {
  400ea0:	4a10      	ldr	r2, [pc, #64]	; (400ee4 <hsmci_read_word+0x68>)
  400ea2:	8811      	ldrh	r1, [r2, #0]
  400ea4:	4a10      	ldr	r2, [pc, #64]	; (400ee8 <hsmci_read_word+0x6c>)
  400ea6:	8812      	ldrh	r2, [r2, #0]
  400ea8:	fb02 f201 	mul.w	r2, r2, r1
  400eac:	4293      	cmp	r3, r2
  400eae:	d312      	bcc.n	400ed6 <hsmci_read_word+0x5a>
	}

	// Wait end of transfer
	// Note: no need of timeout, because it is include in HSMCI
	do {
		sr = HSMCI->HSMCI_SR;
  400eb0:	f04f 4180 	mov.w	r1, #1073741824	; 0x40000000
		if (sr & (HSMCI_SR_UNRE | HSMCI_SR_OVRE | \
  400eb4:	4a09      	ldr	r2, [pc, #36]	; (400edc <hsmci_read_word+0x60>)
		sr = HSMCI->HSMCI_SR;
  400eb6:	6c0b      	ldr	r3, [r1, #64]	; 0x40
		if (sr & (HSMCI_SR_UNRE | HSMCI_SR_OVRE | \
  400eb8:	4213      	tst	r3, r2
  400eba:	d108      	bne.n	400ece <hsmci_read_word+0x52>
			hsmci_debug("%s: DMA sr 0x%08x error\n\r",
					__func__, sr);
			hsmci_reset();
			return false;
		}
	} while (!(sr & HSMCI_SR_XFRDONE));
  400ebc:	f013 6f00 	tst.w	r3, #134217728	; 0x8000000
  400ec0:	d0f9      	beq.n	400eb6 <hsmci_read_word+0x3a>
	return true;
  400ec2:	2001      	movs	r0, #1
  400ec4:	bd08      	pop	{r3, pc}
			hsmci_reset();
  400ec6:	4b09      	ldr	r3, [pc, #36]	; (400eec <hsmci_read_word+0x70>)
  400ec8:	4798      	blx	r3
			return false;
  400eca:	2000      	movs	r0, #0
  400ecc:	bd08      	pop	{r3, pc}
			hsmci_reset();
  400ece:	4b07      	ldr	r3, [pc, #28]	; (400eec <hsmci_read_word+0x70>)
  400ed0:	4798      	blx	r3
			return false;
  400ed2:	2000      	movs	r0, #0
  400ed4:	bd08      	pop	{r3, pc}
		return true;
  400ed6:	2001      	movs	r0, #1
}
  400ed8:	bd08      	pop	{r3, pc}
  400eda:	bf00      	nop
  400edc:	c0600000 	.word	0xc0600000
  400ee0:	20400494 	.word	0x20400494
  400ee4:	2040048e 	.word	0x2040048e
  400ee8:	20400490 	.word	0x20400490
  400eec:	00400bbd 	.word	0x00400bbd

00400ef0 <hsmci_start_read_blocks>:
#endif // HSMCI_MR_PDCMODE

#if (SAMV70 || SAMV71 || SAME70 || SAMS70)
#ifdef HSMCI_DMA_DMAEN
bool hsmci_start_read_blocks(void *dest, uint16_t nb_block)
{
  400ef0:	b5f0      	push	{r4, r5, r6, r7, lr}
  400ef2:	b089      	sub	sp, #36	; 0x24
  400ef4:	4607      	mov	r7, r0
  400ef6:	460c      	mov	r4, r1
	xdmac_channel_config_t p_cfg = {0, 0, 0, 0, 0, 0, 0, 0};
  400ef8:	2220      	movs	r2, #32
  400efa:	2100      	movs	r1, #0
  400efc:	4668      	mov	r0, sp
  400efe:	4b0e      	ldr	r3, [pc, #56]	; (400f38 <hsmci_start_read_blocks+0x48>)
  400f00:	4798      	blx	r3
 */
static inline void xdmac_channel_disable(Xdmac *xdmac, uint32_t channel_num)
{
	Assert(xdmac);
	Assert(channel_num < XDMACCHID_NUMBER);
	xdmac->XDMAC_GD =(XDMAC_GD_DI0 << channel_num);
  400f02:	4e0e      	ldr	r6, [pc, #56]	; (400f3c <hsmci_start_read_blocks+0x4c>)
  400f04:	2501      	movs	r5, #1
  400f06:	6235      	str	r5, [r6, #32]
	Assert(nb_block);
	Assert(dest);

	xdmac_channel_disable(XDMAC, CONF_HSMCI_XDMAC_CHANNEL);

	nb_data = nb_block * hsmci_block_size;
  400f08:	4b0d      	ldr	r3, [pc, #52]	; (400f40 <hsmci_start_read_blocks+0x50>)
  400f0a:	881b      	ldrh	r3, [r3, #0]
  400f0c:	fb04 f403 	mul.w	r4, r4, r3

	p_cfg.mbr_cfg = XDMAC_CC_TYPE_PER_TRAN
  400f10:	4b0c      	ldr	r3, [pc, #48]	; (400f44 <hsmci_start_read_blocks+0x54>)
  400f12:	9303      	str	r3, [sp, #12]
					| XDMAC_CC_SIF_AHB_IF1
					| XDMAC_CC_DIF_AHB_IF0
					| XDMAC_CC_SAM_FIXED_AM
					| XDMAC_CC_DAM_INCREMENTED_AM
					| XDMAC_CC_PERID(CONF_HSMCI_XDMAC_CHANNEL);
	p_cfg.mbr_ubc = nb_data / 4;
  400f14:	08a3      	lsrs	r3, r4, #2
  400f16:	9300      	str	r3, [sp, #0]
	p_cfg.mbr_sa = (uint32_t)&(HSMCI->HSMCI_FIFO[0]);
  400f18:	4b0b      	ldr	r3, [pc, #44]	; (400f48 <hsmci_start_read_blocks+0x58>)
  400f1a:	9301      	str	r3, [sp, #4]
	p_cfg.mbr_da = (uint32_t)dest;
  400f1c:	9702      	str	r7, [sp, #8]
	xdmac_configure_transfer(XDMAC, CONF_HSMCI_XDMAC_CHANNEL, &p_cfg);
  400f1e:	466a      	mov	r2, sp
  400f20:	2100      	movs	r1, #0
  400f22:	4630      	mov	r0, r6
  400f24:	4b09      	ldr	r3, [pc, #36]	; (400f4c <hsmci_start_read_blocks+0x5c>)
  400f26:	4798      	blx	r3
	xdmac->XDMAC_GE = (XDMAC_GE_EN0 << channel_num);
  400f28:	61f5      	str	r5, [r6, #28]
	xdmac_channel_enable(XDMAC, CONF_HSMCI_XDMAC_CHANNEL);
	hsmci_transfert_pos += nb_data;
  400f2a:	4a09      	ldr	r2, [pc, #36]	; (400f50 <hsmci_start_read_blocks+0x60>)
  400f2c:	6813      	ldr	r3, [r2, #0]
  400f2e:	441c      	add	r4, r3
  400f30:	6014      	str	r4, [r2, #0]
	return true;
}
  400f32:	4628      	mov	r0, r5
  400f34:	b009      	add	sp, #36	; 0x24
  400f36:	bdf0      	pop	{r4, r5, r6, r7, pc}
  400f38:	004027d9 	.word	0x004027d9
  400f3c:	40078000 	.word	0x40078000
  400f40:	2040048e 	.word	0x2040048e
  400f44:	00043001 	.word	0x00043001
  400f48:	40000200 	.word	0x40000200
  400f4c:	0040206d 	.word	0x0040206d
  400f50:	20400494 	.word	0x20400494

00400f54 <hsmci_wait_end_of_read_blocks>:

bool hsmci_wait_end_of_read_blocks(void)
{
  400f54:	b570      	push	{r4, r5, r6, lr}
			hsmci_reset();
			// Disable XDMAC
			xdmac_channel_disable(XDMAC, CONF_HSMCI_XDMAC_CHANNEL);
			return false;
		}
		if (((uint32_t)hsmci_block_size * hsmci_nb_block) > hsmci_transfert_pos) {
  400f56:	4b12      	ldr	r3, [pc, #72]	; (400fa0 <hsmci_wait_end_of_read_blocks+0x4c>)
  400f58:	881b      	ldrh	r3, [r3, #0]
  400f5a:	4a12      	ldr	r2, [pc, #72]	; (400fa4 <hsmci_wait_end_of_read_blocks+0x50>)
  400f5c:	8812      	ldrh	r2, [r2, #0]
  400f5e:	fb02 f203 	mul.w	r2, r2, r3
  400f62:	4b11      	ldr	r3, [pc, #68]	; (400fa8 <hsmci_wait_end_of_read_blocks+0x54>)
  400f64:	681c      	ldr	r4, [r3, #0]
		sr = HSMCI->HSMCI_SR;
  400f66:	f04f 4080 	mov.w	r0, #1073741824	; 0x40000000
		if (sr & (HSMCI_SR_UNRE | HSMCI_SR_OVRE | \
  400f6a:	4910      	ldr	r1, [pc, #64]	; (400fac <hsmci_wait_end_of_read_blocks+0x58>)
 */
static inline uint32_t xdmac_channel_get_interrupt_status(Xdmac *xdmac, uint32_t channel_num)
{
	Assert(xdmac);
	Assert(channel_num < XDMACCHID_NUMBER);
	return xdmac->XDMAC_CHID[channel_num].XDMAC_CIS;
  400f6c:	4e10      	ldr	r6, [pc, #64]	; (400fb0 <hsmci_wait_end_of_read_blocks+0x5c>)
  400f6e:	e009      	b.n	400f84 <hsmci_wait_end_of_read_blocks+0x30>
			hsmci_reset();
  400f70:	4b10      	ldr	r3, [pc, #64]	; (400fb4 <hsmci_wait_end_of_read_blocks+0x60>)
  400f72:	4798      	blx	r3
	xdmac->XDMAC_GD =(XDMAC_GD_DI0 << channel_num);
  400f74:	2201      	movs	r2, #1
  400f76:	4b0e      	ldr	r3, [pc, #56]	; (400fb0 <hsmci_wait_end_of_read_blocks+0x5c>)
  400f78:	621a      	str	r2, [r3, #32]
			return false;
  400f7a:	2000      	movs	r0, #0
  400f7c:	bd70      	pop	{r4, r5, r6, pc}
			dma_sr = xdmac_channel_get_interrupt_status(XDMAC, CONF_HSMCI_XDMAC_CHANNEL);
			if (dma_sr & XDMAC_CIS_BIS) {
				return true;
			}
		}
	} while (!(sr & HSMCI_SR_XFRDONE));
  400f7e:	f013 6f00 	tst.w	r3, #134217728	; 0x8000000
  400f82:	d10a      	bne.n	400f9a <hsmci_wait_end_of_read_blocks+0x46>
		sr = HSMCI->HSMCI_SR;
  400f84:	6c03      	ldr	r3, [r0, #64]	; 0x40
		if (sr & (HSMCI_SR_UNRE | HSMCI_SR_OVRE | \
  400f86:	420b      	tst	r3, r1
  400f88:	d1f2      	bne.n	400f70 <hsmci_wait_end_of_read_blocks+0x1c>
		if (((uint32_t)hsmci_block_size * hsmci_nb_block) > hsmci_transfert_pos) {
  400f8a:	42a2      	cmp	r2, r4
  400f8c:	d9f7      	bls.n	400f7e <hsmci_wait_end_of_read_blocks+0x2a>
	return xdmac->XDMAC_CHID[channel_num].XDMAC_CIS;
  400f8e:	6df5      	ldr	r5, [r6, #92]	; 0x5c
			if (dma_sr & XDMAC_CIS_BIS) {
  400f90:	f015 0f01 	tst.w	r5, #1
  400f94:	d0f3      	beq.n	400f7e <hsmci_wait_end_of_read_blocks+0x2a>
				return true;
  400f96:	2001      	movs	r0, #1
	return true;
}
  400f98:	bd70      	pop	{r4, r5, r6, pc}
	return true;
  400f9a:	2001      	movs	r0, #1
  400f9c:	bd70      	pop	{r4, r5, r6, pc}
  400f9e:	bf00      	nop
  400fa0:	2040048e 	.word	0x2040048e
  400fa4:	20400490 	.word	0x20400490
  400fa8:	20400494 	.word	0x20400494
  400fac:	c0600000 	.word	0xc0600000
  400fb0:	40078000 	.word	0x40078000
  400fb4:	00400bbd 	.word	0x00400bbd

00400fb8 <hsmci_start_write_blocks>:

bool hsmci_start_write_blocks(const void *src, uint16_t nb_block)
{
  400fb8:	b5f0      	push	{r4, r5, r6, r7, lr}
  400fba:	b089      	sub	sp, #36	; 0x24
  400fbc:	4607      	mov	r7, r0
  400fbe:	460c      	mov	r4, r1
	xdmac_channel_config_t p_cfg = {0, 0, 0, 0, 0, 0, 0, 0};
  400fc0:	2220      	movs	r2, #32
  400fc2:	2100      	movs	r1, #0
  400fc4:	4668      	mov	r0, sp
  400fc6:	4b0e      	ldr	r3, [pc, #56]	; (401000 <hsmci_start_write_blocks+0x48>)
  400fc8:	4798      	blx	r3
	xdmac->XDMAC_GD =(XDMAC_GD_DI0 << channel_num);
  400fca:	4e0e      	ldr	r6, [pc, #56]	; (401004 <hsmci_start_write_blocks+0x4c>)
  400fcc:	2501      	movs	r5, #1
  400fce:	6235      	str	r5, [r6, #32]
	Assert(nb_block);
	Assert(dest);

	xdmac_channel_disable(XDMAC, CONF_HSMCI_XDMAC_CHANNEL);

	nb_data = nb_block * hsmci_block_size;
  400fd0:	4b0d      	ldr	r3, [pc, #52]	; (401008 <hsmci_start_write_blocks+0x50>)
  400fd2:	881b      	ldrh	r3, [r3, #0]
  400fd4:	fb04 f403 	mul.w	r4, r4, r3

	p_cfg.mbr_cfg = XDMAC_CC_TYPE_PER_TRAN
  400fd8:	4b0c      	ldr	r3, [pc, #48]	; (40100c <hsmci_start_write_blocks+0x54>)
  400fda:	9303      	str	r3, [sp, #12]
					| XDMAC_CC_SIF_AHB_IF0
					| XDMAC_CC_DIF_AHB_IF1
					| XDMAC_CC_SAM_INCREMENTED_AM
					| XDMAC_CC_DAM_FIXED_AM
					| XDMAC_CC_PERID(CONF_HSMCI_XDMAC_CHANNEL);
	p_cfg.mbr_ubc = nb_data / 4;
  400fdc:	08a3      	lsrs	r3, r4, #2
  400fde:	9300      	str	r3, [sp, #0]
	p_cfg.mbr_sa = (uint32_t)src;
  400fe0:	9701      	str	r7, [sp, #4]
	p_cfg.mbr_da = (uint32_t)&(HSMCI->HSMCI_FIFO[0]);
  400fe2:	4b0b      	ldr	r3, [pc, #44]	; (401010 <hsmci_start_write_blocks+0x58>)
  400fe4:	9302      	str	r3, [sp, #8]
	xdmac_configure_transfer(XDMAC, CONF_HSMCI_XDMAC_CHANNEL, &p_cfg);
  400fe6:	466a      	mov	r2, sp
  400fe8:	2100      	movs	r1, #0
  400fea:	4630      	mov	r0, r6
  400fec:	4b09      	ldr	r3, [pc, #36]	; (401014 <hsmci_start_write_blocks+0x5c>)
  400fee:	4798      	blx	r3
	xdmac->XDMAC_GE = (XDMAC_GE_EN0 << channel_num);
  400ff0:	61f5      	str	r5, [r6, #28]
	xdmac_channel_enable(XDMAC, CONF_HSMCI_XDMAC_CHANNEL);
	hsmci_transfert_pos += nb_data;
  400ff2:	4a09      	ldr	r2, [pc, #36]	; (401018 <hsmci_start_write_blocks+0x60>)
  400ff4:	6813      	ldr	r3, [r2, #0]
  400ff6:	441c      	add	r4, r3
  400ff8:	6014      	str	r4, [r2, #0]
	return true;
}
  400ffa:	4628      	mov	r0, r5
  400ffc:	b009      	add	sp, #36	; 0x24
  400ffe:	bdf0      	pop	{r4, r5, r6, r7, pc}
  401000:	004027d9 	.word	0x004027d9
  401004:	40078000 	.word	0x40078000
  401008:	2040048e 	.word	0x2040048e
  40100c:	00015011 	.word	0x00015011
  401010:	40000200 	.word	0x40000200
  401014:	0040206d 	.word	0x0040206d
  401018:	20400494 	.word	0x20400494

0040101c <hsmci_wait_end_of_write_blocks>:

bool hsmci_wait_end_of_write_blocks(void)
{
  40101c:	b570      	push	{r4, r5, r6, lr}
			hsmci_reset();
			// Disable XDMAC
			xdmac_channel_disable(XDMAC, CONF_HSMCI_XDMAC_CHANNEL);
			return false;
		}
		if (((uint32_t)hsmci_block_size * hsmci_nb_block) > hsmci_transfert_pos) {
  40101e:	4b12      	ldr	r3, [pc, #72]	; (401068 <hsmci_wait_end_of_write_blocks+0x4c>)
  401020:	881b      	ldrh	r3, [r3, #0]
  401022:	4a12      	ldr	r2, [pc, #72]	; (40106c <hsmci_wait_end_of_write_blocks+0x50>)
  401024:	8812      	ldrh	r2, [r2, #0]
  401026:	fb02 f203 	mul.w	r2, r2, r3
  40102a:	4b11      	ldr	r3, [pc, #68]	; (401070 <hsmci_wait_end_of_write_blocks+0x54>)
  40102c:	681c      	ldr	r4, [r3, #0]
		sr = HSMCI->HSMCI_SR;
  40102e:	f04f 4080 	mov.w	r0, #1073741824	; 0x40000000
		if (sr & (HSMCI_SR_UNRE | HSMCI_SR_OVRE | \
  401032:	4910      	ldr	r1, [pc, #64]	; (401074 <hsmci_wait_end_of_write_blocks+0x58>)
	return xdmac->XDMAC_CHID[channel_num].XDMAC_CIS;
  401034:	4e10      	ldr	r6, [pc, #64]	; (401078 <hsmci_wait_end_of_write_blocks+0x5c>)
  401036:	e009      	b.n	40104c <hsmci_wait_end_of_write_blocks+0x30>
			hsmci_reset();
  401038:	4b10      	ldr	r3, [pc, #64]	; (40107c <hsmci_wait_end_of_write_blocks+0x60>)
  40103a:	4798      	blx	r3
	xdmac->XDMAC_GD =(XDMAC_GD_DI0 << channel_num);
  40103c:	2201      	movs	r2, #1
  40103e:	4b0e      	ldr	r3, [pc, #56]	; (401078 <hsmci_wait_end_of_write_blocks+0x5c>)
  401040:	621a      	str	r2, [r3, #32]
			return false;
  401042:	2000      	movs	r0, #0
  401044:	bd70      	pop	{r4, r5, r6, pc}
			dma_sr = xdmac_channel_get_interrupt_status(XDMAC, CONF_HSMCI_XDMAC_CHANNEL);
			if (dma_sr & XDMAC_CIS_BIS) {
				return true;
			}
		}
	} while (!(sr & HSMCI_SR_XFRDONE));
  401046:	f013 6f00 	tst.w	r3, #134217728	; 0x8000000
  40104a:	d10a      	bne.n	401062 <hsmci_wait_end_of_write_blocks+0x46>
		sr = HSMCI->HSMCI_SR;
  40104c:	6c03      	ldr	r3, [r0, #64]	; 0x40
		if (sr & (HSMCI_SR_UNRE | HSMCI_SR_OVRE | \
  40104e:	420b      	tst	r3, r1
  401050:	d1f2      	bne.n	401038 <hsmci_wait_end_of_write_blocks+0x1c>
		if (((uint32_t)hsmci_block_size * hsmci_nb_block) > hsmci_transfert_pos) {
  401052:	42a2      	cmp	r2, r4
  401054:	d9f7      	bls.n	401046 <hsmci_wait_end_of_write_blocks+0x2a>
	return xdmac->XDMAC_CHID[channel_num].XDMAC_CIS;
  401056:	6df5      	ldr	r5, [r6, #92]	; 0x5c
			if (dma_sr & XDMAC_CIS_BIS) {
  401058:	f015 0f01 	tst.w	r5, #1
  40105c:	d0f3      	beq.n	401046 <hsmci_wait_end_of_write_blocks+0x2a>
				return true;
  40105e:	2001      	movs	r0, #1

	return true;
}
  401060:	bd70      	pop	{r4, r5, r6, pc}
	return true;
  401062:	2001      	movs	r0, #1
  401064:	bd70      	pop	{r4, r5, r6, pc}
  401066:	bf00      	nop
  401068:	2040048e 	.word	0x2040048e
  40106c:	20400490 	.word	0x20400490
  401070:	20400494 	.word	0x20400494
  401074:	c0600000 	.word	0xc0600000
  401078:	40078000 	.word	0x40078000
  40107c:	00400bbd 	.word	0x00400bbd

00401080 <matrix_set_system_io>:

	p_matrix->MATRIX_SYSIO = ul_io;

#elif (SAMV71 || SAMV70 || SAMS70 || SAME70)
	
	p_matrix->CCFG_SYSIO &= 0xFFFF0000;
  401080:	4b06      	ldr	r3, [pc, #24]	; (40109c <matrix_set_system_io+0x1c>)
  401082:	f8d3 1114 	ldr.w	r1, [r3, #276]	; 0x114
  401086:	4a06      	ldr	r2, [pc, #24]	; (4010a0 <matrix_set_system_io+0x20>)
  401088:	400a      	ands	r2, r1
  40108a:	f8c3 2114 	str.w	r2, [r3, #276]	; 0x114
	p_matrix->CCFG_SYSIO |= (ul_io & 0xFFFF);
  40108e:	f8d3 2114 	ldr.w	r2, [r3, #276]	; 0x114
  401092:	b280      	uxth	r0, r0
  401094:	4310      	orrs	r0, r2
  401096:	f8c3 0114 	str.w	r0, [r3, #276]	; 0x114
  40109a:	4770      	bx	lr
  40109c:	40088000 	.word	0x40088000
  4010a0:	ffff0000 	.word	0xffff0000

004010a4 <matrix_get_system_io>:

	return (p_matrix->MATRIX_SYSIO);

#elif (SAMV71 || SAMV70 || SAMS70 || SAME70)

	return (p_matrix->CCFG_SYSIO & 0xFFFF);		// CCFG_SYSIO: SOFTWARE API DEFINITION FOR AHB Bus Matrix
  4010a4:	4b02      	ldr	r3, [pc, #8]	; (4010b0 <matrix_get_system_io+0xc>)
  4010a6:	f8d3 0114 	ldr.w	r0, [r3, #276]	; 0x114
#else

	return (p_matrix->CCFG_SYSIO);

#endif
}
  4010aa:	b280      	uxth	r0, r0
  4010ac:	4770      	bx	lr
  4010ae:	bf00      	nop
  4010b0:	40088000 	.word	0x40088000

004010b4 <pio_get_interrupt_status>:
 *
 * \return The interrupt status value.
 */
uint32_t pio_get_interrupt_status(const Pio *p_pio)
{
	return p_pio->PIO_ISR;
  4010b4:	6cc0      	ldr	r0, [r0, #76]	; 0x4c
}
  4010b6:	4770      	bx	lr

004010b8 <pio_get_interrupt_mask>:
 *
 * \return The interrupt mask value.
 */
uint32_t pio_get_interrupt_mask(const Pio *p_pio)
{
	return p_pio->PIO_IMR;
  4010b8:	6c80      	ldr	r0, [r0, #72]	; 0x48
}
  4010ba:	4770      	bx	lr

004010bc <pio_handler_process>:
 *
 * \param p_pio PIO controller base address.
 * \param ul_id PIO controller ID.
 */
void pio_handler_process(Pio *p_pio, uint32_t ul_id)
{
  4010bc:	e92d 41f0 	stmdb	sp!, {r4, r5, r6, r7, r8, lr}
  4010c0:	4604      	mov	r4, r0
  4010c2:	4688      	mov	r8, r1
	uint32_t status;
	uint32_t i;

	/* Read PIO controller status */
	status = pio_get_interrupt_status(p_pio);
  4010c4:	4b0e      	ldr	r3, [pc, #56]	; (401100 <pio_handler_process+0x44>)
  4010c6:	4798      	blx	r3
  4010c8:	4605      	mov	r5, r0
	status &= pio_get_interrupt_mask(p_pio);
  4010ca:	4620      	mov	r0, r4
  4010cc:	4b0d      	ldr	r3, [pc, #52]	; (401104 <pio_handler_process+0x48>)
  4010ce:	4798      	blx	r3

	/* Check pending events */
	if (status != 0) {
  4010d0:	4005      	ands	r5, r0
  4010d2:	d013      	beq.n	4010fc <pio_handler_process+0x40>
  4010d4:	4c0c      	ldr	r4, [pc, #48]	; (401108 <pio_handler_process+0x4c>)
  4010d6:	f104 0660 	add.w	r6, r4, #96	; 0x60
  4010da:	e003      	b.n	4010e4 <pio_handler_process+0x28>
							gs_interrupt_sources[i].mask);
					status &= ~(gs_interrupt_sources[i].mask);
				}
			}
			i++;
			if (i >= MAX_INTERRUPT_SOURCES) {
  4010dc:	42b4      	cmp	r4, r6
  4010de:	d00d      	beq.n	4010fc <pio_handler_process+0x40>
  4010e0:	3410      	adds	r4, #16
		while (status != 0) {
  4010e2:	b15d      	cbz	r5, 4010fc <pio_handler_process+0x40>
			if (gs_interrupt_sources[i].id == ul_id) {
  4010e4:	6820      	ldr	r0, [r4, #0]
  4010e6:	4540      	cmp	r0, r8
  4010e8:	d1f8      	bne.n	4010dc <pio_handler_process+0x20>
				if ((status & gs_interrupt_sources[i].mask) != 0) {
  4010ea:	6861      	ldr	r1, [r4, #4]
  4010ec:	4229      	tst	r1, r5
  4010ee:	d0f5      	beq.n	4010dc <pio_handler_process+0x20>
					gs_interrupt_sources[i].handler(gs_interrupt_sources[i].id,
  4010f0:	68e3      	ldr	r3, [r4, #12]
  4010f2:	4798      	blx	r3
					status &= ~(gs_interrupt_sources[i].mask);
  4010f4:	6863      	ldr	r3, [r4, #4]
  4010f6:	ea25 0503 	bic.w	r5, r5, r3
  4010fa:	e7ef      	b.n	4010dc <pio_handler_process+0x20>
  4010fc:	e8bd 81f0 	ldmia.w	sp!, {r4, r5, r6, r7, r8, pc}
  401100:	004010b5 	.word	0x004010b5
  401104:	004010b9 	.word	0x004010b9
  401108:	20400498 	.word	0x20400498

0040110c <PIOB_Handler>:
/**
 * \brief Parallel IO Controller B interrupt handler
 * Redefined PIOB interrupt handler for NVIC interrupt table.
 */
void PIOB_Handler(void)
{
  40110c:	b508      	push	{r3, lr}
    pio_handler_process(PIOB, ID_PIOB);
  40110e:	210b      	movs	r1, #11
  401110:	4801      	ldr	r0, [pc, #4]	; (401118 <PIOB_Handler+0xc>)
  401112:	4b02      	ldr	r3, [pc, #8]	; (40111c <PIOB_Handler+0x10>)
  401114:	4798      	blx	r3
  401116:	bd08      	pop	{r3, pc}
  401118:	400e1000 	.word	0x400e1000
  40111c:	004010bd 	.word	0x004010bd

00401120 <PIOD_Handler>:
/**
 * \brief Parallel IO Controller D interrupt handler.
 * Redefined PIOD interrupt handler for NVIC interrupt table.
 */
void PIOD_Handler(void)
{
  401120:	b508      	push	{r3, lr}
	pio_handler_process(PIOD, ID_PIOD);
  401122:	2110      	movs	r1, #16
  401124:	4801      	ldr	r0, [pc, #4]	; (40112c <PIOD_Handler+0xc>)
  401126:	4b02      	ldr	r3, [pc, #8]	; (401130 <PIOD_Handler+0x10>)
  401128:	4798      	blx	r3
  40112a:	bd08      	pop	{r3, pc}
  40112c:	400e1400 	.word	0x400e1400
  401130:	004010bd 	.word	0x004010bd

00401134 <pwm_channel_update_duty>:
		uint32_t ul_duty)
{
	uint32_t ch_num = p_channel->channel;

		/** Check parameter */
	if (p_channel->ul_period < ul_duty) {
  401134:	690b      	ldr	r3, [r1, #16]
  401136:	4293      	cmp	r3, r2
  401138:	d202      	bcs.n	401140 <pwm_channel_update_duty+0xc>
		return PWM_INVALID_ARGUMENT;
  40113a:	f64f 70ff 	movw	r0, #65535	; 0xffff
		p_pwm->PWM_CH_NUM[ch_num].PWM_CDTYUPD = ul_duty;
#endif
	}

	return 0;
}
  40113e:	4770      	bx	lr
	uint32_t ch_num = p_channel->channel;
  401140:	680b      	ldr	r3, [r1, #0]
		p_channel->ul_duty = ul_duty;
  401142:	60ca      	str	r2, [r1, #12]
		p_pwm->PWM_CH_NUM[ch_num].PWM_CDTYUPD = ul_duty;
  401144:	eb00 1043 	add.w	r0, r0, r3, lsl #5
  401148:	f8c0 2208 	str.w	r2, [r0, #520]	; 0x208
	return 0;
  40114c:	2000      	movs	r0, #0
  40114e:	4770      	bx	lr

00401150 <TWIHS_init>:
#include "definitions.h"



void TWIHS_init()
{	
  401150:	b500      	push	{lr}
  401152:	b085      	sub	sp, #20
	//Make sure you have the correct TWIHS
	twihs_options_t twihsOpt;
	twihsOpt.master_clk = sysclk_get_cpu_hz()/2; //make sure this is the correct clock to be checking
  401154:	4b1b      	ldr	r3, [pc, #108]	; (4011c4 <TWIHS_init+0x74>)
  401156:	9301      	str	r3, [sp, #4]
	twihsOpt.speed = 100000; //100kHz
  401158:	4b1b      	ldr	r3, [pc, #108]	; (4011c8 <TWIHS_init+0x78>)
  40115a:	9302      	str	r3, [sp, #8]
	
	matrix_set_system_io(matrix_get_system_io() | CCFG_SYSIO_SYSIO4 | CCFG_SYSIO_SYSIO5);
  40115c:	4b1b      	ldr	r3, [pc, #108]	; (4011cc <TWIHS_init+0x7c>)
  40115e:	4798      	blx	r3
  401160:	f040 0030 	orr.w	r0, r0, #48	; 0x30
  401164:	4b1a      	ldr	r3, [pc, #104]	; (4011d0 <TWIHS_init+0x80>)
  401166:	4798      	blx	r3
	Pio *base = arch_ioport_port_to_base(port);

	if (mode & IOPORT_MODE_PULLUP) {
		base->PIO_PUER = mask;
	} else {
		base->PIO_PUDR = mask;
  401168:	4b1a      	ldr	r3, [pc, #104]	; (4011d4 <TWIHS_init+0x84>)
  40116a:	2220      	movs	r2, #32
  40116c:	661a      	str	r2, [r3, #96]	; 0x60

#if defined(IOPORT_MODE_PULLDOWN)
	if (mode & IOPORT_MODE_PULLDOWN) {
		base->PIO_PPDER = mask;
	} else {
		base->PIO_PPDDR = mask;
  40116e:	f8c3 2090 	str.w	r2, [r3, #144]	; 0x90
#endif

	if (mode & IOPORT_MODE_OPEN_DRAIN) {
		base->PIO_MDER = mask;
	} else {
		base->PIO_MDDR = mask;
  401172:	655a      	str	r2, [r3, #84]	; 0x54
	}

	if (mode & (IOPORT_MODE_GLITCH_FILTER | IOPORT_MODE_DEBOUNCE)) {
		base->PIO_IFER = mask;
	} else {
		base->PIO_IFDR = mask;
  401174:	625a      	str	r2, [r3, #36]	; 0x24
#endif
	} else {
#if SAM3U || SAM3XA
		base->PIO_SCIFSR = mask;
#else
		base->PIO_IFSCDR = mask;
  401176:	f8c3 2080 	str.w	r2, [r3, #128]	; 0x80
	}
#else
	if (mode & IOPORT_MODE_MUX_BIT0) {
		base->PIO_ABCDSR[0] |= mask;
	} else {
		base->PIO_ABCDSR[0] &= ~mask;
  40117a:	6f19      	ldr	r1, [r3, #112]	; 0x70
  40117c:	f021 0120 	bic.w	r1, r1, #32
  401180:	6719      	str	r1, [r3, #112]	; 0x70
	}

	if (mode & IOPORT_MODE_MUX_BIT1) {
		base->PIO_ABCDSR[1] |= mask;
	} else {
		base->PIO_ABCDSR[1] &= ~mask;
  401182:	6f59      	ldr	r1, [r3, #116]	; 0x74
  401184:	f021 0120 	bic.w	r1, r1, #32
  401188:	6759      	str	r1, [r3, #116]	; 0x74
	arch_ioport_port_to_base(port)->PIO_PDR = mask;
  40118a:	605a      	str	r2, [r3, #4]
		base->PIO_PUDR = mask;
  40118c:	2210      	movs	r2, #16
  40118e:	661a      	str	r2, [r3, #96]	; 0x60
		base->PIO_PPDDR = mask;
  401190:	f8c3 2090 	str.w	r2, [r3, #144]	; 0x90
		base->PIO_MDDR = mask;
  401194:	655a      	str	r2, [r3, #84]	; 0x54
		base->PIO_IFDR = mask;
  401196:	625a      	str	r2, [r3, #36]	; 0x24
		base->PIO_IFSCDR = mask;
  401198:	f8c3 2080 	str.w	r2, [r3, #128]	; 0x80
		base->PIO_ABCDSR[0] &= ~mask;
  40119c:	6f19      	ldr	r1, [r3, #112]	; 0x70
  40119e:	f021 0110 	bic.w	r1, r1, #16
  4011a2:	6719      	str	r1, [r3, #112]	; 0x70
		base->PIO_ABCDSR[1] &= ~mask;
  4011a4:	6f59      	ldr	r1, [r3, #116]	; 0x74
  4011a6:	f021 0110 	bic.w	r1, r1, #16
  4011aa:	6759      	str	r1, [r3, #116]	; 0x74
	arch_ioport_port_to_base(port)->PIO_PDR = mask;
  4011ac:	605a      	str	r2, [r3, #4]
	ioport_set_pin_mode(TWCK_PIN,TWCK_MODE);
	ioport_disable_pin(TWCK_PIN);
	ioport_set_pin_mode(TWD_PIN,TWD_MODE);
	ioport_disable_pin(TWD_PIN);

	pmc_enable_periph_clk(ID_TWIHS1);
  4011ae:	2014      	movs	r0, #20
  4011b0:	4b09      	ldr	r3, [pc, #36]	; (4011d8 <TWIHS_init+0x88>)
  4011b2:	4798      	blx	r3

	twihs_master_init(TWIHS1,&twihsOpt);
  4011b4:	a901      	add	r1, sp, #4
  4011b6:	4809      	ldr	r0, [pc, #36]	; (4011dc <TWIHS_init+0x8c>)
  4011b8:	4b09      	ldr	r3, [pc, #36]	; (4011e0 <TWIHS_init+0x90>)
  4011ba:	4798      	blx	r3
}
  4011bc:	b005      	add	sp, #20
  4011be:	f85d fb04 	ldr.w	pc, [sp], #4
  4011c2:	bf00      	nop
  4011c4:	044aa200 	.word	0x044aa200
  4011c8:	000186a0 	.word	0x000186a0
  4011cc:	004010a5 	.word	0x004010a5
  4011d0:	00401081 	.word	0x00401081
  4011d4:	400e1000 	.word	0x400e1000
  4011d8:	00401f9d 	.word	0x00401f9d
  4011dc:	4001c000 	.word	0x4001c000
  4011e0:	00402039 	.word	0x00402039

004011e4 <SPI_BitBang_init>:

void SPI_BitBang_init()
{
  4011e4:	b508      	push	{r3, lr}
	pmc_enable_periph_clk(ID_PIOB);
  4011e6:	200b      	movs	r0, #11
  4011e8:	4b10      	ldr	r3, [pc, #64]	; (40122c <SPI_BitBang_init+0x48>)
  4011ea:	4798      	blx	r3
	matrix_set_system_io(matrix_get_system_io() | CCFG_SYSIO_SYSIO4 | CCFG_SYSIO_SYSIO5);
  4011ec:	4b10      	ldr	r3, [pc, #64]	; (401230 <SPI_BitBang_init+0x4c>)
  4011ee:	4798      	blx	r3
  4011f0:	f040 0030 	orr.w	r0, r0, #48	; 0x30
  4011f4:	4b0f      	ldr	r3, [pc, #60]	; (401234 <SPI_BitBang_init+0x50>)
  4011f6:	4798      	blx	r3
		enum ioport_direction dir)
{
	Pio *base = arch_ioport_pin_to_base(pin);

	if (dir == IOPORT_DIR_OUTPUT) {
		base->PIO_OER = arch_ioport_pin_to_mask(pin);
  4011f8:	4b0f      	ldr	r3, [pc, #60]	; (401238 <SPI_BitBang_init+0x54>)
  4011fa:	f44f 1200 	mov.w	r2, #2097152	; 0x200000
  4011fe:	611a      	str	r2, [r3, #16]
	} else if (dir == IOPORT_DIR_INPUT) {
		base->PIO_ODR = arch_ioport_pin_to_mask(pin);
	}

	base->PIO_OWER = arch_ioport_pin_to_mask(pin);
  401200:	f8c3 20a0 	str.w	r2, [r3, #160]	; 0xa0
	Pio *base = arch_ioport_pin_to_base(pin);

	if (level) {
		base->PIO_SODR = arch_ioport_pin_to_mask(pin);
	} else {
		base->PIO_CODR = arch_ioport_pin_to_mask(pin);
  401204:	635a      	str	r2, [r3, #52]	; 0x34
		base->PIO_ODR = arch_ioport_pin_to_mask(pin);
  401206:	f44f 1280 	mov.w	r2, #1048576	; 0x100000
  40120a:	615a      	str	r2, [r3, #20]
	base->PIO_OWER = arch_ioport_pin_to_mask(pin);
  40120c:	f8c3 20a0 	str.w	r2, [r3, #160]	; 0xa0
		base->PIO_CODR = arch_ioport_pin_to_mask(pin);
  401210:	635a      	str	r2, [r3, #52]	; 0x34
		base->PIO_OER = arch_ioport_pin_to_mask(pin);
  401212:	f44f 0280 	mov.w	r2, #4194304	; 0x400000
  401216:	611a      	str	r2, [r3, #16]
	base->PIO_OWER = arch_ioport_pin_to_mask(pin);
  401218:	f8c3 20a0 	str.w	r2, [r3, #160]	; 0xa0
		base->PIO_CODR = arch_ioport_pin_to_mask(pin);
  40121c:	635a      	str	r2, [r3, #52]	; 0x34
		base->PIO_OER = arch_ioport_pin_to_mask(pin);
  40121e:	f04f 7200 	mov.w	r2, #33554432	; 0x2000000
  401222:	611a      	str	r2, [r3, #16]
	base->PIO_OWER = arch_ioport_pin_to_mask(pin);
  401224:	f8c3 20a0 	str.w	r2, [r3, #160]	; 0xa0
		base->PIO_SODR = arch_ioport_pin_to_mask(pin);
  401228:	631a      	str	r2, [r3, #48]	; 0x30
  40122a:	bd08      	pop	{r3, pc}
  40122c:	00401f9d 	.word	0x00401f9d
  401230:	004010a5 	.word	0x004010a5
  401234:	00401081 	.word	0x00401081
  401238:	400e1400 	.word	0x400e1400

0040123c <Enable_Clock_Management1>:
#include "PYTHON480.h"


// Configure clock management blocks, activate clock generation and distribution circuits
void Enable_Clock_Management1() 
{
  40123c:	b510      	push	{r4, lr}
	SPI_Write(2, 0x0000);	// Monochrome sensor
  40123e:	2100      	movs	r1, #0
  401240:	2002      	movs	r0, #2
  401242:	4c0e      	ldr	r4, [pc, #56]	; (40127c <Enable_Clock_Management1+0x40>)
  401244:	47a0      	blx	r4
	SPI_Write(17, 0x2113);	// Configure PLL
  401246:	f242 1113 	movw	r1, #8467	; 0x2113
  40124a:	2011      	movs	r0, #17
  40124c:	47a0      	blx	r4
	SPI_Write(20, 0x0000);	// Configure clock management
  40124e:	2100      	movs	r1, #0
  401250:	2014      	movs	r0, #20
  401252:	47a0      	blx	r4
	SPI_Write(26, 0x2280);	// Configure PLL lock detector
  401254:	f44f 510a 	mov.w	r1, #8832	; 0x2280
  401258:	201a      	movs	r0, #26
  40125a:	47a0      	blx	r4
	SPI_Write(27, 0x3D2D);	// Configure PLL lock detector
  40125c:	f643 512d 	movw	r1, #15661	; 0x3d2d
  401260:	201b      	movs	r0, #27
  401262:	47a0      	blx	r4
	
	#ifdef DISABLE_PLL
		SPI_Write(32, 0x7014|0x0008);	// SPI_Write(32, 0x2004);PLL input clock
  401264:	f247 011c 	movw	r1, #28700	; 0x701c
  401268:	2020      	movs	r0, #32
  40126a:	47a0      	blx	r4
	#else
		SPI_Write(32, 0x7014);			// SPI_Write(32, 0x2004);PLL input clock
	#endif
	
	SPI_Write(8, 0x0000);	// Release PLL soft reset
  40126c:	2100      	movs	r1, #0
  40126e:	2008      	movs	r0, #8
  401270:	47a0      	blx	r4
	
	#ifdef DISABLE_PLL
		SPI_Write(16,0x0007);			// Disable PLL
  401272:	2107      	movs	r1, #7
  401274:	2010      	movs	r0, #16
  401276:	47a0      	blx	r4
  401278:	bd10      	pop	{r4, pc}
  40127a:	bf00      	nop
  40127c:	00401bf5 	.word	0x00401bf5

00401280 <Enable_Clock_Management2>:
	#endif
}

// Enable internal clock distribution
void Enable_Clock_Management2() 
{
  401280:	b510      	push	{r4, lr}
	SPI_Write(9, 0x0000);	// Release clock generator Soft Reset
  401282:	2100      	movs	r1, #0
  401284:	2009      	movs	r0, #9
  401286:	4c05      	ldr	r4, [pc, #20]	; (40129c <Enable_Clock_Management2+0x1c>)
  401288:	47a0      	blx	r4

	// Why is it 0x7006 instead of 0x2006??
	#ifdef DISABLE_PLL
		SPI_Write(32, 0x7006|0x0008);		// SPI_Write(32, 0x7006); Enable logic clock. Changed this to 7006 to try
  40128a:	f247 010e 	movw	r1, #28686	; 0x700e
  40128e:	2020      	movs	r0, #32
  401290:	47a0      	blx	r4
	#else
		SPI_Write(32, 0x7006);				// SPI_Write(32, 0x7006); Enable logic clock. Changed this to 7006 to try
	#endif

	SPI_Write(34, 0x0001);	// Enable logic blocks
  401292:	2101      	movs	r1, #1
  401294:	2022      	movs	r0, #34	; 0x22
  401296:	47a0      	blx	r4
  401298:	bd10      	pop	{r4, pc}
  40129a:	bf00      	nop
  40129c:	00401bf5 	.word	0x00401bf5

004012a0 <Required_Uploads>:
}

// Reserved register settings uploads
void Required_Uploads() 
{
  4012a0:	b510      	push	{r4, lr}
	SPI_Write(2, 0x0000);
  4012a2:	2100      	movs	r1, #0
  4012a4:	2002      	movs	r0, #2
  4012a6:	4ccd      	ldr	r4, [pc, #820]	; (4015dc <Required_Uploads+0x33c>)
  4012a8:	47a0      	blx	r4
	SPI_Write(8, 0x0000);
  4012aa:	2100      	movs	r1, #0
  4012ac:	2008      	movs	r0, #8
  4012ae:	47a0      	blx	r4
	SPI_Write(9, 0x0000);
  4012b0:	2100      	movs	r1, #0
  4012b2:	2009      	movs	r0, #9
  4012b4:	47a0      	blx	r4
	SPI_Write(10, 0x0000);
  4012b6:	2100      	movs	r1, #0
  4012b8:	200a      	movs	r0, #10
  4012ba:	47a0      	blx	r4
	SPI_Write(20, 0x0000);
  4012bc:	2100      	movs	r1, #0
  4012be:	2014      	movs	r0, #20
  4012c0:	47a0      	blx	r4
	// SPI_Write(24, 0x0001);
	SPI_Write(26, 0x2280);
  4012c2:	f44f 510a 	mov.w	r1, #8832	; 0x2280
  4012c6:	201a      	movs	r0, #26
  4012c8:	47a0      	blx	r4
	SPI_Write(27, 0x3D2D);
  4012ca:	f643 512d 	movw	r1, #15661	; 0x3d2d
  4012ce:	201b      	movs	r0, #27
  4012d0:	47a0      	blx	r4
	
	#ifdef DISABLE_PLL
		SPI_Write(32, 0x7007|0x0008);
  4012d2:	f247 010f 	movw	r1, #28687	; 0x700f
  4012d6:	2020      	movs	r0, #32
  4012d8:	47a0      	blx	r4
	#else
		SPI_Write(32, 0x7007);
	#endif
	
	SPI_Write(34, 0x0001);
  4012da:	2101      	movs	r1, #1
  4012dc:	2022      	movs	r0, #34	; 0x22
  4012de:	47a0      	blx	r4
	SPI_Write(40, 0x0007);		// 3rd bit enables bias. This was set to 0 (0x003).
  4012e0:	2107      	movs	r1, #7
  4012e2:	2028      	movs	r0, #40	; 0x28
  4012e4:	47a0      	blx	r4
	SPI_Write(41, 0x085F);
  4012e6:	f640 015f 	movw	r1, #2143	; 0x85f
  4012ea:	2029      	movs	r0, #41	; 0x29
  4012ec:	47a0      	blx	r4
	SPI_Write(42, 0x4103);
  4012ee:	f244 1103 	movw	r1, #16643	; 0x4103
  4012f2:	202a      	movs	r0, #42	; 0x2a
  4012f4:	47a0      	blx	r4
	SPI_Write(43, 0x0518);
  4012f6:	f44f 61a3 	mov.w	r1, #1304	; 0x518
  4012fa:	202b      	movs	r0, #43	; 0x2b
  4012fc:	47a0      	blx	r4
	SPI_Write(48, 0x0001);
  4012fe:	2101      	movs	r1, #1
  401300:	2030      	movs	r0, #48	; 0x30
  401302:	47a0      	blx	r4
	SPI_Write(64, 0x0001);
  401304:	2101      	movs	r1, #1
  401306:	2040      	movs	r0, #64	; 0x40
  401308:	47a0      	blx	r4
	SPI_Write(65, 0x382A);		// Bias block. SPI_Write(65, 0x382B)
  40130a:	f643 012a 	movw	r1, #14378	; 0x382a
  40130e:	2041      	movs	r0, #65	; 0x41
  401310:	47a0      	blx	r4
	SPI_Write(66, 0x53C8);
  401312:	f245 31c8 	movw	r1, #21448	; 0x53c8
  401316:	2042      	movs	r0, #66	; 0x42
  401318:	47a0      	blx	r4
	SPI_Write(67, 0x0665);
  40131a:	f240 6165 	movw	r1, #1637	; 0x665
  40131e:	2043      	movs	r0, #67	; 0x43
  401320:	47a0      	blx	r4
	SPI_Write(68, 0x0085);
  401322:	2185      	movs	r1, #133	; 0x85
  401324:	2044      	movs	r0, #68	; 0x44
  401326:	47a0      	blx	r4
	SPI_Write(69, 0x0888);
  401328:	f640 0188 	movw	r1, #2184	; 0x888
  40132c:	2045      	movs	r0, #69	; 0x45
  40132e:	47a0      	blx	r4
	SPI_Write(70, 0x4800);
  401330:	f44f 4190 	mov.w	r1, #18432	; 0x4800
  401334:	2046      	movs	r0, #70	; 0x46
  401336:	47a0      	blx	r4
	SPI_Write(71, 0x8888);
  401338:	f648 0188 	movw	r1, #34952	; 0x8888
  40133c:	2047      	movs	r0, #71	; 0x47
  40133e:	47a0      	blx	r4
	SPI_Write(72, 0x0117);
  401340:	f240 1117 	movw	r1, #279	; 0x117
  401344:	2048      	movs	r0, #72	; 0x48
  401346:	47a0      	blx	r4
	// SPI_Write(112, 0x0007);
	SPI_Write(112, 0x0000);		// LVDS power-down config
  401348:	2100      	movs	r1, #0
  40134a:	2070      	movs	r0, #112	; 0x70
  40134c:	47a0      	blx	r4
	SPI_Write(128, 0x470A);		//SPI_Write(128, 0x470A); SPI_Write(128, 0x4714); black offset
  40134e:	f244 710a 	movw	r1, #18186	; 0x470a
  401352:	2080      	movs	r0, #128	; 0x80
  401354:	47a0      	blx	r4
	SPI_Write(129, 0x8001);
  401356:	f248 0101 	movw	r1, #32769	; 0x8001
  40135a:	2081      	movs	r0, #129	; 0x81
  40135c:	47a0      	blx	r4
	// SPI_Write(130, 0x0001);	// Handles phase of pixel clock changed from 0x0001 to 0x0015

	// Test Pattern
	// SPI_Write(144,0x0003);

	SPI_Write(130, 0x0015);
  40135e:	2115      	movs	r1, #21
  401360:	2082      	movs	r0, #130	; 0x82
  401362:	47a0      	blx	r4
	SPI_Write(192, 0x0801);		// Monitor select function
  401364:	f640 0101 	movw	r1, #2049	; 0x801
  401368:	20c0      	movs	r0, #192	; 0xc0
  40136a:	47a0      	blx	r4
	SPI_Write(194, 0x03E4);		// reverse x and y enabled for demo kit compatibility
  40136c:	f44f 7179 	mov.w	r1, #996	; 0x3e4
  401370:	20c2      	movs	r0, #194	; 0xc2
  401372:	47a0      	blx	r4
	SPI_Write(197, 0x0380);		// Num black lines SPI_Write(197, 0x030A);
  401374:	f44f 7160 	mov.w	r1, #896	; 0x380
  401378:	20c5      	movs	r0, #197	; 0xc5
  40137a:	47a0      	blx	r4
	
	#ifdef DISABLE_PLL
		SPI_Write(199, 167);	// Exposure/Frame rate config, SPI_Write(199, 0x0299);
  40137c:	21a7      	movs	r1, #167	; 0xa7
  40137e:	20c7      	movs	r0, #199	; 0xc7
  401380:	47a0      	blx	r4
		SPI_Write(200, 5000);	// Frame length, SPI_Write(200, 0x0350);
  401382:	f241 3188 	movw	r1, #5000	; 0x1388
  401386:	20c8      	movs	r0, #200	; 0xc8
  401388:	47a0      	blx	r4
		SPI_Write(201, 4900);	// SPI_Write(201, 2900); // Exposure time SPI_Write(201, 0x01F4);
  40138a:	f241 3124 	movw	r1, #4900	; 0x1324
  40138e:	20c9      	movs	r0, #201	; 0xc9
  401390:	47a0      	blx	r4
		SPI_Write(199, 666);	// Exposure/Frame rate config, SPI_Write(199, 0x0299);
		SPI_Write(200, 3000);	// Frame length, SPI_Write(200, 0x0350);
		SPI_Write(201, 2900);	// SPI_Write(201, 2900); // Exposure time SPI_Write(201, 0x01F4);
	#endif
	
	SPI_Write(204, 0x0024); 	// (gain 1x : 0x00E1 // gain 2x : 0x00E4 // gain 3.5x : 0x0024)
  401392:	2124      	movs	r1, #36	; 0x24
  401394:	20cc      	movs	r0, #204	; 0xcc
  401396:	47a0      	blx	r4
	SPI_Write(207, 0x0014);
  401398:	2114      	movs	r1, #20
  40139a:	20cf      	movs	r0, #207	; 0xcf
  40139c:	47a0      	blx	r4
	SPI_Write(214, 0x0100);
  40139e:	f44f 7180 	mov.w	r1, #256	; 0x100
  4013a2:	20d6      	movs	r0, #214	; 0xd6
  4013a4:	47a0      	blx	r4
	SPI_Write(215, 0x101F);
  4013a6:	f241 011f 	movw	r1, #4127	; 0x101f
  4013aa:	20d7      	movs	r0, #215	; 0xd7
  4013ac:	47a0      	blx	r4
	SPI_Write(216, 0x0000);
  4013ae:	2100      	movs	r1, #0
  4013b0:	20d8      	movs	r0, #216	; 0xd8
  4013b2:	47a0      	blx	r4
	SPI_Write(219, 0x0023);
  4013b4:	2123      	movs	r1, #35	; 0x23
  4013b6:	20db      	movs	r0, #219	; 0xdb
  4013b8:	47a0      	blx	r4
	SPI_Write(220, 0x3C2B);
  4013ba:	f643 412b 	movw	r1, #15403	; 0x3c2b
  4013be:	20dc      	movs	r0, #220	; 0xdc
  4013c0:	47a0      	blx	r4
	SPI_Write(221, 0x2B4D);
  4013c2:	f642 314d 	movw	r1, #11085	; 0x2b4d
  4013c6:	20dd      	movs	r0, #221	; 0xdd
  4013c8:	47a0      	blx	r4
	SPI_Write(224, 0x3E5E);
  4013ca:	f643 615e 	movw	r1, #15966	; 0x3e5e
  4013ce:	20e0      	movs	r0, #224	; 0xe0
  4013d0:	47a0      	blx	r4
	SPI_Write(211, 0x0049);
  4013d2:	2149      	movs	r1, #73	; 0x49
  4013d4:	20d3      	movs	r0, #211	; 0xd3
  4013d6:	47a0      	blx	r4
	SPI_Write(216, 0x0000);
  4013d8:	2100      	movs	r1, #0
  4013da:	20d8      	movs	r0, #216	; 0xd8
  4013dc:	47a0      	blx	r4
	SPI_Write(219, 0x0023);
  4013de:	2123      	movs	r1, #35	; 0x23
  4013e0:	20db      	movs	r0, #219	; 0xdb
  4013e2:	47a0      	blx	r4
	SPI_Write(220, 0x3C2B);
  4013e4:	f643 412b 	movw	r1, #15403	; 0x3c2b
  4013e8:	20dc      	movs	r0, #220	; 0xdc
  4013ea:	47a0      	blx	r4
	SPI_Write(221, 0x2B4D);
  4013ec:	f642 314d 	movw	r1, #11085	; 0x2b4d
  4013f0:	20dd      	movs	r0, #221	; 0xdd
  4013f2:	47a0      	blx	r4
	SPI_Write(230, 0x0299);
  4013f4:	f240 2199 	movw	r1, #665	; 0x299
  4013f8:	20e6      	movs	r0, #230	; 0xe6
  4013fa:	47a0      	blx	r4
	SPI_Write(231, 0x0350);
  4013fc:	f44f 7154 	mov.w	r1, #848	; 0x350
  401400:	20e7      	movs	r0, #231	; 0xe7
  401402:	47a0      	blx	r4
	SPI_Write(232, 0x01F4);
  401404:	f44f 71fa 	mov.w	r1, #500	; 0x1f4
  401408:	20e8      	movs	r0, #232	; 0xe8
  40140a:	47a0      	blx	r4
	SPI_Write(235, 0x00E1);
  40140c:	21e1      	movs	r1, #225	; 0xe1
  40140e:	20eb      	movs	r0, #235	; 0xeb
  401410:	47a0      	blx	r4


	
	// PROGRAM SPACE //
	SPI_Write(384, 0xC800);
  401412:	f44f 4148 	mov.w	r1, #51200	; 0xc800
  401416:	f44f 70c0 	mov.w	r0, #384	; 0x180
  40141a:	47a0      	blx	r4
	SPI_Write(385, 0xFB1F);
  40141c:	f64f 311f 	movw	r1, #64287	; 0xfb1f
  401420:	f240 1081 	movw	r0, #385	; 0x181
  401424:	47a0      	blx	r4
	SPI_Write(386, 0xFB1F);
  401426:	f64f 311f 	movw	r1, #64287	; 0xfb1f
  40142a:	f44f 70c1 	mov.w	r0, #386	; 0x182
  40142e:	47a0      	blx	r4
	SPI_Write(387, 0xFB12);
  401430:	f64f 3112 	movw	r1, #64274	; 0xfb12
  401434:	f240 1083 	movw	r0, #387	; 0x183
  401438:	47a0      	blx	r4
	SPI_Write(388, 0xF912);
  40143a:	f64f 1112 	movw	r1, #63762	; 0xf912
  40143e:	f44f 70c2 	mov.w	r0, #388	; 0x184
  401442:	47a0      	blx	r4
	SPI_Write(389, 0xF903);
  401444:	f64f 1103 	movw	r1, #63747	; 0xf903
  401448:	f240 1085 	movw	r0, #389	; 0x185
  40144c:	47a0      	blx	r4
	SPI_Write(390, 0xF802);
  40144e:	f64f 0102 	movw	r1, #63490	; 0xf802
  401452:	f44f 70c3 	mov.w	r0, #390	; 0x186
  401456:	47a0      	blx	r4
	SPI_Write(391, 0xF30F);
  401458:	f24f 310f 	movw	r1, #62223	; 0xf30f
  40145c:	f240 1087 	movw	r0, #391	; 0x187
  401460:	47a0      	blx	r4
	SPI_Write(392, 0xF30F);
  401462:	f24f 310f 	movw	r1, #62223	; 0xf30f
  401466:	f44f 70c4 	mov.w	r0, #392	; 0x188
  40146a:	47a0      	blx	r4
	SPI_Write(393, 0xF30F);
  40146c:	f24f 310f 	movw	r1, #62223	; 0xf30f
  401470:	f240 1089 	movw	r0, #393	; 0x189
  401474:	47a0      	blx	r4
	SPI_Write(394, 0xF30A);
  401476:	f24f 310a 	movw	r1, #62218	; 0xf30a
  40147a:	f44f 70c5 	mov.w	r0, #394	; 0x18a
  40147e:	47a0      	blx	r4
	SPI_Write(395, 0xF101);
  401480:	f24f 1101 	movw	r1, #61697	; 0xf101
  401484:	f240 108b 	movw	r0, #395	; 0x18b
  401488:	47a0      	blx	r4
	SPI_Write(396, 0xF00A);
  40148a:	f24f 010a 	movw	r1, #61450	; 0xf00a
  40148e:	f44f 70c6 	mov.w	r0, #396	; 0x18c
  401492:	47a0      	blx	r4
	SPI_Write(397, 0xF24B);
  401494:	f24f 214b 	movw	r1, #62027	; 0xf24b
  401498:	f240 108d 	movw	r0, #397	; 0x18d
  40149c:	47a0      	blx	r4
	SPI_Write(398, 0xF201);
  40149e:	f24f 2101 	movw	r1, #61953	; 0xf201
  4014a2:	f44f 70c7 	mov.w	r0, #398	; 0x18e
  4014a6:	47a0      	blx	r4
	SPI_Write(399, 0xF226);
  4014a8:	f24f 2126 	movw	r1, #61990	; 0xf226
  4014ac:	f240 108f 	movw	r0, #399	; 0x18f
  4014b0:	47a0      	blx	r4
	SPI_Write(400, 0xF021);
  4014b2:	f24f 0121 	movw	r1, #61473	; 0xf021
  4014b6:	f44f 70c8 	mov.w	r0, #400	; 0x190
  4014ba:	47a0      	blx	r4
	SPI_Write(401, 0xF001);
  4014bc:	f24f 0101 	movw	r1, #61441	; 0xf001
  4014c0:	f240 1091 	movw	r0, #401	; 0x191
  4014c4:	47a0      	blx	r4
	SPI_Write(402, 0xF402);
  4014c6:	f24f 4102 	movw	r1, #62466	; 0xf402
  4014ca:	f44f 70c9 	mov.w	r0, #402	; 0x192
  4014ce:	47a0      	blx	r4
	SPI_Write(403, 0xF007);
  4014d0:	f24f 0107 	movw	r1, #61447	; 0xf007
  4014d4:	f240 1093 	movw	r0, #403	; 0x193
  4014d8:	47a0      	blx	r4
	SPI_Write(404, 0xF20F);
  4014da:	f24f 210f 	movw	r1, #61967	; 0xf20f
  4014de:	f44f 70ca 	mov.w	r0, #404	; 0x194
  4014e2:	47a0      	blx	r4
	SPI_Write(405, 0xF20F);
  4014e4:	f24f 210f 	movw	r1, #61967	; 0xf20f
  4014e8:	f240 1095 	movw	r0, #405	; 0x195
  4014ec:	47a0      	blx	r4
	SPI_Write(406, 0xF202);
  4014ee:	f24f 2102 	movw	r1, #61954	; 0xf202
  4014f2:	f44f 70cb 	mov.w	r0, #406	; 0x196
  4014f6:	47a0      	blx	r4
	SPI_Write(407, 0xF006);
  4014f8:	f24f 0106 	movw	r1, #61446	; 0xf006
  4014fc:	f240 1097 	movw	r0, #407	; 0x197
  401500:	47a0      	blx	r4
	SPI_Write(408, 0xEC08);
  401502:	f64e 4108 	movw	r1, #60424	; 0xec08
  401506:	f44f 70cc 	mov.w	r0, #408	; 0x198
  40150a:	47a0      	blx	r4
	SPI_Write(409, 0xC801);
  40150c:	f64c 0101 	movw	r1, #51201	; 0xc801
  401510:	f240 1099 	movw	r0, #409	; 0x199
  401514:	47a0      	blx	r4
	SPI_Write(410, 0xC800);
  401516:	f44f 4148 	mov.w	r1, #51200	; 0xc800
  40151a:	f44f 70cd 	mov.w	r0, #410	; 0x19a
  40151e:	47a0      	blx	r4

	SPI_Write(419, 0xC800);
  401520:	f44f 4148 	mov.w	r1, #51200	; 0xc800
  401524:	f240 10a3 	movw	r0, #419	; 0x1a3
  401528:	47a0      	blx	r4
	SPI_Write(420, 0xCC02);
  40152a:	f64c 4102 	movw	r1, #52226	; 0xcc02
  40152e:	f44f 70d2 	mov.w	r0, #420	; 0x1a4
  401532:	47a0      	blx	r4
	SPI_Write(421, 0xCC01);
  401534:	f64c 4101 	movw	r1, #52225	; 0xcc01
  401538:	f240 10a5 	movw	r0, #421	; 0x1a5
  40153c:	47a0      	blx	r4
	SPI_Write(422, 0xCC02);
  40153e:	f64c 4102 	movw	r1, #52226	; 0xcc02
  401542:	f44f 70d3 	mov.w	r0, #422	; 0x1a6
  401546:	47a0      	blx	r4
	SPI_Write(423, 0xCC01);
  401548:	f64c 4101 	movw	r1, #52225	; 0xcc01
  40154c:	f240 10a7 	movw	r0, #423	; 0x1a7
  401550:	47a0      	blx	r4
	SPI_Write(424, 0xCC02);
  401552:	f64c 4102 	movw	r1, #52226	; 0xcc02
  401556:	f44f 70d4 	mov.w	r0, #424	; 0x1a8
  40155a:	47a0      	blx	r4
	SPI_Write(425, 0xC805);
  40155c:	f64c 0105 	movw	r1, #51205	; 0xc805
  401560:	f240 10a9 	movw	r0, #425	; 0x1a9
  401564:	47a0      	blx	r4
	SPI_Write(426, 0xC800);
  401566:	f44f 4148 	mov.w	r1, #51200	; 0xc800
  40156a:	f44f 70d5 	mov.w	r0, #426	; 0x1aa
  40156e:	47a0      	blx	r4

	SPI_Write(427, 0x0030);
  401570:	2130      	movs	r1, #48	; 0x30
  401572:	f240 10ab 	movw	r0, #427	; 0x1ab
  401576:	47a0      	blx	r4
	SPI_Write(428, 0x207B);
  401578:	f242 017b 	movw	r1, #8315	; 0x207b
  40157c:	f44f 70d6 	mov.w	r0, #428	; 0x1ac
  401580:	47a0      	blx	r4
	SPI_Write(429, 0x2071);
  401582:	f242 0171 	movw	r1, #8305	; 0x2071
  401586:	f240 10ad 	movw	r0, #429	; 0x1ad
  40158a:	47a0      	blx	r4
	SPI_Write(430, 0x0071);
  40158c:	2171      	movs	r1, #113	; 0x71
  40158e:	f44f 70d7 	mov.w	r0, #430	; 0x1ae
  401592:	47a0      	blx	r4
	SPI_Write(431, 0x107F);
  401594:	f241 017f 	movw	r1, #4223	; 0x107f
  401598:	f240 10af 	movw	r0, #431	; 0x1af
  40159c:	47a0      	blx	r4
	SPI_Write(432, 0x1072);
  40159e:	f241 0172 	movw	r1, #4210	; 0x1072
  4015a2:	f44f 70d8 	mov.w	r0, #432	; 0x1b0
  4015a6:	47a0      	blx	r4
	SPI_Write(433, 0x1074);
  4015a8:	f241 0174 	movw	r1, #4212	; 0x1074
  4015ac:	f240 10b1 	movw	r0, #433	; 0x1b1
  4015b0:	47a0      	blx	r4
	SPI_Write(434, 0x0071);
  4015b2:	2171      	movs	r1, #113	; 0x71
  4015b4:	f44f 70d9 	mov.w	r0, #434	; 0x1b2
  4015b8:	47a0      	blx	r4
	SPI_Write(435, 0x0031);
  4015ba:	2131      	movs	r1, #49	; 0x31
  4015bc:	f240 10b3 	movw	r0, #435	; 0x1b3
  4015c0:	47a0      	blx	r4
	SPI_Write(436, 0x21BB);
  4015c2:	f242 11bb 	movw	r1, #8635	; 0x21bb
  4015c6:	f44f 70da 	mov.w	r0, #436	; 0x1b4
  4015ca:	47a0      	blx	r4
	SPI_Write(437, 0x20B1);
  4015cc:	f242 01b1 	movw	r1, #8369	; 0x20b1
  4015d0:	f240 10b5 	movw	r0, #437	; 0x1b5
  4015d4:	47a0      	blx	r4
	SPI_Write(438, 0x00B1);
  4015d6:	21b1      	movs	r1, #177	; 0xb1
  4015d8:	e002      	b.n	4015e0 <Required_Uploads+0x340>
  4015da:	bf00      	nop
  4015dc:	00401bf5 	.word	0x00401bf5
  4015e0:	f44f 70db 	mov.w	r0, #438	; 0x1b6
  4015e4:	47a0      	blx	r4
	SPI_Write(439, 0x10BF);
  4015e6:	f241 01bf 	movw	r1, #4287	; 0x10bf
  4015ea:	f240 10b7 	movw	r0, #439	; 0x1b7
  4015ee:	47a0      	blx	r4
	SPI_Write(440, 0x10B2);
  4015f0:	f241 01b2 	movw	r1, #4274	; 0x10b2
  4015f4:	f44f 70dc 	mov.w	r0, #440	; 0x1b8
  4015f8:	47a0      	blx	r4
	SPI_Write(441, 0x10B4);
  4015fa:	f241 01b4 	movw	r1, #4276	; 0x10b4
  4015fe:	f240 10b9 	movw	r0, #441	; 0x1b9
  401602:	47a0      	blx	r4
	SPI_Write(442, 0x00B1);
  401604:	21b1      	movs	r1, #177	; 0xb1
  401606:	f44f 70dd 	mov.w	r0, #442	; 0x1ba
  40160a:	47a0      	blx	r4
	SPI_Write(443, 0x0030);
  40160c:	2130      	movs	r1, #48	; 0x30
  40160e:	f240 10bb 	movw	r0, #443	; 0x1bb
  401612:	47a0      	blx	r4

	SPI_Write(444, 0x0030);
  401614:	2130      	movs	r1, #48	; 0x30
  401616:	f44f 70de 	mov.w	r0, #444	; 0x1bc
  40161a:	47a0      	blx	r4
	SPI_Write(445, 0x217B);
  40161c:	f242 117b 	movw	r1, #8571	; 0x217b
  401620:	f240 10bd 	movw	r0, #445	; 0x1bd
  401624:	47a0      	blx	r4
	SPI_Write(446, 0x2071);
  401626:	f242 0171 	movw	r1, #8305	; 0x2071
  40162a:	f44f 70df 	mov.w	r0, #446	; 0x1be
  40162e:	47a0      	blx	r4
	SPI_Write(447, 0x0071);
  401630:	2171      	movs	r1, #113	; 0x71
  401632:	f240 10bf 	movw	r0, #447	; 0x1bf
  401636:	47a0      	blx	r4
	SPI_Write(448, 0x107F);
  401638:	f241 017f 	movw	r1, #4223	; 0x107f
  40163c:	f44f 70e0 	mov.w	r0, #448	; 0x1c0
  401640:	47a0      	blx	r4
	SPI_Write(449, 0x1072);
  401642:	f241 0172 	movw	r1, #4210	; 0x1072
  401646:	f240 10c1 	movw	r0, #449	; 0x1c1
  40164a:	47a0      	blx	r4
	SPI_Write(450, 0x1074);
  40164c:	f241 0174 	movw	r1, #4212	; 0x1074
  401650:	f44f 70e1 	mov.w	r0, #450	; 0x1c2
  401654:	47a0      	blx	r4
	SPI_Write(451, 0x0071);
  401656:	2171      	movs	r1, #113	; 0x71
  401658:	f240 10c3 	movw	r0, #451	; 0x1c3
  40165c:	47a0      	blx	r4
	SPI_Write(452, 0x0031);
  40165e:	2131      	movs	r1, #49	; 0x31
  401660:	f44f 70e2 	mov.w	r0, #452	; 0x1c4
  401664:	47a0      	blx	r4
	SPI_Write(453, 0x21BB);
  401666:	f242 11bb 	movw	r1, #8635	; 0x21bb
  40166a:	f240 10c5 	movw	r0, #453	; 0x1c5
  40166e:	47a0      	blx	r4
	SPI_Write(454, 0x20B1);
  401670:	f242 01b1 	movw	r1, #8369	; 0x20b1
  401674:	f44f 70e3 	mov.w	r0, #454	; 0x1c6
  401678:	47a0      	blx	r4
	SPI_Write(455, 0x00B1);
  40167a:	21b1      	movs	r1, #177	; 0xb1
  40167c:	f240 10c7 	movw	r0, #455	; 0x1c7
  401680:	47a0      	blx	r4
	SPI_Write(456, 0x10BF);
  401682:	f241 01bf 	movw	r1, #4287	; 0x10bf
  401686:	f44f 70e4 	mov.w	r0, #456	; 0x1c8
  40168a:	47a0      	blx	r4
	SPI_Write(457, 0x10B2);
  40168c:	f241 01b2 	movw	r1, #4274	; 0x10b2
  401690:	f240 10c9 	movw	r0, #457	; 0x1c9
  401694:	47a0      	blx	r4
	SPI_Write(458, 0x10B4);
  401696:	f241 01b4 	movw	r1, #4276	; 0x10b4
  40169a:	f44f 70e5 	mov.w	r0, #458	; 0x1ca
  40169e:	47a0      	blx	r4
	SPI_Write(459, 0x00B1);
  4016a0:	21b1      	movs	r1, #177	; 0xb1
  4016a2:	f240 10cb 	movw	r0, #459	; 0x1cb
  4016a6:	47a0      	blx	r4
	SPI_Write(460, 0x0030);
  4016a8:	2130      	movs	r1, #48	; 0x30
  4016aa:	f44f 70e6 	mov.w	r0, #460	; 0x1cc
  4016ae:	47a0      	blx	r4

	SPI_Write(461, 0x0030);
  4016b0:	2130      	movs	r1, #48	; 0x30
  4016b2:	f240 10cd 	movw	r0, #461	; 0x1cd
  4016b6:	47a0      	blx	r4
	SPI_Write(462, 0x217B);
  4016b8:	f242 117b 	movw	r1, #8571	; 0x217b
  4016bc:	f44f 70e7 	mov.w	r0, #462	; 0x1ce
  4016c0:	47a0      	blx	r4
	SPI_Write(463, 0x2071);
  4016c2:	f242 0171 	movw	r1, #8305	; 0x2071
  4016c6:	f240 10cf 	movw	r0, #463	; 0x1cf
  4016ca:	47a0      	blx	r4
	SPI_Write(464, 0x0071);
  4016cc:	2171      	movs	r1, #113	; 0x71
  4016ce:	f44f 70e8 	mov.w	r0, #464	; 0x1d0
  4016d2:	47a0      	blx	r4
	SPI_Write(465, 0x1071);
  4016d4:	f241 0171 	movw	r1, #4209	; 0x1071
  4016d8:	f240 10d1 	movw	r0, #465	; 0x1d1
  4016dc:	47a0      	blx	r4
	SPI_Write(466, 0x0071);
  4016de:	2171      	movs	r1, #113	; 0x71
  4016e0:	f44f 70e9 	mov.w	r0, #466	; 0x1d2
  4016e4:	47a0      	blx	r4
	SPI_Write(467, 0x0031);
  4016e6:	2131      	movs	r1, #49	; 0x31
  4016e8:	f240 10d3 	movw	r0, #467	; 0x1d3
  4016ec:	47a0      	blx	r4
	SPI_Write(468, 0x21BB);
  4016ee:	f242 11bb 	movw	r1, #8635	; 0x21bb
  4016f2:	f44f 70ea 	mov.w	r0, #468	; 0x1d4
  4016f6:	47a0      	blx	r4
	SPI_Write(469, 0x20B1);
  4016f8:	f242 01b1 	movw	r1, #8369	; 0x20b1
  4016fc:	f240 10d5 	movw	r0, #469	; 0x1d5
  401700:	47a0      	blx	r4
	SPI_Write(470, 0x00B1);
  401702:	21b1      	movs	r1, #177	; 0xb1
  401704:	f44f 70eb 	mov.w	r0, #470	; 0x1d6
  401708:	47a0      	blx	r4
	SPI_Write(471, 0x10B3);
  40170a:	f241 01b3 	movw	r1, #4275	; 0x10b3
  40170e:	f240 10d7 	movw	r0, #471	; 0x1d7
  401712:	47a0      	blx	r4
	SPI_Write(472, 0x10B1);
  401714:	f241 01b1 	movw	r1, #4273	; 0x10b1
  401718:	f44f 70ec 	mov.w	r0, #472	; 0x1d8
  40171c:	47a0      	blx	r4
	SPI_Write(473, 0x00B1);
  40171e:	21b1      	movs	r1, #177	; 0xb1
  401720:	f240 10d9 	movw	r0, #473	; 0x1d9
  401724:	47a0      	blx	r4
	SPI_Write(474, 0x003F);
  401726:	213f      	movs	r1, #63	; 0x3f
  401728:	f44f 70ed 	mov.w	r0, #474	; 0x1da
  40172c:	47a0      	blx	r4
	SPI_Write(475, 0x0032);
  40172e:	2132      	movs	r1, #50	; 0x32
  401730:	f240 10db 	movw	r0, #475	; 0x1db
  401734:	47a0      	blx	r4
	SPI_Write(476, 0x0030);
  401736:	2130      	movs	r1, #48	; 0x30
  401738:	f44f 70ee 	mov.w	r0, #476	; 0x1dc
  40173c:	47a0      	blx	r4
  40173e:	bd10      	pop	{r4, pc}

00401740 <Soft_PowerUp>:
}

// Internal blocks are enabled and prepared to start processing the image data stream
void Soft_PowerUp() 
{
  401740:	b510      	push	{r4, lr}
	SPI_Write(10, 0x0000);		// Release soft reset state
  401742:	2100      	movs	r1, #0
  401744:	200a      	movs	r0, #10
  401746:	4c0d      	ldr	r4, [pc, #52]	; (40177c <Soft_PowerUp+0x3c>)
  401748:	47a0      	blx	r4
	
	#ifdef DISABLE_PLL
		SPI_Write(32, 0x7007|0x0008);	// Enable analog clock
  40174a:	f247 010f 	movw	r1, #28687	; 0x700f
  40174e:	2020      	movs	r0, #32
  401750:	47a0      	blx	r4
	#else
		SPI_Write(32, 0x7007);			// Enable analog clock
	#endif
	
	SPI_Write(40, 0x0007);		// Enable column multiplexer // 3rd bit endables bias. This was set to 0 (0x003).
  401752:	2107      	movs	r1, #7
  401754:	2028      	movs	r0, #40	; 0x28
  401756:	47a0      	blx	r4
	SPI_Write(42, 0x4113);		// SPI_Write(42, 0x4103); Configure image core
  401758:	f244 1113 	movw	r1, #16659	; 0x4113
  40175c:	202a      	movs	r0, #42	; 0x2a
  40175e:	47a0      	blx	r4
	SPI_Write(48, 0x0001);		// Enable AFE
  401760:	2101      	movs	r1, #1
  401762:	2030      	movs	r0, #48	; 0x30
  401764:	47a0      	blx	r4
	SPI_Write(64, 0x0001);		// Enable biasing block
  401766:	2101      	movs	r1, #1
  401768:	2040      	movs	r0, #64	; 0x40
  40176a:	47a0      	blx	r4
	SPI_Write(72, 0x0127);		// SPI_Write(72, 0x0117); Enable charge pump.
  40176c:	f240 1127 	movw	r1, #295	; 0x127
  401770:	2048      	movs	r0, #72	; 0x48
  401772:	47a0      	blx	r4
	//SPI_Write(112, 0x0007);	// Enable LVDS transmitters
	SPI_Write(112, 0x0000);		// Enable LVDS transmitters
  401774:	2100      	movs	r1, #0
  401776:	2070      	movs	r0, #112	; 0x70
  401778:	47a0      	blx	r4
  40177a:	bd10      	pop	{r4, pc}
  40177c:	00401bf5 	.word	0x00401bf5

00401780 <Enable_Subsample>:
}

// Enable subsampling by taking every other pixel
void Enable_Subsample()
{
  401780:	b508      	push	{r3, lr}
	SPI_Write(192, 0x0002 | 0x0080);
  401782:	2182      	movs	r1, #130	; 0x82
  401784:	20c0      	movs	r0, #192	; 0xc0
  401786:	4b01      	ldr	r3, [pc, #4]	; (40178c <Enable_Subsample+0xc>)
  401788:	4798      	blx	r3
  40178a:	bd08      	pop	{r3, pc}
  40178c:	00401bf5 	.word	0x00401bf5

00401790 <XDMAC_Handler>:

void XDMAC_Handler(void)
{
	uint32_t dma_status;

	dma_status = XDMAC->XDMAC_CHID[IMAGING_SENSOR_XDMAC_CH].XDMAC_CIS;
  401790:	4b04      	ldr	r3, [pc, #16]	; (4017a4 <XDMAC_Handler+0x14>)
  401792:	f8d3 309c 	ldr.w	r3, [r3, #156]	; 0x9c

	if (dma_status & XDMAC_CIS_BIS)
  401796:	f013 0f01 	tst.w	r3, #1
  40179a:	d002      	beq.n	4017a2 <XDMAC_Handler+0x12>
	{
		xferDMAComplete = 1;
  40179c:	2201      	movs	r2, #1
  40179e:	4b02      	ldr	r3, [pc, #8]	; (4017a8 <XDMAC_Handler+0x18>)
  4017a0:	601a      	str	r2, [r3, #0]
  4017a2:	4770      	bx	lr
  4017a4:	40078000 	.word	0x40078000
  4017a8:	20400530 	.word	0x20400530

004017ac <Enable_Source_Clock>:
		base->PIO_PUDR = mask;
  4017ac:	4b0e      	ldr	r3, [pc, #56]	; (4017e8 <Enable_Source_Clock+0x3c>)
  4017ae:	f44f 3200 	mov.w	r2, #131072	; 0x20000
  4017b2:	661a      	str	r2, [r3, #96]	; 0x60
		base->PIO_PPDDR = mask;
  4017b4:	f8c3 2090 	str.w	r2, [r3, #144]	; 0x90
		base->PIO_MDDR = mask;
  4017b8:	655a      	str	r2, [r3, #84]	; 0x54
		base->PIO_IFDR = mask;
  4017ba:	625a      	str	r2, [r3, #36]	; 0x24
		base->PIO_IFSCDR = mask;
  4017bc:	f8c3 2080 	str.w	r2, [r3, #128]	; 0x80
		base->PIO_ABCDSR[0] |= mask;
  4017c0:	6f19      	ldr	r1, [r3, #112]	; 0x70
  4017c2:	4311      	orrs	r1, r2
  4017c4:	6719      	str	r1, [r3, #112]	; 0x70
		base->PIO_ABCDSR[1] &= ~mask;
  4017c6:	6f59      	ldr	r1, [r3, #116]	; 0x74
  4017c8:	f421 3100 	bic.w	r1, r1, #131072	; 0x20000
  4017cc:	6759      	str	r1, [r3, #116]	; 0x74
	arch_ioport_port_to_base(port)->PIO_PDR = mask;
  4017ce:	605a      	str	r2, [r3, #4]
	// CSS: Clock Source Selection
	// Sets PIO clock
	ioport_set_pin_mode(SCK1_PIN,IOPORT_MODE_MUX_B);
	ioport_disable_pin(SCK1_PIN);	// Not sure if this is necessary

	PMC->PMC_SCER = (PMC_SCER_PCK1);
  4017d0:	4a06      	ldr	r2, [pc, #24]	; (4017ec <Enable_Source_Clock+0x40>)
  4017d2:	f44f 7300 	mov.w	r3, #512	; 0x200
  4017d6:	6013      	str	r3, [r2, #0]
	#ifdef EV76C454_SUBSAMP		// Trying to run MCU slower
		PMC->PMC_PCK[1] = (PMC->PMC_PCK[1] & ~(uint32_t)PMC_PCK_CSS_Msk) | (PMC_PCK_CSS_PLLA_CLK) | PMC_PCK_PRES(2); // Should make output = 300 MHz / 2^2 = 48 MHz. Sensor divides by 4
	#endif
	
	#ifdef NOIP1SN0480A			// Trying to run MCU slower
		PMC->PMC_PCK[1] = (PMC->PMC_PCK[1] & ~(uint32_t)PMC_PCK_CSS_Msk) | (PMC_PCK_CSS_PLLA_CLK) | PMC_PCK_PRES(5); // Should make output = 300 MHz / 2^5 = 24 MHz. Sensor divides by 2^5 = 32
  4017d8:	6c53      	ldr	r3, [r2, #68]	; 0x44
  4017da:	f023 0357 	bic.w	r3, r3, #87	; 0x57
  4017de:	f043 0352 	orr.w	r3, r3, #82	; 0x52
  4017e2:	6453      	str	r3, [r2, #68]	; 0x44
  4017e4:	4770      	bx	lr
  4017e6:	bf00      	nop
  4017e8:	400e0e00 	.word	0x400e0e00
  4017ec:	400e0600 	.word	0x400e0600

004017f0 <imagingSensorLoadHeader>:



// ========== Load In Custom Settings ========== //
void imagingSensorLoadHeader()
{
  4017f0:	b500      	push	{lr}
  4017f2:	f5ad 7d01 	sub.w	sp, sp, #516	; 0x204
	uint8_t headerTemp[SDMMC_BLOCK_SIZE] = {0};
  4017f6:	f44f 7200 	mov.w	r2, #512	; 0x200
  4017fa:	2100      	movs	r1, #0
  4017fc:	4668      	mov	r0, sp
  4017fe:	4b0e      	ldr	r3, [pc, #56]	; (401838 <imagingSensorLoadHeader+0x48>)
  401800:	4798      	blx	r3
	uint32_t* header = (uint32_t*) headerTemp;

	uint32_t writeKey[4] = {0};
	sd_mmc_init_read_blocks(SD_SLOT_NB, HEADER_SECTOR, 1);
  401802:	2201      	movs	r2, #1
  401804:	f240 31ff 	movw	r1, #1023	; 0x3ff
  401808:	2000      	movs	r0, #0
  40180a:	4b0c      	ldr	r3, [pc, #48]	; (40183c <imagingSensorLoadHeader+0x4c>)
  40180c:	4798      	blx	r3
	sd_mmc_start_read_blocks(headerTemp, 1);
  40180e:	2101      	movs	r1, #1
  401810:	4668      	mov	r0, sp
  401812:	4b0b      	ldr	r3, [pc, #44]	; (401840 <imagingSensorLoadHeader+0x50>)
  401814:	4798      	blx	r3
	sd_mmc_wait_end_of_read_blocks(false);
  401816:	2000      	movs	r0, #0
  401818:	4b0a      	ldr	r3, [pc, #40]	; (401844 <imagingSensorLoadHeader+0x54>)
  40181a:	4798      	blx	r3

	gain				= header[HEADER_GAIN_POS];
  40181c:	9a04      	ldr	r2, [sp, #16]
  40181e:	4b0a      	ldr	r3, [pc, #40]	; (401848 <imagingSensorLoadHeader+0x58>)
  401820:	601a      	str	r2, [r3, #0]
	// ledValue			= ((100 - header[HEADER_LED_POS]) * 0x0FFF) / 100;		// Header should be between 0 and 100; Used for DAC
	ledValue			= header[HEADER_LED_POS];								// Header should be between 0 and 255;
  401822:	9a05      	ldr	r2, [sp, #20]
  401824:	4b09      	ldr	r3, [pc, #36]	; (40184c <imagingSensorLoadHeader+0x5c>)
  401826:	601a      	str	r2, [r3, #0]
	numFramesToRecord	= header[HEADER_NUM_FRAMES_POS];
  401828:	9a06      	ldr	r2, [sp, #24]
  40182a:	4b09      	ldr	r3, [pc, #36]	; (401850 <imagingSensorLoadHeader+0x60>)
  40182c:	601a      	str	r2, [r3, #0]
}
  40182e:	f50d 7d01 	add.w	sp, sp, #516	; 0x204
  401832:	f85d fb04 	ldr.w	pc, [sp], #4
  401836:	bf00      	nop
  401838:	004027d9 	.word	0x004027d9
  40183c:	00400941 	.word	0x00400941
  401840:	00400a15 	.word	0x00400a15
  401844:	00400a3d 	.word	0x00400a3d
  401848:	2040000c 	.word	0x2040000c
  40184c:	20400510 	.word	0x20400510
  401850:	20400518 	.word	0x20400518

00401854 <imagingSensorParamInit>:
}


void imagingSensorParamInit() 
{
	PIOA->PIO_PCMR |= PIO_PCMR_DSIZE(D_SIZE);		// PIOA is a pointer to a struct. It has a member called PIO_PCMR. This member PIO_PCMR equals (PIO_PCMR or PIO_PCMR_DSIZE(D_SIZE)).
  401854:	4a03      	ldr	r2, [pc, #12]	; (401864 <imagingSensorParamInit+0x10>)
  401856:	f8d2 3154 	ldr.w	r3, [r2, #340]	; 0x154
  40185a:	f043 0320 	orr.w	r3, r3, #32
  40185e:	f8c2 3154 	str.w	r3, [r2, #340]	; 0x154
  401862:	4770      	bx	lr
  401864:	400e0e00 	.word	0x400e0e00

00401868 <imagingSensorDMAInit>:
		PIOA->PIO_PCMR |= PIO_PCMR_FRSTS;
	}
}

void imagingSensorDMAInit() 
{
  401868:	b508      	push	{r3, lr}
	// Single Block With Single Micro-block Transfer
	uint32_t channelStatus = 0;
	
	// Initialize and enable DMA controller
	pmc_enable_periph_clk(ID_XDMAC);
  40186a:	203a      	movs	r0, #58	; 0x3a
  40186c:	4b05      	ldr	r3, [pc, #20]	; (401884 <imagingSensorDMAInit+0x1c>)
  40186e:	4798      	blx	r3

    \param [in]      IRQn  External interrupt number. Value cannot be negative.
 */
__STATIC_INLINE void NVIC_ClearPendingIRQ(IRQn_Type IRQn)
{
  NVIC->ICPR[((uint32_t)(IRQn) >> 5)] = (1 << ((uint32_t)(IRQn) & 0x1F)); /* Clear pending interrupt */
  401870:	4b05      	ldr	r3, [pc, #20]	; (401888 <imagingSensorDMAInit+0x20>)
  401872:	f04f 6280 	mov.w	r2, #67108864	; 0x4000000
  401876:	f8c3 2184 	str.w	r2, [r3, #388]	; 0x184
__STATIC_INLINE void NVIC_SetPriority(IRQn_Type IRQn, uint32_t priority)
{
  if(IRQn < 0) {
    SCB->SHPR[((uint32_t)(IRQn) & 0xF)-4] = ((priority << (8 - __NVIC_PRIO_BITS)) & 0xff); } /* set Priority for Cortex-M  System Interrupts */
  else {
    NVIC->IP[(uint32_t)(IRQn)]            = ((priority << (8 - __NVIC_PRIO_BITS)) & 0xff); } /* set Priority for device specific Interrupts  */
  40187a:	2120      	movs	r1, #32
  40187c:	f883 133a 	strb.w	r1, [r3, #826]	; 0x33a
  NVIC->ISER[(uint32_t)((int32_t)IRQn) >> 5] = (uint32_t)(1 << ((uint32_t)((int32_t)IRQn) & (uint32_t)0x1F)); /* enable interrupt */
  401880:	605a      	str	r2, [r3, #4]
  401882:	bd08      	pop	{r3, pc}
  401884:	00401f9d 	.word	0x00401f9d
  401888:	e000e100 	.word	0xe000e100

0040188c <imagingSensorItInit>:
{
	//PIOA->PIO_PCIER = PIO_PCISR_DRDY;												// Enable Data Ready Interrupt
	//PIOA->PIO_PCIDR |= (PIO_PCIDR_RXBUFF)|(PIO_PCIDR_ENDRX)|(PIO_PCIDR_OVRE);		// Makes sure other interrupts are disabled

	//PIOA->PIO_PCIER = (PIO_PCIDR_OVRE);														// Enable Overrun Error Interrupt
	PIOA->PIO_PCIDR |= (PIO_PCIDR_DRDY)|(PIO_PCIDR_OVRE)|(PIO_PCIDR_ENDRX)|(PIO_PCIDR_RXBUFF);	// Makes sure other interrupts are disabled
  40188c:	4a03      	ldr	r2, [pc, #12]	; (40189c <imagingSensorItInit+0x10>)
  40188e:	f8d2 315c 	ldr.w	r3, [r2, #348]	; 0x15c
  401892:	f043 030f 	orr.w	r3, r3, #15
  401896:	f8c2 315c 	str.w	r3, [r2, #348]	; 0x15c
  40189a:	4770      	bx	lr
  40189c:	400e0e00 	.word	0x400e0e00

004018a0 <imageSensorVSyncItInit>:
}

void imageSensorVSyncItInit() 
{
	PIOA->PIO_PER		|= VSYNC_MASK; // PIO Enable. Takes control away from peripheral (is this OK?)
  4018a0:	4b12      	ldr	r3, [pc, #72]	; (4018ec <imageSensorVSyncItInit+0x4c>)
  4018a2:	681a      	ldr	r2, [r3, #0]
  4018a4:	f442 4280 	orr.w	r2, r2, #16384	; 0x4000
  4018a8:	601a      	str	r2, [r3, #0]
	PIOA->PIO_ODR		|= VSYNC_MASK; // Disables output on this pin.
  4018aa:	695a      	ldr	r2, [r3, #20]
  4018ac:	f442 4280 	orr.w	r2, r2, #16384	; 0x4000
  4018b0:	615a      	str	r2, [r3, #20]
	PIOA->PIO_PPDER		|= VSYNC_MASK; // Enables pull-down resistor
  4018b2:	f8d3 2094 	ldr.w	r2, [r3, #148]	; 0x94
  4018b6:	f442 4280 	orr.w	r2, r2, #16384	; 0x4000
  4018ba:	f8c3 2094 	str.w	r2, [r3, #148]	; 0x94
	
	PIOA->PIO_IER		|= VSYNC_MASK; // Enables the input change interrupt
  4018be:	6c1a      	ldr	r2, [r3, #64]	; 0x40
  4018c0:	f442 4280 	orr.w	r2, r2, #16384	; 0x4000
  4018c4:	641a      	str	r2, [r3, #64]	; 0x40
	PIOA->PIO_AIMER		|= VSYNC_MASK; // Enables additional Interrupt modes
  4018c6:	f8d3 20b0 	ldr.w	r2, [r3, #176]	; 0xb0
  4018ca:	f442 4280 	orr.w	r2, r2, #16384	; 0x4000
  4018ce:	f8c3 20b0 	str.w	r2, [r3, #176]	; 0xb0
	PIOA->PIO_ESR		|= VSYNC_MASK; // Enables edge detect. (Edge detect is on by default)
  4018d2:	f8d3 20c0 	ldr.w	r2, [r3, #192]	; 0xc0
  4018d6:	f442 4280 	orr.w	r2, r2, #16384	; 0x4000
  4018da:	f8c3 20c0 	str.w	r2, [r3, #192]	; 0xc0
	PIOA->PIO_FELLSR	|= VSYNC_MASK; // Edge detect is for falling edge (Falling edge is on by default)
  4018de:	f8d3 20d0 	ldr.w	r2, [r3, #208]	; 0xd0
  4018e2:	f442 4280 	orr.w	r2, r2, #16384	; 0x4000
  4018e6:	f8c3 20d0 	str.w	r2, [r3, #208]	; 0xd0
  4018ea:	4770      	bx	lr
  4018ec:	400e0e00 	.word	0x400e0e00

004018f0 <imageSensorHSyncItInit>:
}

void imageSensorHSyncItInit() 
{
	PIOA->PIO_PER		|= HSYNC_MASK; // PIO Enable. Takes control away from peripheral (is this OK?)
  4018f0:	4b12      	ldr	r3, [pc, #72]	; (40193c <imageSensorHSyncItInit+0x4c>)
  4018f2:	681a      	ldr	r2, [r3, #0]
  4018f4:	f442 1200 	orr.w	r2, r2, #2097152	; 0x200000
  4018f8:	601a      	str	r2, [r3, #0]
	PIOA->PIO_ODR		|= HSYNC_MASK; // Disables output on this pin.
  4018fa:	695a      	ldr	r2, [r3, #20]
  4018fc:	f442 1200 	orr.w	r2, r2, #2097152	; 0x200000
  401900:	615a      	str	r2, [r3, #20]
	PIOA->PIO_PPDER		|= HSYNC_MASK; // Enables pull-down resistor
  401902:	f8d3 2094 	ldr.w	r2, [r3, #148]	; 0x94
  401906:	f442 1200 	orr.w	r2, r2, #2097152	; 0x200000
  40190a:	f8c3 2094 	str.w	r2, [r3, #148]	; 0x94

	PIOA->PIO_IER		|= HSYNC_MASK; // Enables the input change interrupt
  40190e:	6c1a      	ldr	r2, [r3, #64]	; 0x40
  401910:	f442 1200 	orr.w	r2, r2, #2097152	; 0x200000
  401914:	641a      	str	r2, [r3, #64]	; 0x40
	PIOA->PIO_AIMER		|= HSYNC_MASK; // Enables additional Interrupt modes
  401916:	f8d3 20b0 	ldr.w	r2, [r3, #176]	; 0xb0
  40191a:	f442 1200 	orr.w	r2, r2, #2097152	; 0x200000
  40191e:	f8c3 20b0 	str.w	r2, [r3, #176]	; 0xb0
	PIOA->PIO_ESR		|= HSYNC_MASK; // Enables edge detect. (Edge detect is on by default)
  401922:	f8d3 20c0 	ldr.w	r2, [r3, #192]	; 0xc0
  401926:	f442 1200 	orr.w	r2, r2, #2097152	; 0x200000
  40192a:	f8c3 20c0 	str.w	r2, [r3, #192]	; 0xc0
	PIOA->PIO_FELLSR	|= HSYNC_MASK; // Edge detect is for falling edge (Falling edge is on by default)	
  40192e:	f8d3 20d0 	ldr.w	r2, [r3, #208]	; 0xd0
  401932:	f442 1200 	orr.w	r2, r2, #2097152	; 0x200000
  401936:	f8c3 20d0 	str.w	r2, [r3, #208]	; 0xd0
  40193a:	4770      	bx	lr
  40193c:	400e0e00 	.word	0x400e0e00

00401940 <imagingSensorStartDMA>:
void imagingSensorStartDMA()
{
	
	uint32_t channelStatus = 0;

	XDMAC->XDMAC_GD =(XDMAC_GD_DI0 << IMAGING_SENSOR_XDMAC_CH);		// Disables DMA channel
  401940:	4b23      	ldr	r3, [pc, #140]	; (4019d0 <imagingSensorStartDMA+0x90>)
  401942:	2202      	movs	r2, #2
  401944:	621a      	str	r2, [r3, #32]

	channelStatus = XDMAC->XDMAC_GS;								// Global status of XDMAC channels. Should make sure IMAGING_SENSOR_XDMAC_CH is available
  401946:	6a5a      	ldr	r2, [r3, #36]	; 0x24
	XDMAC->XDMAC_CHID[IMAGING_SENSOR_XDMAC_CH].XDMAC_CIS;			// Clears interrupt status bit
  401948:	f8d3 209c 	ldr.w	r2, [r3, #156]	; 0x9c
	XDMAC->XDMAC_CHID[IMAGING_SENSOR_XDMAC_CH].XDMAC_CSA = (uint32_t)&(PIOA->PIO_PCRHR);	// Source address
  40194c:	4a21      	ldr	r2, [pc, #132]	; (4019d4 <imagingSensorStartDMA+0x94>)
  40194e:	f8c3 20a0 	str.w	r2, [r3, #160]	; 0xa0
	#ifdef NOIP1SN0480A
		switch(frameNumber % 3)
  401952:	4b21      	ldr	r3, [pc, #132]	; (4019d8 <imagingSensorStartDMA+0x98>)
  401954:	681a      	ldr	r2, [r3, #0]
  401956:	4b21      	ldr	r3, [pc, #132]	; (4019dc <imagingSensorStartDMA+0x9c>)
  401958:	fba3 1302 	umull	r1, r3, r3, r2
  40195c:	085b      	lsrs	r3, r3, #1
  40195e:	eb03 0343 	add.w	r3, r3, r3, lsl #1
  401962:	1ad3      	subs	r3, r2, r3
  401964:	2b01      	cmp	r3, #1
  401966:	d029      	beq.n	4019bc <imagingSensorStartDMA+0x7c>
  401968:	b31b      	cbz	r3, 4019b2 <imagingSensorStartDMA+0x72>
  40196a:	2b02      	cmp	r3, #2
  40196c:	d02b      	beq.n	4019c6 <imagingSensorStartDMA+0x86>
			XDMAC->XDMAC_CHID[IMAGING_SENSOR_XDMAC_CH].XDMAC_CDA = (uint32_t)imageBuffer2;
			break;
		}
	#endif

	XDMAC->XDMAC_CHID[IMAGING_SENSOR_XDMAC_CH].XDMAC_CUBC = XDMAC_CUBC_UBLEN(NUM_PIXEL_WORDS);
  40196e:	4b18      	ldr	r3, [pc, #96]	; (4019d0 <imagingSensorStartDMA+0x90>)
  401970:	f247 5230 	movw	r2, #30000	; 0x7530
  401974:	f8c3 20b0 	str.w	r2, [r3, #176]	; 0xb0
	XDMAC->XDMAC_CHID[IMAGING_SENSOR_XDMAC_CH].XDMAC_CC = XDMAC_CC_TYPE_PER_TRAN |
  401978:	4a19      	ldr	r2, [pc, #100]	; (4019e0 <imagingSensorStartDMA+0xa0>)
  40197a:	f8c3 20b8 	str.w	r2, [r3, #184]	; 0xb8
	XDMAC_CC_SAM_FIXED_AM |						// Fixed source memory
	XDMAC_CC_DAM_INCREMENTED_AM |				// Increment destination memory
	XDMAC_CC_PERID(XDAMC_CHANNEL_HWID_PIOA);	// Peripheral ID for Parallel Capture

	// Clearing the following registers indicates that the linked list is disabled and that there is only 1 block
	XDMAC->XDMAC_CHID[IMAGING_SENSOR_XDMAC_CH].XDMAC_CNDC		= 0;
  40197e:	2200      	movs	r2, #0
  401980:	f8c3 20ac 	str.w	r2, [r3, #172]	; 0xac
	XDMAC->XDMAC_CHID[IMAGING_SENSOR_XDMAC_CH].XDMAC_CBC		= 0;
  401984:	f8c3 20b4 	str.w	r2, [r3, #180]	; 0xb4
	XDMAC->XDMAC_CHID[IMAGING_SENSOR_XDMAC_CH].XDMAC_CDS_MSP	= 0;
  401988:	f8c3 20bc 	str.w	r2, [r3, #188]	; 0xbc
	XDMAC->XDMAC_CHID[IMAGING_SENSOR_XDMAC_CH].XDMAC_CSUS		= 0;
  40198c:	f8c3 20c0 	str.w	r2, [r3, #192]	; 0xc0
	XDMAC->XDMAC_CHID[IMAGING_SENSOR_XDMAC_CH].XDMAC_CDUS		= 0;
  401990:	f8c3 20c4 	str.w	r2, [r3, #196]	; 0xc4

	XDMAC->XDMAC_CHID[IMAGING_SENSOR_XDMAC_CH].XDMAC_CIE |= XDMAC_CIE_BIE;	// Enables end of block interrupt
  401994:	f8d3 2090 	ldr.w	r2, [r3, #144]	; 0x90
  401998:	f042 0201 	orr.w	r2, r2, #1
  40199c:	f8c3 2090 	str.w	r2, [r3, #144]	; 0x90
	XDMAC->XDMAC_GIE |= (XDMAC_GIE_IE0 <<IMAGING_SENSOR_XDMAC_CH);			// Enables channel interrupt
  4019a0:	68da      	ldr	r2, [r3, #12]
  4019a2:	f042 0202 	orr.w	r2, r2, #2
  4019a6:	60da      	str	r2, [r3, #12]
	XDMAC->XDMAC_GE |= (XDMAC_GE_EN0 << IMAGING_SENSOR_XDMAC_CH);			// Enables DMA channel
  4019a8:	69da      	ldr	r2, [r3, #28]
  4019aa:	f042 0202 	orr.w	r2, r2, #2
  4019ae:	61da      	str	r2, [r3, #28]
  4019b0:	4770      	bx	lr
			XDMAC->XDMAC_CHID[IMAGING_SENSOR_XDMAC_CH].XDMAC_CDA = (uint32_t)imageBuffer0;
  4019b2:	4b07      	ldr	r3, [pc, #28]	; (4019d0 <imagingSensorStartDMA+0x90>)
  4019b4:	4a0b      	ldr	r2, [pc, #44]	; (4019e4 <imagingSensorStartDMA+0xa4>)
  4019b6:	f8c3 20a4 	str.w	r2, [r3, #164]	; 0xa4
			break;
  4019ba:	e7d8      	b.n	40196e <imagingSensorStartDMA+0x2e>
			XDMAC->XDMAC_CHID[IMAGING_SENSOR_XDMAC_CH].XDMAC_CDA = (uint32_t)imageBuffer1;
  4019bc:	4b04      	ldr	r3, [pc, #16]	; (4019d0 <imagingSensorStartDMA+0x90>)
  4019be:	4a0a      	ldr	r2, [pc, #40]	; (4019e8 <imagingSensorStartDMA+0xa8>)
  4019c0:	f8c3 20a4 	str.w	r2, [r3, #164]	; 0xa4
			break;
  4019c4:	e7d3      	b.n	40196e <imagingSensorStartDMA+0x2e>
			XDMAC->XDMAC_CHID[IMAGING_SENSOR_XDMAC_CH].XDMAC_CDA = (uint32_t)imageBuffer2;
  4019c6:	4b02      	ldr	r3, [pc, #8]	; (4019d0 <imagingSensorStartDMA+0x90>)
  4019c8:	4a08      	ldr	r2, [pc, #32]	; (4019ec <imagingSensorStartDMA+0xac>)
  4019ca:	f8c3 20a4 	str.w	r2, [r3, #164]	; 0xa4
			break;
  4019ce:	e7ce      	b.n	40196e <imagingSensorStartDMA+0x2e>
  4019d0:	40078000 	.word	0x40078000
  4019d4:	400e0f68 	.word	0x400e0f68
  4019d8:	2040050c 	.word	0x2040050c
  4019dc:	aaaaaaab 	.word	0xaaaaaaab
  4019e0:	22043001 	.word	0x22043001
  4019e4:	2043af10 	.word	0x2043af10
  4019e8:	20400590 	.word	0x20400590
  4019ec:	2041da50 	.word	0x2041da50

004019f0 <Enable_Imaging_Sensor_Capture>:


// ========== Parallel Capture Enable/Disable ========== //
void Enable_Imaging_Sensor_Capture()
{
	PIOA->PIO_PCMR |= PIO_PCMR_PCEN;					// Value 1: The parallel capture mode is enabled
  4019f0:	4a03      	ldr	r2, [pc, #12]	; (401a00 <Enable_Imaging_Sensor_Capture+0x10>)
  4019f2:	f8d2 3154 	ldr.w	r3, [r2, #340]	; 0x154
  4019f6:	f043 0301 	orr.w	r3, r3, #1
  4019fa:	f8c2 3154 	str.w	r3, [r2, #340]	; 0x154
  4019fe:	4770      	bx	lr
  401a00:	400e0e00 	.word	0x400e0e00

00401a04 <Disable_Imaging_Sensor_Capture>:
}

void Disable_Imaging_Sensor_Capture()
{
	PIOA->PIO_PCMR &= (uint32_t)(~PIO_PCMR_PCEN);		// Value 0: The parallel capture mode is disabled
  401a04:	4a03      	ldr	r2, [pc, #12]	; (401a14 <Disable_Imaging_Sensor_Capture+0x10>)
  401a06:	f8d2 3154 	ldr.w	r3, [r2, #340]	; 0x154
  401a0a:	f023 0301 	bic.w	r3, r3, #1
  401a0e:	f8c2 3154 	str.w	r3, [r2, #340]	; 0x154
  401a12:	4770      	bx	lr
  401a14:	400e0e00 	.word	0x400e0e00

00401a18 <imagingSensorSetup>:
{
  401a18:	b508      	push	{r3, lr}
	Disable_Imaging_Sensor_Capture();		// Makes sure PIo Capture is disabled
  401a1a:	4b0f      	ldr	r3, [pc, #60]	; (401a58 <imagingSensorSetup+0x40>)
  401a1c:	4798      	blx	r3
	pmc_enable_periph_clk(ID_PIOA);		// Sets PIO clock
  401a1e:	200a      	movs	r0, #10
  401a20:	4b0e      	ldr	r3, [pc, #56]	; (401a5c <imagingSensorSetup+0x44>)
  401a22:	4798      	blx	r3
  NVIC->ICPR[((uint32_t)(IRQn) >> 5)] = (1 << ((uint32_t)(IRQn) & 0x1F)); /* Clear pending interrupt */
  401a24:	4b0e      	ldr	r3, [pc, #56]	; (401a60 <imagingSensorSetup+0x48>)
  401a26:	f44f 6280 	mov.w	r2, #1024	; 0x400
  401a2a:	f8c3 2180 	str.w	r2, [r3, #384]	; 0x180
    NVIC->IP[(uint32_t)(IRQn)]            = ((priority << (8 - __NVIC_PRIO_BITS)) & 0xff); } /* set Priority for device specific Interrupts  */
  401a2e:	2140      	movs	r1, #64	; 0x40
  401a30:	f883 130a 	strb.w	r1, [r3, #778]	; 0x30a
  NVIC->ISER[(uint32_t)((int32_t)IRQn) >> 5] = (uint32_t)(1 << ((uint32_t)((int32_t)IRQn) & (uint32_t)0x1F)); /* enable interrupt */
  401a34:	601a      	str	r2, [r3, #0]
	imagingSensorParamInit();			// Configure PIO Capture settings
  401a36:	4b0b      	ldr	r3, [pc, #44]	; (401a64 <imagingSensorSetup+0x4c>)
  401a38:	4798      	blx	r3
	imagingSensorItInit();				// Set up sensor interrupts	// Might need to change interrupts for DMA transfer
  401a3a:	4b0b      	ldr	r3, [pc, #44]	; (401a68 <imagingSensorSetup+0x50>)
  401a3c:	4798      	blx	r3
	imagingSensorDMAInit();				// Initialize direct memory access
  401a3e:	4b0b      	ldr	r3, [pc, #44]	; (401a6c <imagingSensorSetup+0x54>)
  401a40:	4798      	blx	r3
	imageSensorVSyncItInit();			// Set up VSync interrupt to detect end of frame
  401a42:	4b0b      	ldr	r3, [pc, #44]	; (401a70 <imagingSensorSetup+0x58>)
  401a44:	4798      	blx	r3
	imageSensorHSyncItInit();
  401a46:	4b0b      	ldr	r3, [pc, #44]	; (401a74 <imagingSensorSetup+0x5c>)
  401a48:	4798      	blx	r3
	packetCMOS.chip = IMAGING_SENSOR_ADR;
  401a4a:	4b0b      	ldr	r3, [pc, #44]	; (401a78 <imagingSensorSetup+0x60>)
  401a4c:	2200      	movs	r2, #0
  401a4e:	741a      	strb	r2, [r3, #16]
	packetCMOS.addr_length = 1;
  401a50:	2201      	movs	r2, #1
  401a52:	605a      	str	r2, [r3, #4]
  401a54:	bd08      	pop	{r3, pc}
  401a56:	bf00      	nop
  401a58:	00401a05 	.word	0x00401a05
  401a5c:	00401f9d 	.word	0x00401f9d
  401a60:	e000e100 	.word	0xe000e100
  401a64:	00401855 	.word	0x00401855
  401a68:	0040188d 	.word	0x0040188d
  401a6c:	00401869 	.word	0x00401869
  401a70:	004018a1 	.word	0x004018a1
  401a74:	004018f1 	.word	0x004018f1
  401a78:	20400578 	.word	0x20400578

00401a7c <checkVSync>:
{
  401a7c:	b508      	push	{r3, lr}
	if (pcISR & VSYNC_MASK)			// VSync signal is detected. End of frame capture
  401a7e:	4b3b      	ldr	r3, [pc, #236]	; (401b6c <checkVSync+0xf0>)
  401a80:	681b      	ldr	r3, [r3, #0]
  401a82:	f413 4f80 	tst.w	r3, #16384	; 0x4000
  401a86:	d009      	beq.n	401a9c <checkVSync+0x20>
		if (captureEnabled && startRecording) 
  401a88:	4b39      	ldr	r3, [pc, #228]	; (401b70 <checkVSync+0xf4>)
  401a8a:	781b      	ldrb	r3, [r3, #0]
  401a8c:	b113      	cbz	r3, 401a94 <checkVSync+0x18>
  401a8e:	4b39      	ldr	r3, [pc, #228]	; (401b74 <checkVSync+0xf8>)
  401a90:	781b      	ldrb	r3, [r3, #0]
  401a92:	b923      	cbnz	r3, 401a9e <checkVSync+0x22>
		else if(startRecording)		// Waits for the first VSync to start capture. This makes sure we capture a full first frame
  401a94:	4b37      	ldr	r3, [pc, #220]	; (401b74 <checkVSync+0xf8>)
  401a96:	781b      	ldrb	r3, [r3, #0]
  401a98:	2b00      	cmp	r3, #0
  401a9a:	d15a      	bne.n	401b52 <checkVSync+0xd6>
  401a9c:	bd08      	pop	{r3, pc}
			captureEnabled = 0;
  401a9e:	2300      	movs	r3, #0
  401aa0:	4a33      	ldr	r2, [pc, #204]	; (401b70 <checkVSync+0xf4>)
  401aa2:	7013      	strb	r3, [r2, #0]
			startRecording = 0;
  401aa4:	4a33      	ldr	r2, [pc, #204]	; (401b74 <checkVSync+0xf8>)
  401aa6:	7013      	strb	r3, [r2, #0]
			Disable_Imaging_Sensor_Capture();
  401aa8:	4b33      	ldr	r3, [pc, #204]	; (401b78 <checkVSync+0xfc>)
  401aaa:	4798      	blx	r3
			switch (frameNumber % 3)
  401aac:	4b33      	ldr	r3, [pc, #204]	; (401b7c <checkVSync+0x100>)
  401aae:	681a      	ldr	r2, [r3, #0]
  401ab0:	4b33      	ldr	r3, [pc, #204]	; (401b80 <checkVSync+0x104>)
  401ab2:	fba3 1302 	umull	r1, r3, r3, r2
  401ab6:	085b      	lsrs	r3, r3, #1
  401ab8:	eb03 0343 	add.w	r3, r3, r3, lsl #1
  401abc:	1ad3      	subs	r3, r2, r3
  401abe:	2b01      	cmp	r3, #1
  401ac0:	d02b      	beq.n	401b1a <checkVSync+0x9e>
  401ac2:	b1e3      	cbz	r3, 401afe <checkVSync+0x82>
  401ac4:	2b02      	cmp	r3, #2
  401ac6:	d036      	beq.n	401b36 <checkVSync+0xba>
			lineCount = 0;
  401ac8:	2300      	movs	r3, #0
  401aca:	4a2e      	ldr	r2, [pc, #184]	; (401b84 <checkVSync+0x108>)
  401acc:	6013      	str	r3, [r2, #0]
			frameNumber++;
  401ace:	4a2b      	ldr	r2, [pc, #172]	; (401b7c <checkVSync+0x100>)
  401ad0:	6811      	ldr	r1, [r2, #0]
  401ad2:	3101      	adds	r1, #1
  401ad4:	6011      	str	r1, [r2, #0]
			overflowCount = 0;
  401ad6:	492c      	ldr	r1, [pc, #176]	; (401b88 <checkVSync+0x10c>)
  401ad8:	600b      	str	r3, [r1, #0]
			xferDMAComplete = 0;
  401ada:	492c      	ldr	r1, [pc, #176]	; (401b8c <checkVSync+0x110>)
  401adc:	600b      	str	r3, [r1, #0]
				if (frameNumber <= sdImageWriteFrameNum + 2)
  401ade:	4b2c      	ldr	r3, [pc, #176]	; (401b90 <checkVSync+0x114>)
  401ae0:	681b      	ldr	r3, [r3, #0]
  401ae2:	6812      	ldr	r2, [r2, #0]
  401ae4:	3302      	adds	r3, #2
  401ae6:	4293      	cmp	r3, r2
  401ae8:	d3d8      	bcc.n	401a9c <checkVSync+0x20>
					startRecording = 1;
  401aea:	2301      	movs	r3, #1
  401aec:	4a21      	ldr	r2, [pc, #132]	; (401b74 <checkVSync+0xf8>)
  401aee:	7013      	strb	r3, [r2, #0]
					captureEnabled = 1;
  401af0:	4a1f      	ldr	r2, [pc, #124]	; (401b70 <checkVSync+0xf4>)
  401af2:	7013      	strb	r3, [r2, #0]
					imagingSensorStartDMA();
  401af4:	4b27      	ldr	r3, [pc, #156]	; (401b94 <checkVSync+0x118>)
  401af6:	4798      	blx	r3
					Enable_Imaging_Sensor_Capture();
  401af8:	4b27      	ldr	r3, [pc, #156]	; (401b98 <checkVSync+0x11c>)
  401afa:	4798      	blx	r3
  401afc:	bd08      	pop	{r3, pc}
					imageBuffer0[buffSize-1] = frameNumber;
  401afe:	4b1f      	ldr	r3, [pc, #124]	; (401b7c <checkVSync+0x100>)
  401b00:	6819      	ldr	r1, [r3, #0]
  401b02:	4b26      	ldr	r3, [pc, #152]	; (401b9c <checkVSync+0x120>)
  401b04:	4a26      	ldr	r2, [pc, #152]	; (401ba0 <checkVSync+0x124>)
  401b06:	5099      	str	r1, [r3, r2]
					imageBuffer0[buffSize-3] = lineCount;
  401b08:	4a1e      	ldr	r2, [pc, #120]	; (401b84 <checkVSync+0x108>)
  401b0a:	6811      	ldr	r1, [r2, #0]
  401b0c:	4a25      	ldr	r2, [pc, #148]	; (401ba4 <checkVSync+0x128>)
  401b0e:	5099      	str	r1, [r3, r2]
					imageBuffer0[buffSize-4] = xferDMAComplete; //Overflow flag
  401b10:	4a1e      	ldr	r2, [pc, #120]	; (401b8c <checkVSync+0x110>)
  401b12:	6811      	ldr	r1, [r2, #0]
  401b14:	4a24      	ldr	r2, [pc, #144]	; (401ba8 <checkVSync+0x12c>)
  401b16:	5099      	str	r1, [r3, r2]
				break;
  401b18:	e7d6      	b.n	401ac8 <checkVSync+0x4c>
					imageBuffer1[buffSize-1] = frameNumber;
  401b1a:	4b18      	ldr	r3, [pc, #96]	; (401b7c <checkVSync+0x100>)
  401b1c:	6819      	ldr	r1, [r3, #0]
  401b1e:	4b23      	ldr	r3, [pc, #140]	; (401bac <checkVSync+0x130>)
  401b20:	4a1f      	ldr	r2, [pc, #124]	; (401ba0 <checkVSync+0x124>)
  401b22:	5099      	str	r1, [r3, r2]
					imageBuffer1[buffSize-3] = lineCount;
  401b24:	4a17      	ldr	r2, [pc, #92]	; (401b84 <checkVSync+0x108>)
  401b26:	6811      	ldr	r1, [r2, #0]
  401b28:	4a1e      	ldr	r2, [pc, #120]	; (401ba4 <checkVSync+0x128>)
  401b2a:	5099      	str	r1, [r3, r2]
					imageBuffer1[buffSize-4] = xferDMAComplete; //Overflow flag
  401b2c:	4a17      	ldr	r2, [pc, #92]	; (401b8c <checkVSync+0x110>)
  401b2e:	6811      	ldr	r1, [r2, #0]
  401b30:	4a1d      	ldr	r2, [pc, #116]	; (401ba8 <checkVSync+0x12c>)
  401b32:	5099      	str	r1, [r3, r2]
				break;
  401b34:	e7c8      	b.n	401ac8 <checkVSync+0x4c>
					imageBuffer2[buffSize-1] = frameNumber;
  401b36:	4b11      	ldr	r3, [pc, #68]	; (401b7c <checkVSync+0x100>)
  401b38:	6819      	ldr	r1, [r3, #0]
  401b3a:	4b1d      	ldr	r3, [pc, #116]	; (401bb0 <checkVSync+0x134>)
  401b3c:	4a18      	ldr	r2, [pc, #96]	; (401ba0 <checkVSync+0x124>)
  401b3e:	5099      	str	r1, [r3, r2]
					imageBuffer2[buffSize-3] = lineCount;
  401b40:	4a10      	ldr	r2, [pc, #64]	; (401b84 <checkVSync+0x108>)
  401b42:	6811      	ldr	r1, [r2, #0]
  401b44:	4a17      	ldr	r2, [pc, #92]	; (401ba4 <checkVSync+0x128>)
  401b46:	5099      	str	r1, [r3, r2]
					imageBuffer2[buffSize-4] = xferDMAComplete; //Overflow flag
  401b48:	4a10      	ldr	r2, [pc, #64]	; (401b8c <checkVSync+0x110>)
  401b4a:	6811      	ldr	r1, [r2, #0]
  401b4c:	4a16      	ldr	r2, [pc, #88]	; (401ba8 <checkVSync+0x12c>)
  401b4e:	5099      	str	r1, [r3, r2]
				break;
  401b50:	e7ba      	b.n	401ac8 <checkVSync+0x4c>
			captureEnabled = 1;
  401b52:	2201      	movs	r2, #1
  401b54:	4b06      	ldr	r3, [pc, #24]	; (401b70 <checkVSync+0xf4>)
  401b56:	701a      	strb	r2, [r3, #0]
			lineCount = 0;
  401b58:	2300      	movs	r3, #0
  401b5a:	4a0a      	ldr	r2, [pc, #40]	; (401b84 <checkVSync+0x108>)
  401b5c:	6013      	str	r3, [r2, #0]
			overflowCount = 0;
  401b5e:	4a0a      	ldr	r2, [pc, #40]	; (401b88 <checkVSync+0x10c>)
  401b60:	6013      	str	r3, [r2, #0]
			imagingSensorStartDMA();
  401b62:	4b0c      	ldr	r3, [pc, #48]	; (401b94 <checkVSync+0x118>)
  401b64:	4798      	blx	r3
			Enable_Imaging_Sensor_Capture();
  401b66:	4b0c      	ldr	r3, [pc, #48]	; (401b98 <checkVSync+0x11c>)
  401b68:	4798      	blx	r3
}
  401b6a:	e797      	b.n	401a9c <checkVSync+0x20>
  401b6c:	20400520 	.word	0x20400520
  401b70:	20400508 	.word	0x20400508
  401b74:	20400528 	.word	0x20400528
  401b78:	00401a05 	.word	0x00401a05
  401b7c:	2040050c 	.word	0x2040050c
  401b80:	aaaaaaab 	.word	0xaaaaaaab
  401b84:	20400514 	.word	0x20400514
  401b88:	2040051c 	.word	0x2040051c
  401b8c:	20400530 	.word	0x20400530
  401b90:	20400524 	.word	0x20400524
  401b94:	00401941 	.word	0x00401941
  401b98:	004019f1 	.word	0x004019f1
  401b9c:	2043af10 	.word	0x2043af10
  401ba0:	0001d4bc 	.word	0x0001d4bc
  401ba4:	0001d4b4 	.word	0x0001d4b4
  401ba8:	0001d4b0 	.word	0x0001d4b0
  401bac:	20400590 	.word	0x20400590
  401bb0:	2041da50 	.word	0x2041da50

00401bb4 <PIOA_Handler>:
{
  401bb4:	b508      	push	{r3, lr}
	pcISR = PIOA->PIO_ISR;
  401bb6:	4b0a      	ldr	r3, [pc, #40]	; (401be0 <PIOA_Handler+0x2c>)
  401bb8:	6cda      	ldr	r2, [r3, #76]	; 0x4c
  401bba:	4b0a      	ldr	r3, [pc, #40]	; (401be4 <PIOA_Handler+0x30>)
  401bbc:	601a      	str	r2, [r3, #0]
	if (pcISR & HSYNC_MASK)
  401bbe:	681b      	ldr	r3, [r3, #0]
  401bc0:	f413 1f00 	tst.w	r3, #2097152	; 0x200000
  401bc4:	d004      	beq.n	401bd0 <PIOA_Handler+0x1c>
		if (captureEnabled == 1)
  401bc6:	4b08      	ldr	r3, [pc, #32]	; (401be8 <PIOA_Handler+0x34>)
  401bc8:	781b      	ldrb	r3, [r3, #0]
  401bca:	b2db      	uxtb	r3, r3
  401bcc:	2b01      	cmp	r3, #1
  401bce:	d002      	beq.n	401bd6 <PIOA_Handler+0x22>
	checkVSync();
  401bd0:	4b06      	ldr	r3, [pc, #24]	; (401bec <PIOA_Handler+0x38>)
  401bd2:	4798      	blx	r3
  401bd4:	bd08      	pop	{r3, pc}
			lineCount++;
  401bd6:	4a06      	ldr	r2, [pc, #24]	; (401bf0 <PIOA_Handler+0x3c>)
  401bd8:	6813      	ldr	r3, [r2, #0]
  401bda:	3301      	adds	r3, #1
  401bdc:	6013      	str	r3, [r2, #0]
  401bde:	e7f7      	b.n	401bd0 <PIOA_Handler+0x1c>
  401be0:	400e0e00 	.word	0x400e0e00
  401be4:	20400520 	.word	0x20400520
  401be8:	20400508 	.word	0x20400508
  401bec:	00401a7d 	.word	0x00401a7d
  401bf0:	20400514 	.word	0x20400514

00401bf4 <SPI_Write>:
#include "definitions.h"


// SPI_Write: writes value on a register of the slave
void SPI_Write(uint16_t reg, uint16_t val)
{
  401bf4:	e92d 4ff8 	stmdb	sp!, {r3, r4, r5, r6, r7, r8, r9, sl, fp, lr}
  401bf8:	4604      	mov	r4, r0
  401bfa:	460d      	mov	r5, r1
		base->PIO_SODR = arch_ioport_pin_to_mask(pin);
  401bfc:	4f33      	ldr	r7, [pc, #204]	; (401ccc <SPI_Write+0xd8>)
  401bfe:	f04f 7800 	mov.w	r8, #33554432	; 0x2000000
  401c02:	f8c7 8030 	str.w	r8, [r7, #48]	; 0x30
	uint8_t count = 0;
//	reg = reg | 0x100;					// Sets write bit to 1 (100(hex) = 1 0000 0000(bin))
	
	// ==== Open the communication line with Python480
	ioport_set_pin_level(SPI_BB_SS, 1);			// 1. Slave Select (SS) pin up
	delay_us(10);
  401c06:	20f3      	movs	r0, #243	; 0xf3
  401c08:	4e31      	ldr	r6, [pc, #196]	; (401cd0 <SPI_Write+0xdc>)
  401c0a:	47b0      	blx	r6
		base->PIO_CODR = arch_ioport_pin_to_mask(pin);
  401c0c:	f8c7 8034 	str.w	r8, [r7, #52]	; 0x34
	ioport_set_pin_level(SPI_BB_SS, 0);			// 2. SS pin down (Open the channel)
	delay_us(10);
  401c10:	20f3      	movs	r0, #243	; 0xf3
  401c12:	47b0      	blx	r6
  401c14:	f04f 0b09 	mov.w	fp, #9
  401c18:	463e      	mov	r6, r7
  401c1a:	f44f 0980 	mov.w	r9, #4194304	; 0x400000
  401c1e:	46ca      	mov	sl, r9
		}
		else										// If 0
		{
			ioport_set_pin_level(SPI_BB_MOSI, 0);		// MOSI pin at 0
		}
		delay_us(10);
  401c20:	f04f 08f3 	mov.w	r8, #243	; 0xf3
  401c24:	4f2a      	ldr	r7, [pc, #168]	; (401cd0 <SPI_Write+0xdc>)
  401c26:	e00f      	b.n	401c48 <SPI_Write+0x54>
  401c28:	f44f 1300 	mov.w	r3, #2097152	; 0x200000
  401c2c:	6373      	str	r3, [r6, #52]	; 0x34
  401c2e:	4640      	mov	r0, r8
  401c30:	47b8      	blx	r7
		base->PIO_SODR = arch_ioport_pin_to_mask(pin);
  401c32:	f8c6 9030 	str.w	r9, [r6, #48]	; 0x30

		ioport_set_pin_level(SPI_BB_SCK, 1);	// 4. Clock up
		delay_us(10);
  401c36:	4640      	mov	r0, r8
  401c38:	47b8      	blx	r7
		
		reg = reg << 1;							// 5. Move the next MSD to the top
  401c3a:	0064      	lsls	r4, r4, #1
  401c3c:	b2a4      	uxth	r4, r4
  401c3e:	f10b 33ff 	add.w	r3, fp, #4294967295
	for(count = 0; count < 9; ++count)			// 1. 9 bit address, going from MSD (Most Significant Digit) to LSD (Least)
  401c42:	f013 0bff 	ands.w	fp, r3, #255	; 0xff
  401c46:	d008      	beq.n	401c5a <SPI_Write+0x66>
		base->PIO_CODR = arch_ioport_pin_to_mask(pin);
  401c48:	f8c6 a034 	str.w	sl, [r6, #52]	; 0x34
		if (reg & 0x100)							// If bit value 1 (0x100 is 1 0000 0000, so (if condition is 1 --> the MSD is 1))
  401c4c:	f414 7f80 	tst.w	r4, #256	; 0x100
  401c50:	d0ea      	beq.n	401c28 <SPI_Write+0x34>
		base->PIO_SODR = arch_ioport_pin_to_mask(pin);
  401c52:	f44f 1300 	mov.w	r3, #2097152	; 0x200000
  401c56:	6333      	str	r3, [r6, #48]	; 0x30
  401c58:	e7e9      	b.n	401c2e <SPI_Write+0x3a>
		base->PIO_CODR = arch_ioport_pin_to_mask(pin);
  401c5a:	4c1c      	ldr	r4, [pc, #112]	; (401ccc <SPI_Write+0xd8>)
  401c5c:	f44f 0780 	mov.w	r7, #4194304	; 0x400000
  401c60:	6367      	str	r7, [r4, #52]	; 0x34
		base->PIO_SODR = arch_ioport_pin_to_mask(pin);
  401c62:	f44f 1300 	mov.w	r3, #2097152	; 0x200000
  401c66:	6323      	str	r3, [r4, #48]	; 0x30
	}
	
	// ===== Notify Python480 that it's a WRITE command
	ioport_set_pin_level(SPI_BB_SCK, 0);	// 1. Clock down
	ioport_set_pin_level(SPI_BB_MOSI, 1);	// 2. MOSI up
	delay_us(10);
  401c68:	20f3      	movs	r0, #243	; 0xf3
  401c6a:	4e19      	ldr	r6, [pc, #100]	; (401cd0 <SPI_Write+0xdc>)
  401c6c:	47b0      	blx	r6
		base->PIO_CODR = arch_ioport_pin_to_mask(pin);
  401c6e:	6367      	str	r7, [r4, #52]	; 0x34
	ioport_set_pin_level(SPI_BB_SCK, 0);	// 3. Clock up
	delay_us(10);
  401c70:	20f3      	movs	r0, #243	; 0xf3
  401c72:	47b0      	blx	r6
  401c74:	2410      	movs	r4, #16
  401c76:	4e15      	ldr	r6, [pc, #84]	; (401ccc <SPI_Write+0xd8>)
  401c78:	46b9      	mov	r9, r7
  401c7a:	46ba      	mov	sl, r7
		}
		else										// If bit value 0
		{
			ioport_set_pin_level(SPI_BB_MOSI, 0);		// MOSI pin at 0
		}
		delay_us(10);
  401c7c:	f04f 08f3 	mov.w	r8, #243	; 0xf3
  401c80:	4f13      	ldr	r7, [pc, #76]	; (401cd0 <SPI_Write+0xdc>)
  401c82:	e00e      	b.n	401ca2 <SPI_Write+0xae>
		base->PIO_SODR = arch_ioport_pin_to_mask(pin);
  401c84:	f44f 1300 	mov.w	r3, #2097152	; 0x200000
  401c88:	6333      	str	r3, [r6, #48]	; 0x30
  401c8a:	4640      	mov	r0, r8
  401c8c:	47b8      	blx	r7
  401c8e:	f8c6 9030 	str.w	r9, [r6, #48]	; 0x30
		
		ioport_set_pin_level(SPI_BB_SCK, 1);	// 4. Clock up
		delay_us(10);
  401c92:	4640      	mov	r0, r8
  401c94:	47b8      	blx	r7
		
		val = val << 1;							// 5. Move next MSD to the top
  401c96:	006d      	lsls	r5, r5, #1
  401c98:	b2ad      	uxth	r5, r5
  401c9a:	1e63      	subs	r3, r4, #1
	for(count = 0; count < 16; ++count)			// 1. 16 bit value, going from MSD to LSD
  401c9c:	f013 04ff 	ands.w	r4, r3, #255	; 0xff
  401ca0:	d008      	beq.n	401cb4 <SPI_Write+0xc0>
		base->PIO_CODR = arch_ioport_pin_to_mask(pin);
  401ca2:	f8c6 a034 	str.w	sl, [r6, #52]	; 0x34
		if (val & 0x8000)							// If bit value 1
  401ca6:	f415 4f00 	tst.w	r5, #32768	; 0x8000
  401caa:	d1eb      	bne.n	401c84 <SPI_Write+0x90>
  401cac:	f44f 1300 	mov.w	r3, #2097152	; 0x200000
  401cb0:	6373      	str	r3, [r6, #52]	; 0x34
  401cb2:	e7ea      	b.n	401c8a <SPI_Write+0x96>
		base->PIO_SODR = arch_ioport_pin_to_mask(pin);
  401cb4:	4c05      	ldr	r4, [pc, #20]	; (401ccc <SPI_Write+0xd8>)
  401cb6:	f44f 0380 	mov.w	r3, #4194304	; 0x400000
  401cba:	6323      	str	r3, [r4, #48]	; 0x30
	}
	
	// ===== Shut down the communication line
	ioport_set_pin_level(SPI_BB_SCK, 1);	// 1. Clock down
	delay_us(10);
  401cbc:	20f3      	movs	r0, #243	; 0xf3
  401cbe:	4b04      	ldr	r3, [pc, #16]	; (401cd0 <SPI_Write+0xdc>)
  401cc0:	4798      	blx	r3
  401cc2:	f04f 7300 	mov.w	r3, #33554432	; 0x2000000
  401cc6:	6323      	str	r3, [r4, #48]	; 0x30
  401cc8:	e8bd 8ff8 	ldmia.w	sp!, {r3, r4, r5, r6, r7, r8, r9, sl, fp, pc}
  401ccc:	400e1400 	.word	0x400e1400
  401cd0:	20400001 	.word	0x20400001

00401cd4 <SPI_Read>:
	ioport_set_pin_level(SPI_BB_SS, 1);		// 2. Chip select high
}


uint16_t SPI_Read(uint16_t reg)
{
  401cd4:	e92d 47f0 	stmdb	sp!, {r4, r5, r6, r7, r8, r9, sl, lr}
  401cd8:	4605      	mov	r5, r0
  401cda:	4e33      	ldr	r6, [pc, #204]	; (401da8 <SPI_Read+0xd4>)
  401cdc:	f04f 7700 	mov.w	r7, #33554432	; 0x2000000
  401ce0:	6337      	str	r7, [r6, #48]	; 0x30
	uint16_t value = 0;
	//	reg = reg | 0x100;					// Sets write bit to 1 (100(hex) = 1 0000 0000(bin))
	
	// ==== Open the communication line with Python480
	ioport_set_pin_level(SPI_BB_SS, 1);			// 1. Slave Select (SS) pin up
	delay_us(10);
  401ce2:	20f3      	movs	r0, #243	; 0xf3
  401ce4:	4c31      	ldr	r4, [pc, #196]	; (401dac <SPI_Read+0xd8>)
  401ce6:	47a0      	blx	r4
		base->PIO_CODR = arch_ioport_pin_to_mask(pin);
  401ce8:	6377      	str	r7, [r6, #52]	; 0x34
	ioport_set_pin_level(SPI_BB_SS, 0);			// 2. SS pin down (Open the channel)
	delay_us(10);
  401cea:	20f3      	movs	r0, #243	; 0xf3
  401cec:	47a0      	blx	r4
  401cee:	2409      	movs	r4, #9
  401cf0:	f44f 0980 	mov.w	r9, #4194304	; 0x400000
  401cf4:	46ca      	mov	sl, r9
		}
		else										// If 0
		{
			ioport_set_pin_level(SPI_BB_MOSI, 0);		// MOSI pin at 0
		}
		delay_us(10);
  401cf6:	f04f 08f3 	mov.w	r8, #243	; 0xf3
  401cfa:	4f2c      	ldr	r7, [pc, #176]	; (401dac <SPI_Read+0xd8>)
  401cfc:	e00e      	b.n	401d1c <SPI_Read+0x48>
  401cfe:	f44f 1300 	mov.w	r3, #2097152	; 0x200000
  401d02:	6373      	str	r3, [r6, #52]	; 0x34
  401d04:	4640      	mov	r0, r8
  401d06:	47b8      	blx	r7
		base->PIO_SODR = arch_ioport_pin_to_mask(pin);
  401d08:	f8c6 9030 	str.w	r9, [r6, #48]	; 0x30

		ioport_set_pin_level(SPI_BB_SCK, 1);	// 4. Clock up
		delay_us(10);
  401d0c:	4640      	mov	r0, r8
  401d0e:	47b8      	blx	r7
		
		reg = reg << 1;							// 5. Move the next MSD to the top
  401d10:	006d      	lsls	r5, r5, #1
  401d12:	b2ad      	uxth	r5, r5
  401d14:	1e63      	subs	r3, r4, #1
	for(count = 0; count < 9; ++count)			// 1. 9 bit address, going from MSD (Most Significant Digit) to LSD (Least)
  401d16:	f013 04ff 	ands.w	r4, r3, #255	; 0xff
  401d1a:	d008      	beq.n	401d2e <SPI_Read+0x5a>
		base->PIO_CODR = arch_ioport_pin_to_mask(pin);
  401d1c:	f8c6 a034 	str.w	sl, [r6, #52]	; 0x34
		if (reg & 0x100)							// If bit value 1 (0x100 is 1 0000 0000, so (if condition is 1 --> the MSD is 1))
  401d20:	f415 7f80 	tst.w	r5, #256	; 0x100
  401d24:	d0eb      	beq.n	401cfe <SPI_Read+0x2a>
		base->PIO_SODR = arch_ioport_pin_to_mask(pin);
  401d26:	f44f 1300 	mov.w	r3, #2097152	; 0x200000
  401d2a:	6333      	str	r3, [r6, #48]	; 0x30
  401d2c:	e7ea      	b.n	401d04 <SPI_Read+0x30>
		base->PIO_CODR = arch_ioport_pin_to_mask(pin);
  401d2e:	4c1e      	ldr	r4, [pc, #120]	; (401da8 <SPI_Read+0xd4>)
  401d30:	f44f 0680 	mov.w	r6, #4194304	; 0x400000
  401d34:	6366      	str	r6, [r4, #52]	; 0x34
  401d36:	f44f 1300 	mov.w	r3, #2097152	; 0x200000
  401d3a:	6363      	str	r3, [r4, #52]	; 0x34
	}
	
	// ===== Notify Python480 that it's a READ command
	ioport_set_pin_level(SPI_BB_SCK, 0);	// 1. Clock down
	ioport_set_pin_level(SPI_BB_MOSI, 0);	// 2. MOSI up
	delay_us(10);
  401d3c:	20f3      	movs	r0, #243	; 0xf3
  401d3e:	4d1b      	ldr	r5, [pc, #108]	; (401dac <SPI_Read+0xd8>)
  401d40:	47a8      	blx	r5
		base->PIO_SODR = arch_ioport_pin_to_mask(pin);
  401d42:	6326      	str	r6, [r4, #48]	; 0x30
	ioport_set_pin_level(SPI_BB_SCK, 1);	// 3. Clock up
	delay_us(10);
  401d44:	20f3      	movs	r0, #243	; 0xf3
  401d46:	47a8      	blx	r5
		base->PIO_CODR = arch_ioport_pin_to_mask(pin);
  401d48:	6366      	str	r6, [r4, #52]	; 0x34
	ioport_set_pin_level(SPI_BB_SCK, 0);	// 4. Clock down
	delay_us(10);
  401d4a:	20f3      	movs	r0, #243	; 0xf3
  401d4c:	47a8      	blx	r5
		base->PIO_SODR = arch_ioport_pin_to_mask(pin);
  401d4e:	6326      	str	r6, [r4, #48]	; 0x30
	ioport_set_pin_level(SPI_BB_SCK, 1);	// 5. Clock up
	delay_us(10);
  401d50:	20f3      	movs	r0, #243	; 0xf3
  401d52:	47a8      	blx	r5
		base->PIO_CODR = arch_ioport_pin_to_mask(pin);
  401d54:	6366      	str	r6, [r4, #52]	; 0x34
	base->PIO_CODR = mask & ~level;
}

__always_inline static bool arch_ioport_get_pin_level(ioport_pin_t pin)
{
	return arch_ioport_pin_to_base(pin)->PIO_PDSR & arch_ioport_pin_to_mask(pin);
  401d56:	6be0      	ldr	r0, [r4, #60]	; 0x3c
	
	// ===== Receive the value coming in from Python480
	for(count = 0; count < 16; ++count)			// 1. 16 bit value, going from MSD to LSD
	{
		ioport_set_pin_level(SPI_BB_SCK, 0);					// 2. Clock down
		value |= (0x01 & ioport_get_pin_level(SPI_BB_MISO));	// 3. Put value into the next MSD (currently LSD)
  401d58:	f3c0 5800 	ubfx	r8, r0, #20, #1
		delay_us(10);
  401d5c:	20f3      	movs	r0, #243	; 0xf3
  401d5e:	47a8      	blx	r5
		base->PIO_SODR = arch_ioport_pin_to_mask(pin);
  401d60:	6326      	str	r6, [r4, #48]	; 0x30
		
		ioport_set_pin_level(SPI_BB_SCK, 1);					// 4. Clock up
		delay_us(10);
  401d62:	20f3      	movs	r0, #243	; 0xf3
  401d64:	47a8      	blx	r5
  401d66:	240f      	movs	r4, #15
		base->PIO_CODR = arch_ioport_pin_to_mask(pin);
  401d68:	4d0f      	ldr	r5, [pc, #60]	; (401da8 <SPI_Read+0xd4>)
  401d6a:	4637      	mov	r7, r6
  401d6c:	636f      	str	r7, [r5, #52]	; 0x34
	return arch_ioport_pin_to_base(pin)->PIO_PDSR & arch_ioport_pin_to_mask(pin);
  401d6e:	6be8      	ldr	r0, [r5, #60]	; 0x3c
  401d70:	f3c0 5000 	ubfx	r0, r0, #20, #1
		value |= (0x01 & ioport_get_pin_level(SPI_BB_MISO));	// 3. Put value into the next MSD (currently LSD)
  401d74:	ea40 0048 	orr.w	r0, r0, r8, lsl #1
  401d78:	fa1f f880 	uxth.w	r8, r0
		delay_us(10);
  401d7c:	20f3      	movs	r0, #243	; 0xf3
  401d7e:	f8df 902c 	ldr.w	r9, [pc, #44]	; 401dac <SPI_Read+0xd8>
  401d82:	47c8      	blx	r9
		base->PIO_SODR = arch_ioport_pin_to_mask(pin);
  401d84:	632e      	str	r6, [r5, #48]	; 0x30
		delay_us(10);
  401d86:	20f3      	movs	r0, #243	; 0xf3
  401d88:	47c8      	blx	r9
  401d8a:	1e63      	subs	r3, r4, #1
		
		if (count == 15)						// 5. Don't move a bit up if we got all the data
  401d8c:	f013 04ff 	ands.w	r4, r3, #255	; 0xff
  401d90:	d1ec      	bne.n	401d6c <SPI_Read+0x98>
		base->PIO_CODR = arch_ioport_pin_to_mask(pin);
  401d92:	4b05      	ldr	r3, [pc, #20]	; (401da8 <SPI_Read+0xd4>)
  401d94:	f44f 0280 	mov.w	r2, #4194304	; 0x400000
  401d98:	635a      	str	r2, [r3, #52]	; 0x34
		base->PIO_SODR = arch_ioport_pin_to_mask(pin);
  401d9a:	f04f 7200 	mov.w	r2, #33554432	; 0x2000000
  401d9e:	631a      	str	r2, [r3, #48]	; 0x30
	// ===== Finish communication with Python480
	ioport_set_pin_level(SPI_BB_SCK, 0);		// 1. Clock down
	ioport_set_pin_level(SPI_BB_SS, 1);			// 2. Slave select up
	
	return value;
}
  401da0:	4640      	mov	r0, r8
  401da2:	e8bd 87f0 	ldmia.w	sp!, {r4, r5, r6, r7, r8, r9, sl, pc}
  401da6:	bf00      	nop
  401da8:	400e1400 	.word	0x400e1400
  401dac:	20400001 	.word	0x20400001

00401db0 <SysTick_Handler>:
 * Process System Tick Event
 * Increments the g_ms_ticks counter.
 */
void SysTick_Handler(void)
{
	++g_ms_ticks;
  401db0:	4a02      	ldr	r2, [pc, #8]	; (401dbc <SysTick_Handler+0xc>)
  401db2:	6813      	ldr	r3, [r2, #0]
  401db4:	3301      	adds	r3, #1
  401db6:	6013      	str	r3, [r2, #0]
  401db8:	4770      	bx	lr
  401dba:	bf00      	nop
  401dbc:	20400534 	.word	0x20400534

00401dc0 <time_tick_init>:
}

void time_tick_init(void)
{
	g_ms_ticks = 0;
  401dc0:	2200      	movs	r2, #0
  401dc2:	4b06      	ldr	r3, [pc, #24]	; (401ddc <time_tick_init+0x1c>)
  401dc4:	601a      	str	r2, [r3, #0]
 */
__STATIC_INLINE uint32_t SysTick_Config(uint32_t ticks)
{
  if ((ticks - 1) > SysTick_LOAD_RELOAD_Msk)  return (1);      /* Reload value impossible */

  SysTick->LOAD  = ticks - 1;                                  /* set reload register */
  401dc6:	4b06      	ldr	r3, [pc, #24]	; (401de0 <time_tick_init+0x20>)
  401dc8:	4906      	ldr	r1, [pc, #24]	; (401de4 <time_tick_init+0x24>)
  401dca:	6059      	str	r1, [r3, #4]
    SCB->SHPR[((uint32_t)(IRQn) & 0xF)-4] = ((priority << (8 - __NVIC_PRIO_BITS)) & 0xff); } /* set Priority for Cortex-M  System Interrupts */
  401dcc:	20e0      	movs	r0, #224	; 0xe0
  401dce:	4906      	ldr	r1, [pc, #24]	; (401de8 <time_tick_init+0x28>)
  401dd0:	f881 0023 	strb.w	r0, [r1, #35]	; 0x23
  NVIC_SetPriority (SysTick_IRQn, (1<<__NVIC_PRIO_BITS) - 1);  /* set Priority for Systick Interrupt */
  SysTick->VAL   = 0;                                          /* Load the SysTick Counter Value */
  401dd4:	609a      	str	r2, [r3, #8]
  SysTick->CTRL  = SysTick_CTRL_CLKSOURCE_Msk |
  401dd6:	2207      	movs	r2, #7
  401dd8:	601a      	str	r2, [r3, #0]
  401dda:	4770      	bx	lr
  401ddc:	20400534 	.word	0x20400534
  401de0:	e000e010 	.word	0xe000e010
  401de4:	0002327f 	.word	0x0002327f
  401de8:	e000ed00 	.word	0xe000ed00

00401dec <time_tick_get>:
	}
}

uint32_t time_tick_get(void)
{
	return g_ms_ticks;
  401dec:	4b01      	ldr	r3, [pc, #4]	; (401df4 <time_tick_get+0x8>)
  401dee:	6818      	ldr	r0, [r3, #0]
}
  401df0:	4770      	bx	lr
  401df2:	bf00      	nop
  401df4:	20400534 	.word	0x20400534

00401df8 <time_tick_calc_delay>:

uint32_t time_tick_calc_delay(uint32_t tick_start, uint32_t tick_end)
{
	if (tick_end >= tick_start) 
  401df8:	4281      	cmp	r1, r0
  401dfa:	d202      	bcs.n	401e02 <time_tick_calc_delay+0xa>
	}
	
	else 
	{
		/* In the case of 32-bit couter number overflow */
		return (tick_end + (0xFFFFFFFF - tick_start)) * (1000 / TICK_US);
  401dfc:	1a09      	subs	r1, r1, r0
  401dfe:	1e48      	subs	r0, r1, #1
	}
}
  401e00:	4770      	bx	lr
		return (tick_end - tick_start) * (1000 / TICK_US);
  401e02:	1a08      	subs	r0, r1, r0
  401e04:	4770      	bx	lr
	...

00401e08 <sysclk_init>:
	pmc_disable_udpck();
}
#endif // CONFIG_USBCLK_SOURCE

void sysclk_init(void)
{
  401e08:	b510      	push	{r4, lr}
	struct pll_config pllcfg;

	/* Set flash wait state to max in case the below clock switching. */
	system_init_flash(CHIP_FREQ_CPU_MAX);
  401e0a:	4810      	ldr	r0, [pc, #64]	; (401e4c <sysclk_init+0x44>)
  401e0c:	4b10      	ldr	r3, [pc, #64]	; (401e50 <sysclk_init+0x48>)
  401e0e:	4798      	blx	r3
		pmc_switch_mainck_to_fastrc(CKGR_MOR_MOSCRCF_12_MHz);
		break;


	case OSC_MAINCK_XTAL:
		pmc_switch_mainck_to_xtal(PMC_OSC_XTAL,
  401e10:	213e      	movs	r1, #62	; 0x3e
  401e12:	2000      	movs	r0, #0
  401e14:	4b0f      	ldr	r3, [pc, #60]	; (401e54 <sysclk_init+0x4c>)
  401e16:	4798      	blx	r3
	case OSC_MAINCK_4M_RC:
	case OSC_MAINCK_8M_RC:
	case OSC_MAINCK_12M_RC:
	case OSC_MAINCK_XTAL:
	case OSC_MAINCK_BYPASS:
		return pmc_osc_is_ready_mainck();
  401e18:	4c0f      	ldr	r4, [pc, #60]	; (401e58 <sysclk_init+0x50>)
  401e1a:	47a0      	blx	r4
 *
 * \param id A number identifying the oscillator to wait for.
 */
static inline void osc_wait_ready(uint8_t id)
{
	while (!osc_is_ready(id)) {
  401e1c:	2800      	cmp	r0, #0
  401e1e:	d0fc      	beq.n	401e1a <sysclk_init+0x12>
static inline void pll_enable(const struct pll_config *p_cfg, uint32_t ul_pll_id)
{
	Assert(ul_pll_id < NR_PLLS);

	if (ul_pll_id == PLLA_ID) {
		pmc_disable_pllack(); // Always stop PLL first!
  401e20:	4b0e      	ldr	r3, [pc, #56]	; (401e5c <sysclk_init+0x54>)
  401e22:	4798      	blx	r3
		PMC->CKGR_PLLAR = CKGR_PLLAR_ONE | p_cfg->ctrl;
  401e24:	4a0e      	ldr	r2, [pc, #56]	; (401e60 <sysclk_init+0x58>)
  401e26:	4b0f      	ldr	r3, [pc, #60]	; (401e64 <sysclk_init+0x5c>)
  401e28:	629a      	str	r2, [r3, #40]	; 0x28
static inline uint32_t pll_is_locked(uint32_t ul_pll_id)
{
	Assert(ul_pll_id < NR_PLLS);

	if (ul_pll_id == PLLA_ID) {
	return pmc_is_locked_pllack();
  401e2a:	4c0f      	ldr	r4, [pc, #60]	; (401e68 <sysclk_init+0x60>)
  401e2c:	47a0      	blx	r4
 */
static inline int pll_wait_for_lock(unsigned int pll_id)
{
	Assert(pll_id < NR_PLLS);

	while (!pll_is_locked(pll_id)) {
  401e2e:	2800      	cmp	r0, #0
  401e30:	d0fc      	beq.n	401e2c <sysclk_init+0x24>
	else if (CONFIG_SYSCLK_SOURCE == SYSCLK_SRC_PLLACK) {
		pll_enable_source(CONFIG_PLL0_SOURCE);
		pll_config_defaults(&pllcfg, 0);
		pll_enable(&pllcfg, 0);
		pll_wait_for_lock(0);
		pmc_mck_set_division(CONFIG_SYSCLK_DIV);
  401e32:	2002      	movs	r0, #2
  401e34:	4b0d      	ldr	r3, [pc, #52]	; (401e6c <sysclk_init+0x64>)
  401e36:	4798      	blx	r3
		pmc_switch_mck_to_pllack(CONFIG_SYSCLK_PRES);
  401e38:	2000      	movs	r0, #0
  401e3a:	4b0d      	ldr	r3, [pc, #52]	; (401e70 <sysclk_init+0x68>)
  401e3c:	4798      	blx	r3
		pll_wait_for_lock(1);
		pmc_mck_set_division(CONFIG_SYSCLK_DIV);
		pmc_switch_mck_to_upllck(CONFIG_SYSCLK_PRES);
	}
	/* Update the SystemFrequency variable */
	SystemCoreClockUpdate();
  401e3e:	4b0d      	ldr	r3, [pc, #52]	; (401e74 <sysclk_init+0x6c>)
  401e40:	4798      	blx	r3

	/* Set a flash wait state depending on the new cpu frequency */
	system_init_flash(sysclk_get_cpu_hz());
  401e42:	480d      	ldr	r0, [pc, #52]	; (401e78 <sysclk_init+0x70>)
  401e44:	4b02      	ldr	r3, [pc, #8]	; (401e50 <sysclk_init+0x48>)
  401e46:	4798      	blx	r3
  401e48:	bd10      	pop	{r4, pc}
  401e4a:	bf00      	nop
  401e4c:	11e1a300 	.word	0x11e1a300
  401e50:	00402349 	.word	0x00402349
  401e54:	00401f19 	.word	0x00401f19
  401e58:	00401f6d 	.word	0x00401f6d
  401e5c:	00401f7d 	.word	0x00401f7d
  401e60:	200b3f01 	.word	0x200b3f01
  401e64:	400e0600 	.word	0x400e0600
  401e68:	00401f8d 	.word	0x00401f8d
  401e6c:	00401e7d 	.word	0x00401e7d
  401e70:	00401eb5 	.word	0x00401eb5
  401e74:	0040223d 	.word	0x0040223d
  401e78:	08954400 	.word	0x08954400

00401e7c <pmc_mck_set_division>:
 *
 * \param ul_div Division value.
 */
void pmc_mck_set_division(uint32_t ul_div)
{
	switch (ul_div) {
  401e7c:	2803      	cmp	r0, #3
  401e7e:	d011      	beq.n	401ea4 <pmc_mck_set_division+0x28>
  401e80:	2804      	cmp	r0, #4
  401e82:	d012      	beq.n	401eaa <pmc_mck_set_division+0x2e>
		case 1:
			ul_div = PMC_MCKR_MDIV_EQ_PCK;
  401e84:	2802      	cmp	r0, #2
  401e86:	bf0c      	ite	eq
  401e88:	f44f 7180 	moveq.w	r1, #256	; 0x100
  401e8c:	2100      	movne	r1, #0
		default:
			ul_div = PMC_MCKR_MDIV_EQ_PCK;
			break;
	}
	PMC->PMC_MCKR =
			(PMC->PMC_MCKR & (~PMC_MCKR_MDIV_Msk)) | ul_div;
  401e8e:	4a08      	ldr	r2, [pc, #32]	; (401eb0 <pmc_mck_set_division+0x34>)
  401e90:	6b13      	ldr	r3, [r2, #48]	; 0x30
  401e92:	f423 7340 	bic.w	r3, r3, #768	; 0x300
  401e96:	430b      	orrs	r3, r1
	PMC->PMC_MCKR =
  401e98:	6313      	str	r3, [r2, #48]	; 0x30
	while (!(PMC->PMC_SR & PMC_SR_MCKRDY));
  401e9a:	6e93      	ldr	r3, [r2, #104]	; 0x68
  401e9c:	f013 0f08 	tst.w	r3, #8
  401ea0:	d0fb      	beq.n	401e9a <pmc_mck_set_division+0x1e>
}
  401ea2:	4770      	bx	lr
			ul_div = PMC_MCKR_MDIV_PCK_DIV3;
  401ea4:	f44f 7140 	mov.w	r1, #768	; 0x300
			break;
  401ea8:	e7f1      	b.n	401e8e <pmc_mck_set_division+0x12>
			ul_div = PMC_MCKR_MDIV_PCK_DIV4;
  401eaa:	f44f 7100 	mov.w	r1, #512	; 0x200
			break;
  401eae:	e7ee      	b.n	401e8e <pmc_mck_set_division+0x12>
  401eb0:	400e0600 	.word	0x400e0600

00401eb4 <pmc_switch_mck_to_pllack>:
 */
uint32_t pmc_switch_mck_to_pllack(uint32_t ul_pres)
{
	uint32_t ul_timeout;

	PMC->PMC_MCKR = (PMC->PMC_MCKR & (~PMC_MCKR_PRES_Msk)) | ul_pres;
  401eb4:	4a17      	ldr	r2, [pc, #92]	; (401f14 <pmc_switch_mck_to_pllack+0x60>)
  401eb6:	6b13      	ldr	r3, [r2, #48]	; 0x30
  401eb8:	f023 0370 	bic.w	r3, r3, #112	; 0x70
  401ebc:	4318      	orrs	r0, r3
  401ebe:	6310      	str	r0, [r2, #48]	; 0x30
	for (ul_timeout = PMC_TIMEOUT; !(PMC->PMC_SR & PMC_SR_MCKRDY);
  401ec0:	6e93      	ldr	r3, [r2, #104]	; 0x68
  401ec2:	f013 0f08 	tst.w	r3, #8
  401ec6:	d10a      	bne.n	401ede <pmc_switch_mck_to_pllack+0x2a>
  401ec8:	f44f 5380 	mov.w	r3, #4096	; 0x1000
  401ecc:	4911      	ldr	r1, [pc, #68]	; (401f14 <pmc_switch_mck_to_pllack+0x60>)
  401ece:	6e8a      	ldr	r2, [r1, #104]	; 0x68
  401ed0:	f012 0f08 	tst.w	r2, #8
  401ed4:	d103      	bne.n	401ede <pmc_switch_mck_to_pllack+0x2a>
			--ul_timeout) {
		if (ul_timeout == 0) {
  401ed6:	3b01      	subs	r3, #1
  401ed8:	d1f9      	bne.n	401ece <pmc_switch_mck_to_pllack+0x1a>
			return 1;
  401eda:	2001      	movs	r0, #1
  401edc:	4770      	bx	lr
		}
	}

	PMC->PMC_MCKR = (PMC->PMC_MCKR & (~PMC_MCKR_CSS_Msk)) |
  401ede:	4a0d      	ldr	r2, [pc, #52]	; (401f14 <pmc_switch_mck_to_pllack+0x60>)
  401ee0:	6b13      	ldr	r3, [r2, #48]	; 0x30
  401ee2:	f023 0303 	bic.w	r3, r3, #3
  401ee6:	f043 0302 	orr.w	r3, r3, #2
  401eea:	6313      	str	r3, [r2, #48]	; 0x30
			PMC_MCKR_CSS_PLLA_CLK;

	for (ul_timeout = PMC_TIMEOUT; !(PMC->PMC_SR & PMC_SR_MCKRDY);
  401eec:	6e93      	ldr	r3, [r2, #104]	; 0x68
  401eee:	f013 0f08 	tst.w	r3, #8
  401ef2:	d10a      	bne.n	401f0a <pmc_switch_mck_to_pllack+0x56>
  401ef4:	f44f 5380 	mov.w	r3, #4096	; 0x1000
  401ef8:	4906      	ldr	r1, [pc, #24]	; (401f14 <pmc_switch_mck_to_pllack+0x60>)
  401efa:	6e8a      	ldr	r2, [r1, #104]	; 0x68
  401efc:	f012 0f08 	tst.w	r2, #8
  401f00:	d105      	bne.n	401f0e <pmc_switch_mck_to_pllack+0x5a>
			--ul_timeout) {
		if (ul_timeout == 0) {
  401f02:	3b01      	subs	r3, #1
  401f04:	d1f9      	bne.n	401efa <pmc_switch_mck_to_pllack+0x46>
			return 1;
  401f06:	2001      	movs	r0, #1
		}
	}

	return 0;
}
  401f08:	4770      	bx	lr
	return 0;
  401f0a:	2000      	movs	r0, #0
  401f0c:	4770      	bx	lr
  401f0e:	2000      	movs	r0, #0
  401f10:	4770      	bx	lr
  401f12:	bf00      	nop
  401f14:	400e0600 	.word	0x400e0600

00401f18 <pmc_switch_mainck_to_xtal>:
 */
void pmc_switch_mainck_to_xtal(uint32_t ul_bypass,
		uint32_t ul_xtal_startup_time)
{
	/* Enable Main Xtal oscillator */
	if (ul_bypass) {
  401f18:	b9a0      	cbnz	r0, 401f44 <pmc_switch_mainck_to_xtal+0x2c>
		PMC->CKGR_MOR = (PMC->CKGR_MOR & ~CKGR_MOR_MOSCXTEN) |
				CKGR_MOR_KEY_PASSWD | CKGR_MOR_MOSCXTBY |
				CKGR_MOR_MOSCSEL;
	} else {
		PMC->CKGR_MOR = (PMC->CKGR_MOR & ~CKGR_MOR_MOSCXTBY) |
  401f1a:	480e      	ldr	r0, [pc, #56]	; (401f54 <pmc_switch_mainck_to_xtal+0x3c>)
  401f1c:	6a03      	ldr	r3, [r0, #32]
				CKGR_MOR_KEY_PASSWD | CKGR_MOR_MOSCXTEN |
				CKGR_MOR_MOSCXTST(ul_xtal_startup_time);
  401f1e:	0209      	lsls	r1, r1, #8
  401f20:	b289      	uxth	r1, r1
				CKGR_MOR_KEY_PASSWD | CKGR_MOR_MOSCXTEN |
  401f22:	4a0d      	ldr	r2, [pc, #52]	; (401f58 <pmc_switch_mainck_to_xtal+0x40>)
  401f24:	401a      	ands	r2, r3
  401f26:	4b0d      	ldr	r3, [pc, #52]	; (401f5c <pmc_switch_mainck_to_xtal+0x44>)
  401f28:	4313      	orrs	r3, r2
  401f2a:	4319      	orrs	r1, r3
		PMC->CKGR_MOR = (PMC->CKGR_MOR & ~CKGR_MOR_MOSCXTBY) |
  401f2c:	6201      	str	r1, [r0, #32]
		/* Wait the Xtal to stabilize */
		while (!(PMC->PMC_SR & PMC_SR_MOSCXTS));
  401f2e:	4602      	mov	r2, r0
  401f30:	6e93      	ldr	r3, [r2, #104]	; 0x68
  401f32:	f013 0f01 	tst.w	r3, #1
  401f36:	d0fb      	beq.n	401f30 <pmc_switch_mainck_to_xtal+0x18>

		PMC->CKGR_MOR |= CKGR_MOR_KEY_PASSWD | CKGR_MOR_MOSCSEL;
  401f38:	4a06      	ldr	r2, [pc, #24]	; (401f54 <pmc_switch_mainck_to_xtal+0x3c>)
  401f3a:	6a11      	ldr	r1, [r2, #32]
  401f3c:	4b08      	ldr	r3, [pc, #32]	; (401f60 <pmc_switch_mainck_to_xtal+0x48>)
  401f3e:	430b      	orrs	r3, r1
  401f40:	6213      	str	r3, [r2, #32]
  401f42:	4770      	bx	lr
		PMC->CKGR_MOR = (PMC->CKGR_MOR & ~CKGR_MOR_MOSCXTEN) |
  401f44:	4903      	ldr	r1, [pc, #12]	; (401f54 <pmc_switch_mainck_to_xtal+0x3c>)
  401f46:	6a0b      	ldr	r3, [r1, #32]
				CKGR_MOR_KEY_PASSWD | CKGR_MOR_MOSCXTBY |
  401f48:	4a06      	ldr	r2, [pc, #24]	; (401f64 <pmc_switch_mainck_to_xtal+0x4c>)
  401f4a:	401a      	ands	r2, r3
  401f4c:	4b06      	ldr	r3, [pc, #24]	; (401f68 <pmc_switch_mainck_to_xtal+0x50>)
  401f4e:	4313      	orrs	r3, r2
		PMC->CKGR_MOR = (PMC->CKGR_MOR & ~CKGR_MOR_MOSCXTEN) |
  401f50:	620b      	str	r3, [r1, #32]
  401f52:	4770      	bx	lr
  401f54:	400e0600 	.word	0x400e0600
  401f58:	ffc8fffc 	.word	0xffc8fffc
  401f5c:	00370001 	.word	0x00370001
  401f60:	01370000 	.word	0x01370000
  401f64:	fec8fffc 	.word	0xfec8fffc
  401f68:	01370002 	.word	0x01370002

00401f6c <pmc_osc_is_ready_mainck>:
 * \retval 1 Xtal is ready.
 * \retval 0 Xtal is not ready.
 */
uint32_t pmc_osc_is_ready_mainck(void)
{
	return PMC->PMC_SR & PMC_SR_MOSCSELS;
  401f6c:	4b02      	ldr	r3, [pc, #8]	; (401f78 <pmc_osc_is_ready_mainck+0xc>)
  401f6e:	6e98      	ldr	r0, [r3, #104]	; 0x68
}
  401f70:	f400 3080 	and.w	r0, r0, #65536	; 0x10000
  401f74:	4770      	bx	lr
  401f76:	bf00      	nop
  401f78:	400e0600 	.word	0x400e0600

00401f7c <pmc_disable_pllack>:
void pmc_disable_pllack(void)
{
#if (SAM4C || SAM4CM || SAM4CP || SAMG)
	PMC->CKGR_PLLAR = CKGR_PLLAR_MULA(0);
#else
	PMC->CKGR_PLLAR = CKGR_PLLAR_ONE | CKGR_PLLAR_MULA(0);
  401f7c:	f04f 5200 	mov.w	r2, #536870912	; 0x20000000
  401f80:	4b01      	ldr	r3, [pc, #4]	; (401f88 <pmc_disable_pllack+0xc>)
  401f82:	629a      	str	r2, [r3, #40]	; 0x28
  401f84:	4770      	bx	lr
  401f86:	bf00      	nop
  401f88:	400e0600 	.word	0x400e0600

00401f8c <pmc_is_locked_pllack>:
 * \retval 0 Not locked.
 * \retval 1 Locked.
 */
uint32_t pmc_is_locked_pllack(void)
{
	return (PMC->PMC_SR & PMC_SR_LOCKA);
  401f8c:	4b02      	ldr	r3, [pc, #8]	; (401f98 <pmc_is_locked_pllack+0xc>)
  401f8e:	6e98      	ldr	r0, [r3, #104]	; 0x68
}
  401f90:	f000 0002 	and.w	r0, r0, #2
  401f94:	4770      	bx	lr
  401f96:	bf00      	nop
  401f98:	400e0600 	.word	0x400e0600

00401f9c <pmc_enable_periph_clk>:
 * \retval 0 Success.
 * \retval 1 Invalid parameter.
 */
uint32_t pmc_enable_periph_clk(uint32_t ul_id)
{
	if (ul_id > MAX_PERIPH_ID) {
  401f9c:	283f      	cmp	r0, #63	; 0x3f
  401f9e:	d81e      	bhi.n	401fde <pmc_enable_periph_clk+0x42>
		return 1;
	}

	if (ul_id < 32) {
  401fa0:	281f      	cmp	r0, #31
  401fa2:	d80c      	bhi.n	401fbe <pmc_enable_periph_clk+0x22>
		if ((PMC->PMC_PCSR0 & (1u << ul_id)) != (1u << ul_id)) {
  401fa4:	4b11      	ldr	r3, [pc, #68]	; (401fec <pmc_enable_periph_clk+0x50>)
  401fa6:	699a      	ldr	r2, [r3, #24]
  401fa8:	2301      	movs	r3, #1
  401faa:	4083      	lsls	r3, r0
  401fac:	4393      	bics	r3, r2
  401fae:	d018      	beq.n	401fe2 <pmc_enable_periph_clk+0x46>
			PMC->PMC_PCER0 = 1 << ul_id;
  401fb0:	2301      	movs	r3, #1
  401fb2:	fa03 f000 	lsl.w	r0, r3, r0
  401fb6:	4b0d      	ldr	r3, [pc, #52]	; (401fec <pmc_enable_periph_clk+0x50>)
  401fb8:	6118      	str	r0, [r3, #16]
			PMC->PMC_PCER1 = 1 << ul_id;
		}
#endif
	}

	return 0;
  401fba:	2000      	movs	r0, #0
  401fbc:	4770      	bx	lr
		ul_id -= 32;
  401fbe:	3820      	subs	r0, #32
		if ((PMC->PMC_PCSR1 & (1u << ul_id)) != (1u << ul_id)) {
  401fc0:	4b0a      	ldr	r3, [pc, #40]	; (401fec <pmc_enable_periph_clk+0x50>)
  401fc2:	f8d3 2108 	ldr.w	r2, [r3, #264]	; 0x108
  401fc6:	2301      	movs	r3, #1
  401fc8:	4083      	lsls	r3, r0
  401fca:	4393      	bics	r3, r2
  401fcc:	d00b      	beq.n	401fe6 <pmc_enable_periph_clk+0x4a>
			PMC->PMC_PCER1 = 1 << ul_id;
  401fce:	2301      	movs	r3, #1
  401fd0:	fa03 f000 	lsl.w	r0, r3, r0
  401fd4:	4b05      	ldr	r3, [pc, #20]	; (401fec <pmc_enable_periph_clk+0x50>)
  401fd6:	f8c3 0100 	str.w	r0, [r3, #256]	; 0x100
	return 0;
  401fda:	2000      	movs	r0, #0
  401fdc:	4770      	bx	lr
		return 1;
  401fde:	2001      	movs	r0, #1
  401fe0:	4770      	bx	lr
	return 0;
  401fe2:	2000      	movs	r0, #0
  401fe4:	4770      	bx	lr
  401fe6:	2000      	movs	r0, #0
}
  401fe8:	4770      	bx	lr
  401fea:	bf00      	nop
  401fec:	400e0600 	.word	0x400e0600

00401ff0 <twihs_set_speed>:
{
	uint32_t ckdiv = 0;
	uint32_t c_lh_div;

	/* High-Speed can be only used in slave mode, 400k is the max speed allowed for master */
	if (ul_speed > I2C_FAST_MODE_SPEED) {
  401ff0:	4b10      	ldr	r3, [pc, #64]	; (402034 <twihs_set_speed+0x44>)
  401ff2:	4299      	cmp	r1, r3
  401ff4:	d81b      	bhi.n	40202e <twihs_set_speed+0x3e>
		return FAIL;
	}

	c_lh_div = ul_mck / (ul_speed * TWIHS_CLK_DIVIDER) - TWIHS_CLK_CALC_ARGU;
  401ff6:	0049      	lsls	r1, r1, #1
  401ff8:	fbb2 f2f1 	udiv	r2, r2, r1
  401ffc:	3a04      	subs	r2, #4

	/* cldiv must fit in 8 bits, ckdiv must fit in 3 bits */
	while ((c_lh_div > TWIHS_CLK_DIV_MAX) && (ckdiv < TWIHS_CLK_DIV_MIN)) {
  401ffe:	2aff      	cmp	r2, #255	; 0xff
  402000:	d913      	bls.n	40202a <twihs_set_speed+0x3a>
  402002:	2300      	movs	r3, #0
		/* Increase clock divider */
		ckdiv++;
  402004:	3301      	adds	r3, #1
		/* Divide cldiv value */
		c_lh_div /= TWIHS_CLK_DIVIDER;
  402006:	0852      	lsrs	r2, r2, #1
	while ((c_lh_div > TWIHS_CLK_DIV_MAX) && (ckdiv < TWIHS_CLK_DIV_MIN)) {
  402008:	2aff      	cmp	r2, #255	; 0xff
  40200a:	d901      	bls.n	402010 <twihs_set_speed+0x20>
  40200c:	2b06      	cmp	r3, #6
  40200e:	d9f9      	bls.n	402004 <twihs_set_speed+0x14>
	}

	/* set clock waveform generator register */
	p_twihs->TWIHS_CWGR =
			TWIHS_CWGR_CLDIV(c_lh_div) | TWIHS_CWGR_CHDIV(c_lh_div) |
  402010:	b2d1      	uxtb	r1, r2
			TWIHS_CWGR_CKDIV(ckdiv)|TWIHS_CWGR_HOLD(60);
  402012:	f041 51e0 	orr.w	r1, r1, #469762048	; 0x1c000000
			TWIHS_CWGR_CLDIV(c_lh_div) | TWIHS_CWGR_CHDIV(c_lh_div) |
  402016:	0212      	lsls	r2, r2, #8
  402018:	b292      	uxth	r2, r2
			TWIHS_CWGR_CKDIV(ckdiv)|TWIHS_CWGR_HOLD(60);
  40201a:	430a      	orrs	r2, r1
  40201c:	041b      	lsls	r3, r3, #16
  40201e:	f403 23e0 	and.w	r3, r3, #458752	; 0x70000
  402022:	4313      	orrs	r3, r2
	p_twihs->TWIHS_CWGR =
  402024:	6103      	str	r3, [r0, #16]

	return PASS;
  402026:	2000      	movs	r0, #0
  402028:	4770      	bx	lr
	uint32_t ckdiv = 0;
  40202a:	2300      	movs	r3, #0
  40202c:	e7f0      	b.n	402010 <twihs_set_speed+0x20>
		return FAIL;
  40202e:	2001      	movs	r0, #1
}
  402030:	4770      	bx	lr
  402032:	bf00      	nop
  402034:	00061a80 	.word	0x00061a80

00402038 <twihs_master_init>:
{
  402038:	b508      	push	{r3, lr}
	p_twihs->TWIHS_IDR = ~0UL;
  40203a:	f04f 32ff 	mov.w	r2, #4294967295
  40203e:	6282      	str	r2, [r0, #40]	; 0x28
	p_twihs->TWIHS_SR;
  402040:	6a02      	ldr	r2, [r0, #32]
 * \param p_twihs Pointer to a TWIHS instance.
 */
void twihs_reset(Twihs *p_twihs)
{
	/* Set SWRST bit to reset TWIHS peripheral */
	p_twihs->TWIHS_CR = TWIHS_CR_SWRST;
  402042:	2280      	movs	r2, #128	; 0x80
  402044:	6002      	str	r2, [r0, #0]
	p_twihs->TWIHS_RHR;
  402046:	6b02      	ldr	r2, [r0, #48]	; 0x30
	p_twihs->TWIHS_CR = TWIHS_CR_MSDIS;
  402048:	2208      	movs	r2, #8
  40204a:	6002      	str	r2, [r0, #0]
	p_twihs->TWIHS_CR = TWIHS_CR_SVDIS;
  40204c:	2220      	movs	r2, #32
  40204e:	6002      	str	r2, [r0, #0]
	p_twihs->TWIHS_CR = TWIHS_CR_MSEN;
  402050:	2204      	movs	r2, #4
  402052:	6002      	str	r2, [r0, #0]
	if (twihs_set_speed(p_twihs, p_opt->speed, p_opt->master_clk) == FAIL) {
  402054:	680a      	ldr	r2, [r1, #0]
  402056:	6849      	ldr	r1, [r1, #4]
  402058:	4b03      	ldr	r3, [pc, #12]	; (402068 <twihs_master_init+0x30>)
  40205a:	4798      	blx	r3
}
  40205c:	2801      	cmp	r0, #1
  40205e:	bf14      	ite	ne
  402060:	2000      	movne	r0, #0
  402062:	2001      	moveq	r0, #1
  402064:	bd08      	pop	{r3, pc}
  402066:	bf00      	nop
  402068:	00401ff1 	.word	0x00401ff1

0040206c <xdmac_configure_transfer>:
  40206c:	eb00 1181 	add.w	r1, r0, r1, lsl #6
  402070:	6dcb      	ldr	r3, [r1, #92]	; 0x5c
	Assert(xdmac);
	Assert(channel_num < XDMACCHID_NUMBER);
	Assert(cfg);
	
	xdmac_channel_get_interrupt_status( xdmac, channel_num);
	xdmac_channel_set_source_addr(xdmac, channel_num, cfg->mbr_sa);
  402072:	6853      	ldr	r3, [r2, #4]
 */
static inline void xdmac_channel_set_source_addr(Xdmac *xdmac, uint32_t channel_num, uint32_t src_addr)
{
	Assert(xdmac);
	Assert(channel_num < XDMACCHID_NUMBER);
	xdmac->XDMAC_CHID[channel_num].XDMAC_CSA = src_addr;
  402074:	660b      	str	r3, [r1, #96]	; 0x60
	xdmac_channel_set_destination_addr(xdmac, channel_num, cfg->mbr_da);
  402076:	6893      	ldr	r3, [r2, #8]
 */
static inline void xdmac_channel_set_destination_addr(Xdmac *xdmac, uint32_t channel_num, uint32_t dst_addr)
{
	Assert(xdmac);
	Assert(channel_num < XDMACCHID_NUMBER);
	xdmac->XDMAC_CHID[channel_num].XDMAC_CDA = dst_addr;
  402078:	664b      	str	r3, [r1, #100]	; 0x64
 */
static inline void xdmac_channel_set_microblock_control(Xdmac *xdmac, uint32_t channel_num, uint32_t ublen)
{
	Assert(xdmac);
	Assert(channel_num < XDMACCHID_NUMBER);
	xdmac->XDMAC_CHID[channel_num].XDMAC_CUBC = XDMAC_CUBC_UBLEN(ublen);
  40207a:	6813      	ldr	r3, [r2, #0]
  40207c:	f023 437f 	bic.w	r3, r3, #4278190080	; 0xff000000
  402080:	670b      	str	r3, [r1, #112]	; 0x70
 */
static inline void xdmac_channel_set_block_control(Xdmac *xdmac, uint32_t channel_num, uint32_t blen)
{
	Assert(xdmac);
	Assert(channel_num < XDMACCHID_NUMBER);
	xdmac->XDMAC_CHID[channel_num].XDMAC_CBC = XDMAC_CBC_BLEN(blen);
  402082:	6913      	ldr	r3, [r2, #16]
  402084:	f3c3 030b 	ubfx	r3, r3, #0, #12
  402088:	674b      	str	r3, [r1, #116]	; 0x74
	xdmac_channel_set_microblock_control(xdmac, channel_num, cfg->mbr_ubc);
	xdmac_channel_set_block_control(xdmac, channel_num, cfg->mbr_bc);
	xdmac_channel_set_datastride_mempattern(xdmac, channel_num, cfg->mbr_ds);
  40208a:	6953      	ldr	r3, [r2, #20]
 */
static inline void xdmac_channel_set_datastride_mempattern(Xdmac *xdmac, uint32_t channel_num, uint32_t dds_msp)
{
	Assert(xdmac);
	Assert(channel_num < XDMACCHID_NUMBER);
	xdmac->XDMAC_CHID[channel_num].XDMAC_CDS_MSP = dds_msp;
  40208c:	67cb      	str	r3, [r1, #124]	; 0x7c
static inline void xdmac_channel_set_source_microblock_stride(Xdmac *xdmac,
		uint32_t channel_num, uint32_t subs)
{
	Assert(xdmac);
	Assert(channel_num < XDMACCHID_NUMBER);
	xdmac->XDMAC_CHID[channel_num].XDMAC_CSUS = XDMAC_CSUS_SUBS(subs);
  40208e:	6993      	ldr	r3, [r2, #24]
  402090:	f023 437f 	bic.w	r3, r3, #4278190080	; 0xff000000
  402094:	f8c1 3080 	str.w	r3, [r1, #128]	; 0x80
static inline void xdmac_channel_set_destination_microblock_stride(Xdmac *xdmac,
		uint32_t channel_num, uint32_t dubs)
{
	Assert(xdmac);
	Assert(channel_num < XDMACCHID_NUMBER);
	xdmac->XDMAC_CHID[channel_num].XDMAC_CDUS = XDMAC_CDUS_DUBS(dubs);
  402098:	69d3      	ldr	r3, [r2, #28]
  40209a:	f023 437f 	bic.w	r3, r3, #4278190080	; 0xff000000
  40209e:	f8c1 3084 	str.w	r3, [r1, #132]	; 0x84
	xdmac_channel_set_source_microblock_stride(xdmac, channel_num, cfg->mbr_sus);
	xdmac_channel_set_destination_microblock_stride(xdmac, channel_num, cfg->mbr_dus);
	xdmac_channel_set_config(xdmac, channel_num, cfg->mbr_cfg );
  4020a2:	68d3      	ldr	r3, [r2, #12]
	xdmac->XDMAC_CHID[channel_num].XDMAC_CC = config;
  4020a4:	678b      	str	r3, [r1, #120]	; 0x78
  4020a6:	4770      	bx	lr

004020a8 <board_init>:
		base->PIO_PUDR = mask;
  4020a8:	4b33      	ldr	r3, [pc, #204]	; (402178 <board_init+0xd0>)
  4020aa:	f04f 5280 	mov.w	r2, #268435456	; 0x10000000
  4020ae:	661a      	str	r2, [r3, #96]	; 0x60
		base->PIO_PPDDR = mask;
  4020b0:	f8c3 2090 	str.w	r2, [r3, #144]	; 0x90
		base->PIO_MDDR = mask;
  4020b4:	655a      	str	r2, [r3, #84]	; 0x54
		base->PIO_IFDR = mask;
  4020b6:	625a      	str	r2, [r3, #36]	; 0x24
		base->PIO_IFSCDR = mask;
  4020b8:	f8c3 2080 	str.w	r2, [r3, #128]	; 0x80
		base->PIO_ABCDSR[0] &= ~mask;
  4020bc:	6f19      	ldr	r1, [r3, #112]	; 0x70
  4020be:	f021 5180 	bic.w	r1, r1, #268435456	; 0x10000000
  4020c2:	6719      	str	r1, [r3, #112]	; 0x70
		base->PIO_ABCDSR[1] |= mask;
  4020c4:	6f59      	ldr	r1, [r3, #116]	; 0x74
  4020c6:	4311      	orrs	r1, r2
  4020c8:	6759      	str	r1, [r3, #116]	; 0x74
	arch_ioport_port_to_base(port)->PIO_PDR = mask;
  4020ca:	605a      	str	r2, [r3, #4]
		base->PIO_PUDR = mask;
  4020cc:	f04f 7200 	mov.w	r2, #33554432	; 0x2000000
  4020d0:	661a      	str	r2, [r3, #96]	; 0x60
		base->PIO_PPDDR = mask;
  4020d2:	f8c3 2090 	str.w	r2, [r3, #144]	; 0x90
		base->PIO_MDDR = mask;
  4020d6:	655a      	str	r2, [r3, #84]	; 0x54
		base->PIO_IFDR = mask;
  4020d8:	625a      	str	r2, [r3, #36]	; 0x24
		base->PIO_IFSCDR = mask;
  4020da:	f8c3 2080 	str.w	r2, [r3, #128]	; 0x80
		base->PIO_ABCDSR[0] |= mask;
  4020de:	6f19      	ldr	r1, [r3, #112]	; 0x70
  4020e0:	4311      	orrs	r1, r2
  4020e2:	6719      	str	r1, [r3, #112]	; 0x70
		base->PIO_ABCDSR[1] |= mask;
  4020e4:	6f59      	ldr	r1, [r3, #116]	; 0x74
  4020e6:	4311      	orrs	r1, r2
  4020e8:	6759      	str	r1, [r3, #116]	; 0x74
	arch_ioport_port_to_base(port)->PIO_PDR = mask;
  4020ea:	605a      	str	r2, [r3, #4]
		base->PIO_PUDR = mask;
  4020ec:	f04f 4280 	mov.w	r2, #1073741824	; 0x40000000
  4020f0:	661a      	str	r2, [r3, #96]	; 0x60
		base->PIO_PPDDR = mask;
  4020f2:	f8c3 2090 	str.w	r2, [r3, #144]	; 0x90
		base->PIO_MDDR = mask;
  4020f6:	655a      	str	r2, [r3, #84]	; 0x54
		base->PIO_IFDR = mask;
  4020f8:	625a      	str	r2, [r3, #36]	; 0x24
		base->PIO_IFSCDR = mask;
  4020fa:	f8c3 2080 	str.w	r2, [r3, #128]	; 0x80
		base->PIO_ABCDSR[0] &= ~mask;
  4020fe:	6f19      	ldr	r1, [r3, #112]	; 0x70
  402100:	f021 4180 	bic.w	r1, r1, #1073741824	; 0x40000000
  402104:	6719      	str	r1, [r3, #112]	; 0x70
		base->PIO_ABCDSR[1] |= mask;
  402106:	6f59      	ldr	r1, [r3, #116]	; 0x74
  402108:	4311      	orrs	r1, r2
  40210a:	6759      	str	r1, [r3, #116]	; 0x74
	arch_ioport_port_to_base(port)->PIO_PDR = mask;
  40210c:	605a      	str	r2, [r3, #4]
		base->PIO_PUDR = mask;
  40210e:	f04f 4200 	mov.w	r2, #2147483648	; 0x80000000
  402112:	661a      	str	r2, [r3, #96]	; 0x60
		base->PIO_PPDDR = mask;
  402114:	f8c3 2090 	str.w	r2, [r3, #144]	; 0x90
		base->PIO_MDDR = mask;
  402118:	655a      	str	r2, [r3, #84]	; 0x54
		base->PIO_IFDR = mask;
  40211a:	625a      	str	r2, [r3, #36]	; 0x24
		base->PIO_IFSCDR = mask;
  40211c:	f8c3 2080 	str.w	r2, [r3, #128]	; 0x80
		base->PIO_ABCDSR[0] &= ~mask;
  402120:	6f19      	ldr	r1, [r3, #112]	; 0x70
  402122:	f021 4100 	bic.w	r1, r1, #2147483648	; 0x80000000
  402126:	6719      	str	r1, [r3, #112]	; 0x70
		base->PIO_ABCDSR[1] |= mask;
  402128:	6f59      	ldr	r1, [r3, #116]	; 0x74
  40212a:	4311      	orrs	r1, r2
  40212c:	6759      	str	r1, [r3, #116]	; 0x74
	arch_ioport_port_to_base(port)->PIO_PDR = mask;
  40212e:	605a      	str	r2, [r3, #4]
		base->PIO_PUDR = mask;
  402130:	f04f 6280 	mov.w	r2, #67108864	; 0x4000000
  402134:	661a      	str	r2, [r3, #96]	; 0x60
		base->PIO_PPDDR = mask;
  402136:	f8c3 2090 	str.w	r2, [r3, #144]	; 0x90
		base->PIO_MDDR = mask;
  40213a:	655a      	str	r2, [r3, #84]	; 0x54
		base->PIO_IFDR = mask;
  40213c:	625a      	str	r2, [r3, #36]	; 0x24
		base->PIO_IFSCDR = mask;
  40213e:	f8c3 2080 	str.w	r2, [r3, #128]	; 0x80
		base->PIO_ABCDSR[0] &= ~mask;
  402142:	6f19      	ldr	r1, [r3, #112]	; 0x70
  402144:	f021 6180 	bic.w	r1, r1, #67108864	; 0x4000000
  402148:	6719      	str	r1, [r3, #112]	; 0x70
		base->PIO_ABCDSR[1] |= mask;
  40214a:	6f59      	ldr	r1, [r3, #116]	; 0x74
  40214c:	4311      	orrs	r1, r2
  40214e:	6759      	str	r1, [r3, #116]	; 0x74
	arch_ioport_port_to_base(port)->PIO_PDR = mask;
  402150:	605a      	str	r2, [r3, #4]
		base->PIO_PUDR = mask;
  402152:	f04f 6200 	mov.w	r2, #134217728	; 0x8000000
  402156:	661a      	str	r2, [r3, #96]	; 0x60
		base->PIO_PPDDR = mask;
  402158:	f8c3 2090 	str.w	r2, [r3, #144]	; 0x90
		base->PIO_MDDR = mask;
  40215c:	655a      	str	r2, [r3, #84]	; 0x54
		base->PIO_IFDR = mask;
  40215e:	625a      	str	r2, [r3, #36]	; 0x24
		base->PIO_IFSCDR = mask;
  402160:	f8c3 2080 	str.w	r2, [r3, #128]	; 0x80
		base->PIO_ABCDSR[0] &= ~mask;
  402164:	6f19      	ldr	r1, [r3, #112]	; 0x70
  402166:	f021 6100 	bic.w	r1, r1, #134217728	; 0x8000000
  40216a:	6719      	str	r1, [r3, #112]	; 0x70
		base->PIO_ABCDSR[1] |= mask;
  40216c:	6f59      	ldr	r1, [r3, #116]	; 0x74
  40216e:	4311      	orrs	r1, r2
  402170:	6759      	str	r1, [r3, #116]	; 0x74
	arch_ioport_port_to_base(port)->PIO_PDR = mask;
  402172:	605a      	str	r2, [r3, #4]
  402174:	4770      	bx	lr
  402176:	bf00      	nop
  402178:	400e0e00 	.word	0x400e0e00

0040217c <Dummy_Handler>:

/**
 * \brief Default interrupt handler for unused IRQs.
 */
void Dummy_Handler(void)
{
  40217c:	e7fe      	b.n	40217c <Dummy_Handler>
	...

00402180 <Reset_Handler>:
{
  402180:	b508      	push	{r3, lr}
        if (pSrc != pDest) {
  402182:	4b23      	ldr	r3, [pc, #140]	; (402210 <Reset_Handler+0x90>)
  402184:	4a23      	ldr	r2, [pc, #140]	; (402214 <Reset_Handler+0x94>)
  402186:	429a      	cmp	r2, r3
  402188:	d010      	beq.n	4021ac <Reset_Handler+0x2c>
                for (; pDest < &_erelocate;) {
  40218a:	4b23      	ldr	r3, [pc, #140]	; (402218 <Reset_Handler+0x98>)
  40218c:	4a20      	ldr	r2, [pc, #128]	; (402210 <Reset_Handler+0x90>)
  40218e:	429a      	cmp	r2, r3
  402190:	d20c      	bcs.n	4021ac <Reset_Handler+0x2c>
  402192:	3b01      	subs	r3, #1
  402194:	1a9b      	subs	r3, r3, r2
  402196:	f023 0303 	bic.w	r3, r3, #3
  40219a:	3304      	adds	r3, #4
  40219c:	4413      	add	r3, r2
  40219e:	491d      	ldr	r1, [pc, #116]	; (402214 <Reset_Handler+0x94>)
                        *pDest++ = *pSrc++;
  4021a0:	f851 0b04 	ldr.w	r0, [r1], #4
  4021a4:	f842 0b04 	str.w	r0, [r2], #4
                for (; pDest < &_erelocate;) {
  4021a8:	429a      	cmp	r2, r3
  4021aa:	d1f9      	bne.n	4021a0 <Reset_Handler+0x20>
        for (pDest = &_szero; pDest < &_ezero;) {
  4021ac:	4b1b      	ldr	r3, [pc, #108]	; (40221c <Reset_Handler+0x9c>)
  4021ae:	4a1c      	ldr	r2, [pc, #112]	; (402220 <Reset_Handler+0xa0>)
  4021b0:	429a      	cmp	r2, r3
  4021b2:	d20a      	bcs.n	4021ca <Reset_Handler+0x4a>
  4021b4:	3b01      	subs	r3, #1
  4021b6:	1a9b      	subs	r3, r3, r2
  4021b8:	f023 0303 	bic.w	r3, r3, #3
  4021bc:	3304      	adds	r3, #4
  4021be:	4413      	add	r3, r2
                *pDest++ = 0;
  4021c0:	2100      	movs	r1, #0
  4021c2:	f842 1b04 	str.w	r1, [r2], #4
        for (pDest = &_szero; pDest < &_ezero;) {
  4021c6:	4293      	cmp	r3, r2
  4021c8:	d1fb      	bne.n	4021c2 <Reset_Handler+0x42>
        SCB->VTOR = ((uint32_t) pSrc & SCB_VTOR_TBLOFF_Msk);
  4021ca:	4a16      	ldr	r2, [pc, #88]	; (402224 <Reset_Handler+0xa4>)
  4021cc:	4b16      	ldr	r3, [pc, #88]	; (402228 <Reset_Handler+0xa8>)
  4021ce:	f023 037f 	bic.w	r3, r3, #127	; 0x7f
  4021d2:	6093      	str	r3, [r2, #8]
 */
__attribute__( ( always_inline ) ) __STATIC_INLINE uint32_t __get_PRIMASK(void)
{
  uint32_t result;

  __ASM volatile ("MRS %0, primask" : "=r" (result) );
  4021d4:	f3ef 8310 	mrs	r3, PRIMASK
  __ASM volatile ("cpsid i" : : : "memory");
  4021d8:	b672      	cpsid	i
    This function ensures the apparent order of the explicit memory operations before
    and after the instruction, without ensuring their completion.
 */
__attribute__( ( always_inline ) ) __STATIC_INLINE void __DMB(void)
{
  __ASM volatile ("dmb");
  4021da:	f3bf 8f5f 	dmb	sy
static volatile bool     cpu_irq_prev_interrupt_state;

static inline irqflags_t cpu_irq_save(void)
{
	irqflags_t flags = cpu_irq_is_enabled();
	cpu_irq_disable();
  4021de:	2100      	movs	r1, #0
  4021e0:	4a12      	ldr	r2, [pc, #72]	; (40222c <Reset_Handler+0xac>)
  4021e2:	7011      	strb	r1, [r2, #0]
 */
__always_inline static void fpu_enable(void)
{
	irqflags_t flags;
	flags = cpu_irq_save();
	REG_CPACR |=  (0xFu << 20);
  4021e4:	4912      	ldr	r1, [pc, #72]	; (402230 <Reset_Handler+0xb0>)
  4021e6:	680a      	ldr	r2, [r1, #0]
  4021e8:	f442 0270 	orr.w	r2, r2, #15728640	; 0xf00000
  4021ec:	600a      	str	r2, [r1, #0]
  __ASM volatile ("dsb");
  4021ee:	f3bf 8f4f 	dsb	sy
  __ASM volatile ("isb");
  4021f2:	f3bf 8f6f 	isb	sy
	return (flags);
}

static inline void cpu_irq_restore(irqflags_t flags)
{
	if (cpu_irq_is_enabled_flags(flags))
  4021f6:	b92b      	cbnz	r3, 402204 <Reset_Handler+0x84>
		cpu_irq_enable();
  4021f8:	2201      	movs	r2, #1
  4021fa:	4b0c      	ldr	r3, [pc, #48]	; (40222c <Reset_Handler+0xac>)
  4021fc:	701a      	strb	r2, [r3, #0]
  __ASM volatile ("dmb");
  4021fe:	f3bf 8f5f 	dmb	sy
  __ASM volatile ("cpsie i" : : : "memory");
  402202:	b662      	cpsie	i
        __libc_init_array();
  402204:	4b0b      	ldr	r3, [pc, #44]	; (402234 <Reset_Handler+0xb4>)
  402206:	4798      	blx	r3
        main();
  402208:	4b0b      	ldr	r3, [pc, #44]	; (402238 <Reset_Handler+0xb8>)
  40220a:	4798      	blx	r3
  40220c:	e7fe      	b.n	40220c <Reset_Handler+0x8c>
  40220e:	bf00      	nop
  402210:	20400000 	.word	0x20400000
  402214:	00402a5c 	.word	0x00402a5c
  402218:	20400444 	.word	0x20400444
  40221c:	204583fc 	.word	0x204583fc
  402220:	20400448 	.word	0x20400448
  402224:	e000ed00 	.word	0xe000ed00
  402228:	00400000 	.word	0x00400000
  40222c:	20400010 	.word	0x20400010
  402230:	e000ed88 	.word	0xe000ed88
  402234:	00402789 	.word	0x00402789
  402238:	00402461 	.word	0x00402461

0040223c <SystemCoreClockUpdate>:
}

void SystemCoreClockUpdate( void )
{
  /* Determine clock frequency according to clock register values */
  switch (PMC->PMC_MCKR & (uint32_t) PMC_MCKR_CSS_Msk)
  40223c:	4b3b      	ldr	r3, [pc, #236]	; (40232c <SystemCoreClockUpdate+0xf0>)
  40223e:	6b1b      	ldr	r3, [r3, #48]	; 0x30
  402240:	f003 0303 	and.w	r3, r3, #3
  402244:	2b01      	cmp	r3, #1
  402246:	d01d      	beq.n	402284 <SystemCoreClockUpdate+0x48>
  402248:	b183      	cbz	r3, 40226c <SystemCoreClockUpdate+0x30>
  40224a:	2b02      	cmp	r3, #2
  40224c:	d036      	beq.n	4022bc <SystemCoreClockUpdate+0x80>

    default:
    break;
  }

  if ( (PMC->PMC_MCKR & PMC_MCKR_PRES_Msk) == PMC_MCKR_PRES_CLK_3 )
  40224e:	4b37      	ldr	r3, [pc, #220]	; (40232c <SystemCoreClockUpdate+0xf0>)
  402250:	6b1b      	ldr	r3, [r3, #48]	; 0x30
  402252:	f003 0370 	and.w	r3, r3, #112	; 0x70
  402256:	2b70      	cmp	r3, #112	; 0x70
  402258:	d05f      	beq.n	40231a <SystemCoreClockUpdate+0xde>
  {
    SystemCoreClock /= 3U;
  }
  else
  {
    SystemCoreClock >>= ((PMC->PMC_MCKR & PMC_MCKR_PRES_Msk) >> PMC_MCKR_PRES_Pos);
  40225a:	4b34      	ldr	r3, [pc, #208]	; (40232c <SystemCoreClockUpdate+0xf0>)
  40225c:	6b1a      	ldr	r2, [r3, #48]	; 0x30
  40225e:	4934      	ldr	r1, [pc, #208]	; (402330 <SystemCoreClockUpdate+0xf4>)
  402260:	f3c2 1202 	ubfx	r2, r2, #4, #3
  402264:	680b      	ldr	r3, [r1, #0]
  402266:	40d3      	lsrs	r3, r2
  402268:	600b      	str	r3, [r1, #0]
  40226a:	4770      	bx	lr
      if ( SUPC->SUPC_SR & SUPC_SR_OSCSEL )
  40226c:	4b31      	ldr	r3, [pc, #196]	; (402334 <SystemCoreClockUpdate+0xf8>)
  40226e:	695b      	ldr	r3, [r3, #20]
  402270:	f013 0f80 	tst.w	r3, #128	; 0x80
        SystemCoreClock = CHIP_FREQ_XTAL_32K;
  402274:	bf14      	ite	ne
  402276:	f44f 4200 	movne.w	r2, #32768	; 0x8000
        SystemCoreClock = CHIP_FREQ_SLCK_RC;
  40227a:	f44f 42fa 	moveq.w	r2, #32000	; 0x7d00
  40227e:	4b2c      	ldr	r3, [pc, #176]	; (402330 <SystemCoreClockUpdate+0xf4>)
  402280:	601a      	str	r2, [r3, #0]
  402282:	e7e4      	b.n	40224e <SystemCoreClockUpdate+0x12>
      if ( PMC->CKGR_MOR & CKGR_MOR_MOSCSEL )
  402284:	4b29      	ldr	r3, [pc, #164]	; (40232c <SystemCoreClockUpdate+0xf0>)
  402286:	6a1b      	ldr	r3, [r3, #32]
  402288:	f013 7f80 	tst.w	r3, #16777216	; 0x1000000
  40228c:	d003      	beq.n	402296 <SystemCoreClockUpdate+0x5a>
        SystemCoreClock = CHIP_FREQ_XTAL_12M;
  40228e:	4a2a      	ldr	r2, [pc, #168]	; (402338 <SystemCoreClockUpdate+0xfc>)
  402290:	4b27      	ldr	r3, [pc, #156]	; (402330 <SystemCoreClockUpdate+0xf4>)
  402292:	601a      	str	r2, [r3, #0]
  402294:	e7db      	b.n	40224e <SystemCoreClockUpdate+0x12>
        SystemCoreClock = CHIP_FREQ_MAINCK_RC_4MHZ;
  402296:	4a29      	ldr	r2, [pc, #164]	; (40233c <SystemCoreClockUpdate+0x100>)
  402298:	4b25      	ldr	r3, [pc, #148]	; (402330 <SystemCoreClockUpdate+0xf4>)
  40229a:	601a      	str	r2, [r3, #0]
        switch ( PMC->CKGR_MOR & CKGR_MOR_MOSCRCF_Msk )
  40229c:	4b23      	ldr	r3, [pc, #140]	; (40232c <SystemCoreClockUpdate+0xf0>)
  40229e:	6a1b      	ldr	r3, [r3, #32]
  4022a0:	f003 0370 	and.w	r3, r3, #112	; 0x70
  4022a4:	2b10      	cmp	r3, #16
  4022a6:	d005      	beq.n	4022b4 <SystemCoreClockUpdate+0x78>
  4022a8:	2b20      	cmp	r3, #32
  4022aa:	d1d0      	bne.n	40224e <SystemCoreClockUpdate+0x12>
            SystemCoreClock *= 3U;
  4022ac:	4a22      	ldr	r2, [pc, #136]	; (402338 <SystemCoreClockUpdate+0xfc>)
  4022ae:	4b20      	ldr	r3, [pc, #128]	; (402330 <SystemCoreClockUpdate+0xf4>)
  4022b0:	601a      	str	r2, [r3, #0]
          break;
  4022b2:	e7cc      	b.n	40224e <SystemCoreClockUpdate+0x12>
            SystemCoreClock *= 2U;
  4022b4:	4a22      	ldr	r2, [pc, #136]	; (402340 <SystemCoreClockUpdate+0x104>)
  4022b6:	4b1e      	ldr	r3, [pc, #120]	; (402330 <SystemCoreClockUpdate+0xf4>)
  4022b8:	601a      	str	r2, [r3, #0]
          break;
  4022ba:	e7c8      	b.n	40224e <SystemCoreClockUpdate+0x12>
      if ( PMC->CKGR_MOR & CKGR_MOR_MOSCSEL )
  4022bc:	4b1b      	ldr	r3, [pc, #108]	; (40232c <SystemCoreClockUpdate+0xf0>)
  4022be:	6a1b      	ldr	r3, [r3, #32]
  4022c0:	f013 7f80 	tst.w	r3, #16777216	; 0x1000000
  4022c4:	d016      	beq.n	4022f4 <SystemCoreClockUpdate+0xb8>
        SystemCoreClock = CHIP_FREQ_XTAL_12M ;
  4022c6:	4a1c      	ldr	r2, [pc, #112]	; (402338 <SystemCoreClockUpdate+0xfc>)
  4022c8:	4b19      	ldr	r3, [pc, #100]	; (402330 <SystemCoreClockUpdate+0xf4>)
  4022ca:	601a      	str	r2, [r3, #0]
      if ( (uint32_t) (PMC->PMC_MCKR & (uint32_t) PMC_MCKR_CSS_Msk) == PMC_MCKR_CSS_PLLA_CLK )
  4022cc:	4b17      	ldr	r3, [pc, #92]	; (40232c <SystemCoreClockUpdate+0xf0>)
  4022ce:	6b1b      	ldr	r3, [r3, #48]	; 0x30
  4022d0:	f003 0303 	and.w	r3, r3, #3
  4022d4:	2b02      	cmp	r3, #2
  4022d6:	d1ba      	bne.n	40224e <SystemCoreClockUpdate+0x12>
        SystemCoreClock *= ((((PMC->CKGR_PLLAR) & CKGR_PLLAR_MULA_Msk) >> CKGR_PLLAR_MULA_Pos) + 1U);
  4022d8:	4a14      	ldr	r2, [pc, #80]	; (40232c <SystemCoreClockUpdate+0xf0>)
  4022da:	6a91      	ldr	r1, [r2, #40]	; 0x28
        SystemCoreClock /= ((((PMC->CKGR_PLLAR) & CKGR_PLLAR_DIVA_Msk) >> CKGR_PLLAR_DIVA_Pos));
  4022dc:	6a92      	ldr	r2, [r2, #40]	; 0x28
  4022de:	4814      	ldr	r0, [pc, #80]	; (402330 <SystemCoreClockUpdate+0xf4>)
        SystemCoreClock *= ((((PMC->CKGR_PLLAR) & CKGR_PLLAR_MULA_Msk) >> CKGR_PLLAR_MULA_Pos) + 1U);
  4022e0:	f3c1 410a 	ubfx	r1, r1, #16, #11
  4022e4:	6803      	ldr	r3, [r0, #0]
  4022e6:	fb01 3303 	mla	r3, r1, r3, r3
        SystemCoreClock /= ((((PMC->CKGR_PLLAR) & CKGR_PLLAR_DIVA_Msk) >> CKGR_PLLAR_DIVA_Pos));
  4022ea:	b2d2      	uxtb	r2, r2
  4022ec:	fbb3 f3f2 	udiv	r3, r3, r2
  4022f0:	6003      	str	r3, [r0, #0]
  4022f2:	e7ac      	b.n	40224e <SystemCoreClockUpdate+0x12>
        SystemCoreClock = CHIP_FREQ_MAINCK_RC_4MHZ;
  4022f4:	4a11      	ldr	r2, [pc, #68]	; (40233c <SystemCoreClockUpdate+0x100>)
  4022f6:	4b0e      	ldr	r3, [pc, #56]	; (402330 <SystemCoreClockUpdate+0xf4>)
  4022f8:	601a      	str	r2, [r3, #0]
        switch ( PMC->CKGR_MOR & CKGR_MOR_MOSCRCF_Msk )
  4022fa:	4b0c      	ldr	r3, [pc, #48]	; (40232c <SystemCoreClockUpdate+0xf0>)
  4022fc:	6a1b      	ldr	r3, [r3, #32]
  4022fe:	f003 0370 	and.w	r3, r3, #112	; 0x70
  402302:	2b10      	cmp	r3, #16
  402304:	d005      	beq.n	402312 <SystemCoreClockUpdate+0xd6>
  402306:	2b20      	cmp	r3, #32
  402308:	d1e0      	bne.n	4022cc <SystemCoreClockUpdate+0x90>
            SystemCoreClock *= 3U;
  40230a:	4a0b      	ldr	r2, [pc, #44]	; (402338 <SystemCoreClockUpdate+0xfc>)
  40230c:	4b08      	ldr	r3, [pc, #32]	; (402330 <SystemCoreClockUpdate+0xf4>)
  40230e:	601a      	str	r2, [r3, #0]
          break;
  402310:	e7dc      	b.n	4022cc <SystemCoreClockUpdate+0x90>
            SystemCoreClock *= 2U;
  402312:	4a0b      	ldr	r2, [pc, #44]	; (402340 <SystemCoreClockUpdate+0x104>)
  402314:	4b06      	ldr	r3, [pc, #24]	; (402330 <SystemCoreClockUpdate+0xf4>)
  402316:	601a      	str	r2, [r3, #0]
          break;
  402318:	e7d8      	b.n	4022cc <SystemCoreClockUpdate+0x90>
    SystemCoreClock /= 3U;
  40231a:	4a05      	ldr	r2, [pc, #20]	; (402330 <SystemCoreClockUpdate+0xf4>)
  40231c:	6813      	ldr	r3, [r2, #0]
  40231e:	4909      	ldr	r1, [pc, #36]	; (402344 <SystemCoreClockUpdate+0x108>)
  402320:	fba1 1303 	umull	r1, r3, r1, r3
  402324:	085b      	lsrs	r3, r3, #1
  402326:	6013      	str	r3, [r2, #0]
  402328:	4770      	bx	lr
  40232a:	bf00      	nop
  40232c:	400e0600 	.word	0x400e0600
  402330:	20400014 	.word	0x20400014
  402334:	400e1810 	.word	0x400e1810
  402338:	00b71b00 	.word	0x00b71b00
  40233c:	003d0900 	.word	0x003d0900
  402340:	007a1200 	.word	0x007a1200
  402344:	aaaaaaab 	.word	0xaaaaaaab

00402348 <system_init_flash>:
 * Initialize flash.
 */
void system_init_flash( uint32_t ul_clk )
{
  /* Set FWS for embedded Flash access according to operating frequency */
  if ( ul_clk < CHIP_FREQ_FWS_0 )
  402348:	4b12      	ldr	r3, [pc, #72]	; (402394 <system_init_flash+0x4c>)
  40234a:	4298      	cmp	r0, r3
  40234c:	d911      	bls.n	402372 <system_init_flash+0x2a>
  {
    EFC->EEFC_FMR = EEFC_FMR_FWS(0)|EEFC_FMR_CLOE;
  }
  else
  {
    if (ul_clk < CHIP_FREQ_FWS_1)
  40234e:	4b12      	ldr	r3, [pc, #72]	; (402398 <system_init_flash+0x50>)
  402350:	4298      	cmp	r0, r3
  402352:	d913      	bls.n	40237c <system_init_flash+0x34>
    {
      EFC->EEFC_FMR = EEFC_FMR_FWS(1)|EEFC_FMR_CLOE;
    }
    else
    {
      if (ul_clk < CHIP_FREQ_FWS_2)
  402354:	4b11      	ldr	r3, [pc, #68]	; (40239c <system_init_flash+0x54>)
  402356:	4298      	cmp	r0, r3
  402358:	d914      	bls.n	402384 <system_init_flash+0x3c>
      {
        EFC->EEFC_FMR = EEFC_FMR_FWS(2)|EEFC_FMR_CLOE;
      }
      else
      {
        if ( ul_clk < CHIP_FREQ_FWS_3 )
  40235a:	4b11      	ldr	r3, [pc, #68]	; (4023a0 <system_init_flash+0x58>)
  40235c:	4298      	cmp	r0, r3
  40235e:	d915      	bls.n	40238c <system_init_flash+0x44>
        {
          EFC->EEFC_FMR = EEFC_FMR_FWS(3)|EEFC_FMR_CLOE;
        }
        else
        {
          if ( ul_clk < CHIP_FREQ_FWS_4 )
  402360:	4b10      	ldr	r3, [pc, #64]	; (4023a4 <system_init_flash+0x5c>)
  402362:	4298      	cmp	r0, r3
          {
            EFC->EEFC_FMR = EEFC_FMR_FWS(4)|EEFC_FMR_CLOE;
  402364:	bf94      	ite	ls
  402366:	f04f 2204 	movls.w	r2, #67109888	; 0x4000400
          }
          else
          {
            EFC->EEFC_FMR = EEFC_FMR_FWS(5)|EEFC_FMR_CLOE;
  40236a:	4a0f      	ldrhi	r2, [pc, #60]	; (4023a8 <system_init_flash+0x60>)
  40236c:	4b0f      	ldr	r3, [pc, #60]	; (4023ac <system_init_flash+0x64>)
  40236e:	601a      	str	r2, [r3, #0]
  402370:	4770      	bx	lr
    EFC->EEFC_FMR = EEFC_FMR_FWS(0)|EEFC_FMR_CLOE;
  402372:	f04f 6280 	mov.w	r2, #67108864	; 0x4000000
  402376:	4b0d      	ldr	r3, [pc, #52]	; (4023ac <system_init_flash+0x64>)
  402378:	601a      	str	r2, [r3, #0]
  40237a:	4770      	bx	lr
      EFC->EEFC_FMR = EEFC_FMR_FWS(1)|EEFC_FMR_CLOE;
  40237c:	4a0c      	ldr	r2, [pc, #48]	; (4023b0 <system_init_flash+0x68>)
  40237e:	4b0b      	ldr	r3, [pc, #44]	; (4023ac <system_init_flash+0x64>)
  402380:	601a      	str	r2, [r3, #0]
  402382:	4770      	bx	lr
        EFC->EEFC_FMR = EEFC_FMR_FWS(2)|EEFC_FMR_CLOE;
  402384:	4a0b      	ldr	r2, [pc, #44]	; (4023b4 <system_init_flash+0x6c>)
  402386:	4b09      	ldr	r3, [pc, #36]	; (4023ac <system_init_flash+0x64>)
  402388:	601a      	str	r2, [r3, #0]
  40238a:	4770      	bx	lr
          EFC->EEFC_FMR = EEFC_FMR_FWS(3)|EEFC_FMR_CLOE;
  40238c:	4a0a      	ldr	r2, [pc, #40]	; (4023b8 <system_init_flash+0x70>)
  40238e:	4b07      	ldr	r3, [pc, #28]	; (4023ac <system_init_flash+0x64>)
  402390:	601a      	str	r2, [r3, #0]
  402392:	4770      	bx	lr
  402394:	01312cff 	.word	0x01312cff
  402398:	026259ff 	.word	0x026259ff
  40239c:	039386ff 	.word	0x039386ff
  4023a0:	04c4b3ff 	.word	0x04c4b3ff
  4023a4:	05f5e0ff 	.word	0x05f5e0ff
  4023a8:	04000500 	.word	0x04000500
  4023ac:	400e0c00 	.word	0x400e0c00
  4023b0:	04000100 	.word	0x04000100
  4023b4:	04000200 	.word	0x04000200
  4023b8:	04000300 	.word	0x04000300

004023bc <PYTHON480_Init>:
/*                           LOCAL FUNCTIONS                            */
/************************************************************************/

// Sets up initial register values in the PYTHON 480
void PYTHON480_Init()
{
  4023bc:	b508      	push	{r3, lr}
	Enable_Clock_Management1();
  4023be:	4b06      	ldr	r3, [pc, #24]	; (4023d8 <PYTHON480_Init+0x1c>)
  4023c0:	4798      	blx	r3
	delay_ms(10);			// Small pause here for things to stabilize.
  4023c2:	4806      	ldr	r0, [pc, #24]	; (4023dc <PYTHON480_Init+0x20>)
  4023c4:	4b06      	ldr	r3, [pc, #24]	; (4023e0 <PYTHON480_Init+0x24>)
  4023c6:	4798      	blx	r3
	Enable_Clock_Management2();
  4023c8:	4b06      	ldr	r3, [pc, #24]	; (4023e4 <PYTHON480_Init+0x28>)
  4023ca:	4798      	blx	r3
	Required_Uploads();
  4023cc:	4b06      	ldr	r3, [pc, #24]	; (4023e8 <PYTHON480_Init+0x2c>)
  4023ce:	4798      	blx	r3
	Soft_PowerUp();
  4023d0:	4b06      	ldr	r3, [pc, #24]	; (4023ec <PYTHON480_Init+0x30>)
  4023d2:	4798      	blx	r3
  4023d4:	bd08      	pop	{r3, pc}
  4023d6:	bf00      	nop
  4023d8:	0040123d 	.word	0x0040123d
  4023dc:	0003b440 	.word	0x0003b440
  4023e0:	20400001 	.word	0x20400001
  4023e4:	00401281 	.word	0x00401281
  4023e8:	004012a1 	.word	0x004012a1
  4023ec:	00401741 	.word	0x00401741

004023f0 <PYTHON480_Pin_Setup>:
		base->PIO_OER = arch_ioport_pin_to_mask(pin);
  4023f0:	4b19      	ldr	r3, [pc, #100]	; (402458 <PYTHON480_Pin_Setup+0x68>)
  4023f2:	f44f 1200 	mov.w	r2, #2097152	; 0x200000
  4023f6:	611a      	str	r2, [r3, #16]
	base->PIO_OWER = arch_ioport_pin_to_mask(pin);
  4023f8:	f8c3 20a0 	str.w	r2, [r3, #160]	; 0xa0
		base->PIO_OER = arch_ioport_pin_to_mask(pin);
  4023fc:	f44f 0280 	mov.w	r2, #4194304	; 0x400000
  402400:	611a      	str	r2, [r3, #16]
	base->PIO_OWER = arch_ioport_pin_to_mask(pin);
  402402:	f8c3 20a0 	str.w	r2, [r3, #160]	; 0xa0
		base->PIO_OER = arch_ioport_pin_to_mask(pin);
  402406:	f04f 7100 	mov.w	r1, #33554432	; 0x2000000
  40240a:	6119      	str	r1, [r3, #16]
	base->PIO_OWER = arch_ioport_pin_to_mask(pin);
  40240c:	f8c3 10a0 	str.w	r1, [r3, #160]	; 0xa0
		base->PIO_ODR = arch_ioport_pin_to_mask(pin);
  402410:	f44f 1080 	mov.w	r0, #1048576	; 0x100000
  402414:	6158      	str	r0, [r3, #20]
	base->PIO_OWER = arch_ioport_pin_to_mask(pin);
  402416:	f8c3 00a0 	str.w	r0, [r3, #160]	; 0xa0
		base->PIO_SODR = arch_ioport_pin_to_mask(pin);
  40241a:	6319      	str	r1, [r3, #48]	; 0x30
		base->PIO_CODR = arch_ioport_pin_to_mask(pin);
  40241c:	635a      	str	r2, [r3, #52]	; 0x34
		base->PIO_OER = arch_ioport_pin_to_mask(pin);
  40241e:	2102      	movs	r1, #2
  402420:	6119      	str	r1, [r3, #16]
	base->PIO_OWER = arch_ioport_pin_to_mask(pin);
  402422:	f8c3 10a0 	str.w	r1, [r3, #160]	; 0xa0
		base->PIO_CODR = arch_ioport_pin_to_mask(pin);
  402426:	6359      	str	r1, [r3, #52]	; 0x34
		base->PIO_OER = arch_ioport_pin_to_mask(pin);
  402428:	f5a3 63c0 	sub.w	r3, r3, #1536	; 0x600
  40242c:	2201      	movs	r2, #1
  40242e:	611a      	str	r2, [r3, #16]
	base->PIO_OWER = arch_ioport_pin_to_mask(pin);
  402430:	f8c3 20a0 	str.w	r2, [r3, #160]	; 0xa0
		base->PIO_SODR = arch_ioport_pin_to_mask(pin);
  402434:	631a      	str	r2, [r3, #48]	; 0x30
		base->PIO_OER = arch_ioport_pin_to_mask(pin);
  402436:	4a09      	ldr	r2, [pc, #36]	; (40245c <PYTHON480_Pin_Setup+0x6c>)
  402438:	6111      	str	r1, [r2, #16]
	base->PIO_OWER = arch_ioport_pin_to_mask(pin);
  40243a:	f8c2 10a0 	str.w	r1, [r2, #160]	; 0xa0
		base->PIO_CODR = arch_ioport_pin_to_mask(pin);
  40243e:	6351      	str	r1, [r2, #52]	; 0x34
		base->PIO_OER = arch_ioport_pin_to_mask(pin);
  402440:	2104      	movs	r1, #4
  402442:	6111      	str	r1, [r2, #16]
	base->PIO_OWER = arch_ioport_pin_to_mask(pin);
  402444:	f8c2 10a0 	str.w	r1, [r2, #160]	; 0xa0
		base->PIO_CODR = arch_ioport_pin_to_mask(pin);
  402448:	6351      	str	r1, [r2, #52]	; 0x34
		base->PIO_ODR = arch_ioport_pin_to_mask(pin);
  40244a:	f44f 2280 	mov.w	r2, #262144	; 0x40000
  40244e:	615a      	str	r2, [r3, #20]
	base->PIO_OWER = arch_ioport_pin_to_mask(pin);
  402450:	f8c3 20a0 	str.w	r2, [r3, #160]	; 0xa0
		base->PIO_CODR = arch_ioport_pin_to_mask(pin);
  402454:	635a      	str	r2, [r3, #52]	; 0x34
  402456:	4770      	bx	lr
  402458:	400e1400 	.word	0x400e1400
  40245c:	400e1000 	.word	0x400e1000

00402460 <main>:
/************************************************************************/
/*                            MAIN FUNCTION                             */
/************************************************************************/

int main(void)
{
  402460:	e92d 4ff8 	stmdb	sp!, {r3, r4, r5, r6, r7, r8, r9, sl, fp, lr}
	uint32_t WXB = 0;				// Wired Expansion Board
	uint32_t MSD = 0;				// Micro SD Card


	// ========== Interrupt Managements ========== //
	WDT->WDT_MR = WDT_MR_WDDIS;		//  //Disables Watch Dog Timer
  402464:	f44f 4200 	mov.w	r2, #32768	; 0x8000
  402468:	4b99      	ldr	r3, [pc, #612]	; (4026d0 <main+0x270>)
  40246a:	605a      	str	r2, [r3, #4]
	irq_initialize_vectors();		// IRQ: Interrupt Request Line
	cpu_irq_enable();
  40246c:	2201      	movs	r2, #1
  40246e:	4b99      	ldr	r3, [pc, #612]	; (4026d4 <main+0x274>)
  402470:	701a      	strb	r2, [r3, #0]
  402472:	f3bf 8f5f 	dmb	sy
  402476:	b662      	cpsie	i

	
	// ========== Microcontroller Initiation ========== //
	sysclk_init();
  402478:	4b97      	ldr	r3, [pc, #604]	; (4026d8 <main+0x278>)
  40247a:	4798      	blx	r3
	board_init();		
  40247c:	4b97      	ldr	r3, [pc, #604]	; (4026dc <main+0x27c>)
  40247e:	4798      	blx	r3
 *
 * \param ul_id Id (number) of the peripheral clock.
 */
static inline void sysclk_enable_peripheral_clock(uint32_t ul_id)
{
	pmc_enable_periph_clk(ul_id);
  402480:	200a      	movs	r0, #10
  402482:	4c97      	ldr	r4, [pc, #604]	; (4026e0 <main+0x280>)
  402484:	47a0      	blx	r4
  402486:	200b      	movs	r0, #11
  402488:	47a0      	blx	r4
  40248a:	2010      	movs	r0, #16
  40248c:	47a0      	blx	r4
	ioport_init();					// Turns on all peripheral clocks. Could remove this to save power. This is redundant, so maybe get rid of it later.
									

	// ========== Clock Initiation ========== //
	Enable_Source_Clock();			// Turn on SCK1 from MCU to drive CMOS sensor	
  40248e:	4b95      	ldr	r3, [pc, #596]	; (4026e4 <main+0x284>)
  402490:	4798      	blx	r3
	time_tick_init();				// Initialization for 1 ms time clock
  402492:	4b95      	ldr	r3, [pc, #596]	; (4026e8 <main+0x288>)
  402494:	4798      	blx	r3
//	PWM_Init();						// This is for older MiniScopes. Get the codes for the I2C communication to potentiometer from V4 codes 


	// ========== Setup Microcontroller for PYTHON480 ========== //
	// Power on the peripheral clock for each port
	pmc_enable_periph_clk(ID_PIOA);
  402496:	200a      	movs	r0, #10
  402498:	47a0      	blx	r4
	pmc_enable_periph_clk(ID_PIOB);
  40249a:	200b      	movs	r0, #11
  40249c:	47a0      	blx	r4
	pmc_enable_periph_clk(ID_PIOD);
  40249e:	2010      	movs	r0, #16
  4024a0:	47a0      	blx	r4
	
	// Enable imaging sensor control pins (Status LED off, Excitation LED on, Reset off, Trigger off, Monitor off, Begin SPI, Begin I2C)
	#ifdef NOIP1SN0480A
		PYTHON480_Pin_Setup();
  4024a2:	4b92      	ldr	r3, [pc, #584]	; (4026ec <main+0x28c>)
  4024a4:	4798      	blx	r3
		
		// Python480 uses SPI, and lens & LED use I2C
		SPI_BitBang_init();
  4024a6:	4b92      	ldr	r3, [pc, #584]	; (4026f0 <main+0x290>)
  4024a8:	4798      	blx	r3
		TWIHS_init();
  4024aa:	4b92      	ldr	r3, [pc, #584]	; (4026f4 <main+0x294>)
  4024ac:	4798      	blx	r3
	#endif
	
	
	// ========== Power Up PYTHON480 ========== //
	PYTHON480_Init();
  4024ae:	4b92      	ldr	r3, [pc, #584]	; (4026f8 <main+0x298>)
  4024b0:	4798      	blx	r3
	
	// Check SPI Communication: Read the Python480 ID using the SPI connection
	uint16_t Python_ID;
	Python_ID = SPI_Read(0x0008);
  4024b2:	2008      	movs	r0, #8
  4024b4:	4b91      	ldr	r3, [pc, #580]	; (4026fc <main+0x29c>)
  4024b6:	4798      	blx	r3
	if (Python_ID == 0x5004)
  4024b8:	f245 0304 	movw	r3, #20484	; 0x5004
  4024bc:	4298      	cmp	r0, r3
  4024be:	d009      	beq.n	4024d4 <main+0x74>
		ioport_toggle_pin_level(LED_PIN);
	}
	
	
	// ========== Micro SD Card Initialization ========== //
	sd_mmc_init();
  4024c0:	4b8f      	ldr	r3, [pc, #572]	; (402700 <main+0x2a0>)
  4024c2:	4798      	blx	r3
	
	// Micro SD card slot connection check
	uint32_t SD_Check;
	SD_Check = sd_mmc_check(SD_SLOT_NB);
  4024c4:	2000      	movs	r0, #0
  4024c6:	4b8f      	ldr	r3, [pc, #572]	; (402704 <main+0x2a4>)
  4024c8:	4798      	blx	r3
	while (SD_Check != SD_MMC_OK) 
  4024ca:	b1f8      	cbz	r0, 40250c <main+0xac>
__always_inline static void arch_ioport_toggle_pin_level(ioport_pin_t pin)
{
	Pio *port = arch_ioport_pin_to_base(pin);
	ioport_port_mask_t mask = arch_ioport_pin_to_mask(pin);

	if (port->PIO_PDSR & arch_ioport_pin_to_mask(pin)) {
  4024cc:	4c8e      	ldr	r4, [pc, #568]	; (402708 <main+0x2a8>)
	{
		ioport_toggle_pin_level(LED_PIN);					// while the SD connection is NOT okay.. wait
		delay_ms(100);										// delete later when expansion PCB
  4024ce:	4e8f      	ldr	r6, [pc, #572]	; (40270c <main+0x2ac>)
  4024d0:	4d8f      	ldr	r5, [pc, #572]	; (402710 <main+0x2b0>)
  4024d2:	e014      	b.n	4024fe <main+0x9e>
  4024d4:	4b8c      	ldr	r3, [pc, #560]	; (402708 <main+0x2a8>)
  4024d6:	6bdb      	ldr	r3, [r3, #60]	; 0x3c
  4024d8:	f013 0f02 	tst.w	r3, #2
  4024dc:	d003      	beq.n	4024e6 <main+0x86>
		port->PIO_CODR = mask;
  4024de:	2202      	movs	r2, #2
  4024e0:	4b89      	ldr	r3, [pc, #548]	; (402708 <main+0x2a8>)
  4024e2:	635a      	str	r2, [r3, #52]	; 0x34
  4024e4:	e7ec      	b.n	4024c0 <main+0x60>
	} else {
		port->PIO_SODR = mask;
  4024e6:	2202      	movs	r2, #2
  4024e8:	4b87      	ldr	r3, [pc, #540]	; (402708 <main+0x2a8>)
  4024ea:	631a      	str	r2, [r3, #48]	; 0x30
  4024ec:	e7e8      	b.n	4024c0 <main+0x60>
  4024ee:	2302      	movs	r3, #2
  4024f0:	6323      	str	r3, [r4, #48]	; 0x30
  4024f2:	4630      	mov	r0, r6
  4024f4:	47a8      	blx	r5
		SD_Check = sd_mmc_check(SD_SLOT_NB);
  4024f6:	2000      	movs	r0, #0
  4024f8:	4b82      	ldr	r3, [pc, #520]	; (402704 <main+0x2a4>)
  4024fa:	4798      	blx	r3
	while (SD_Check != SD_MMC_OK) 
  4024fc:	b130      	cbz	r0, 40250c <main+0xac>
	if (port->PIO_PDSR & arch_ioport_pin_to_mask(pin)) {
  4024fe:	6be3      	ldr	r3, [r4, #60]	; 0x3c
  402500:	f013 0f02 	tst.w	r3, #2
  402504:	d0f3      	beq.n	4024ee <main+0x8e>
		port->PIO_CODR = mask;
  402506:	2302      	movs	r3, #2
  402508:	6363      	str	r3, [r4, #52]	; 0x34
  40250a:	e7f2      	b.n	4024f2 <main+0x92>
	}																
		
	
	// ========== Connection Type Check (Micro SD Card vs. Wired Expansion Board) ========== //
	if (sd_mmc_get_type(SD_SLOT_NB) == (CARD_TYPE_SD|CARD_TYPE_HC)) // Bitwise OR --> 9 = 8 + 1
  40250c:	2000      	movs	r0, #0
  40250e:	4b81      	ldr	r3, [pc, #516]	; (402714 <main+0x2b4>)
  402510:	4798      	blx	r3
  402512:	2809      	cmp	r0, #9
  402514:	d027      	beq.n	402566 <main+0x106>
		base->PIO_CODR = arch_ioport_pin_to_mask(pin);
  402516:	2202      	movs	r2, #2
  402518:	4b7b      	ldr	r3, [pc, #492]	; (402708 <main+0x2a8>)
  40251a:	635a      	str	r2, [r3, #52]	; 0x34
	// ========== Wired Expansion Board Data Transfer ========== //
	if (MSD == 0 && WXB == 1)
	{
		// Should I turn off sd_mmc_init?
		
		pmc_enable_periph_clk(ID_PIOA);						// Already initiated before, but check again
  40251c:	200a      	movs	r0, #10
  40251e:	4b70      	ldr	r3, [pc, #448]	; (4026e0 <main+0x280>)
  402520:	4798      	blx	r3
		base->PIO_OER = arch_ioport_pin_to_mask(pin);
  402522:	4b7d      	ldr	r3, [pc, #500]	; (402718 <main+0x2b8>)
  402524:	f04f 7200 	mov.w	r2, #33554432	; 0x2000000
  402528:	611a      	str	r2, [r3, #16]
	base->PIO_OWER = arch_ioport_pin_to_mask(pin);
  40252a:	f8c3 20a0 	str.w	r2, [r3, #160]	; 0xa0
		base->PIO_OER = arch_ioport_pin_to_mask(pin);
  40252e:	f04f 4200 	mov.w	r2, #2147483648	; 0x80000000
  402532:	611a      	str	r2, [r3, #16]
	base->PIO_OWER = arch_ioport_pin_to_mask(pin);
  402534:	f8c3 20a0 	str.w	r2, [r3, #160]	; 0xa0
		base->PIO_OER = arch_ioport_pin_to_mask(pin);
  402538:	f04f 6280 	mov.w	r2, #67108864	; 0x4000000
  40253c:	611a      	str	r2, [r3, #16]
	base->PIO_OWER = arch_ioport_pin_to_mask(pin);
  40253e:	f8c3 20a0 	str.w	r2, [r3, #160]	; 0xa0
		base->PIO_OER = arch_ioport_pin_to_mask(pin);
  402542:	f04f 6200 	mov.w	r2, #134217728	; 0x8000000
  402546:	611a      	str	r2, [r3, #16]
	base->PIO_OWER = arch_ioport_pin_to_mask(pin);
  402548:	f8c3 20a0 	str.w	r2, [r3, #160]	; 0xa0
		base->PIO_OER = arch_ioport_pin_to_mask(pin);
  40254c:	f04f 4280 	mov.w	r2, #1073741824	; 0x40000000
  402550:	611a      	str	r2, [r3, #16]
	base->PIO_OWER = arch_ioport_pin_to_mask(pin);
  402552:	f8c3 20a0 	str.w	r2, [r3, #160]	; 0xa0
		base->PIO_ODR = arch_ioport_pin_to_mask(pin);
  402556:	f04f 5280 	mov.w	r2, #268435456	; 0x10000000
  40255a:	615a      	str	r2, [r3, #20]
	base->PIO_OWER = arch_ioport_pin_to_mask(pin);
  40255c:	f8c3 20a0 	str.w	r2, [r3, #160]	; 0xa0
		// }
		// refer to the algorithm from Wired V4
	}
	
	return 0;
}
  402560:	2000      	movs	r0, #0
  402562:	e8bd 8ff8 	ldmia.w	sp!, {r3, r4, r5, r6, r7, r8, r9, sl, fp, pc}
		base->PIO_SODR = arch_ioport_pin_to_mask(pin);
  402566:	2202      	movs	r2, #2
  402568:	4b67      	ldr	r3, [pc, #412]	; (402708 <main+0x2a8>)
  40256a:	631a      	str	r2, [r3, #48]	; 0x30
		uint32_t sdCapacity = sd_mmc_get_capacity(SD_SLOT_NB);		// Get the SD card capacity in KB
  40256c:	2000      	movs	r0, #0
  40256e:	4b6b      	ldr	r3, [pc, #428]	; (40271c <main+0x2bc>)
  402570:	4798      	blx	r3
		delay_ms(5000);												// Wait for things to stabilize
  402572:	486b      	ldr	r0, [pc, #428]	; (402720 <main+0x2c0>)
  402574:	4b66      	ldr	r3, [pc, #408]	; (402710 <main+0x2b0>)
  402576:	4798      	blx	r3
		imagingSensorLoadHeader();			// 1. Take in settings from SD card
  402578:	4b6a      	ldr	r3, [pc, #424]	; (402724 <main+0x2c4>)
  40257a:	4798      	blx	r3
		if (ledValue >= PWM_PERIOD_VALUE)	// 2. Check if the excit. LED value is acceptable --> This is done I2C, so check V4 algorithm
  40257c:	4b6a      	ldr	r3, [pc, #424]	; (402728 <main+0x2c8>)
  40257e:	681b      	ldr	r3, [r3, #0]
  402580:	2bfe      	cmp	r3, #254	; 0xfe
  402582:	d902      	bls.n	40258a <main+0x12a>
			ledValue = 0;
  402584:	2200      	movs	r2, #0
  402586:	4b68      	ldr	r3, [pc, #416]	; (402728 <main+0x2c8>)
  402588:	601a      	str	r2, [r3, #0]
		pwm_channel_update_duty(PWM0, &g_pwm_channel_led, ledValue);	// 3. Set the excit. LED brightness
  40258a:	4b67      	ldr	r3, [pc, #412]	; (402728 <main+0x2c8>)
  40258c:	681a      	ldr	r2, [r3, #0]
  40258e:	4967      	ldr	r1, [pc, #412]	; (40272c <main+0x2cc>)
  402590:	4867      	ldr	r0, [pc, #412]	; (402730 <main+0x2d0>)
  402592:	4b68      	ldr	r3, [pc, #416]	; (402734 <main+0x2d4>)
  402594:	4798      	blx	r3
		imagingSensorSetup();	// 4. Sets interrupts, configures IO pins for DMA CMOS sensor
  402596:	4b68      	ldr	r3, [pc, #416]	; (402738 <main+0x2d8>)
  402598:	4798      	blx	r3
		Enable_Subsample();				// 5. For PYTHON480, enable subsampling is the sole config. for now
  40259a:	4b68      	ldr	r3, [pc, #416]	; (40273c <main+0x2dc>)
  40259c:	4798      	blx	r3
		sd_mmc_init_write_blocks(SD_SLOT_NB, STARTING_BLOCK, 50 * NB_BLOCKS_PER_FRAME);
  40259e:	f642 52c6 	movw	r2, #11718	; 0x2dc6
  4025a2:	f44f 6180 	mov.w	r1, #1024	; 0x400
  4025a6:	2000      	movs	r0, #0
  4025a8:	4b65      	ldr	r3, [pc, #404]	; (402740 <main+0x2e0>)
  4025aa:	4798      	blx	r3
		tick_start = time_tick_get();
  4025ac:	4b65      	ldr	r3, [pc, #404]	; (402744 <main+0x2e4>)
  4025ae:	4798      	blx	r3
  4025b0:	4b65      	ldr	r3, [pc, #404]	; (402748 <main+0x2e8>)
  4025b2:	6018      	str	r0, [r3, #0]
		startRecording = 1;
  4025b4:	2301      	movs	r3, #1
  4025b6:	4a65      	ldr	r2, [pc, #404]	; (40274c <main+0x2ec>)
  4025b8:	7013      	strb	r3, [r2, #0]
  4025ba:	2104      	movs	r1, #4
  4025bc:	4a64      	ldr	r2, [pc, #400]	; (402750 <main+0x2f0>)
  4025be:	6311      	str	r1, [r2, #48]	; 0x30
  4025c0:	f5a2 7200 	sub.w	r2, r2, #512	; 0x200
  4025c4:	6313      	str	r3, [r2, #48]	; 0x30
  4025c6:	2202      	movs	r2, #2
  4025c8:	4b4f      	ldr	r3, [pc, #316]	; (402708 <main+0x2a8>)
  4025ca:	631a      	str	r2, [r3, #48]	; 0x30
		uint32_t curBlock = STARTING_BLOCK;
  4025cc:	f44f 6880 	mov.w	r8, #1024	; 0x400
	uint32_t writeFrameNum = 0;
  4025d0:	2400      	movs	r4, #0
			if (frameNumber > writeFrameNum)		// They're both zero...what's going on?
  4025d2:	f8df a1b0 	ldr.w	sl, [pc, #432]	; 402784 <main+0x324>
						imageBuffer1[buffSize-2] = time_tick_calc_delay(tick_start, time_tick_get());
  4025d6:	4f5c      	ldr	r7, [pc, #368]	; (402748 <main+0x2e8>)
  4025d8:	4e5a      	ldr	r6, [pc, #360]	; (402744 <main+0x2e4>)
  4025da:	4d5e      	ldr	r5, [pc, #376]	; (402754 <main+0x2f4>)
  4025dc:	e033      	b.n	402646 <main+0x1e6>
						imageBuffer0[buffSize-2] = time_tick_calc_delay(tick_start, time_tick_get());
  4025de:	4b5e      	ldr	r3, [pc, #376]	; (402758 <main+0x2f8>)
  4025e0:	681b      	ldr	r3, [r3, #0]
  4025e2:	f1a3 0902 	sub.w	r9, r3, #2
  4025e6:	f8d7 b000 	ldr.w	fp, [r7]
  4025ea:	47b0      	blx	r6
  4025ec:	4601      	mov	r1, r0
  4025ee:	4658      	mov	r0, fp
  4025f0:	47a8      	blx	r5
  4025f2:	4b5a      	ldr	r3, [pc, #360]	; (40275c <main+0x2fc>)
  4025f4:	f843 0029 	str.w	r0, [r3, r9, lsl #2]
						sd_mmc_start_write_blocks(&imageBuffer0[0], NB_BLOCKS_PER_WRITE);	// NB_BLOCKS_PER_WRITE
  4025f8:	21a5      	movs	r1, #165	; 0xa5
  4025fa:	4618      	mov	r0, r3
  4025fc:	4b58      	ldr	r3, [pc, #352]	; (402760 <main+0x300>)
  4025fe:	4798      	blx	r3
				sd_mmc_wait_end_of_write_blocks(false);
  402600:	2000      	movs	r0, #0
  402602:	4b58      	ldr	r3, [pc, #352]	; (402764 <main+0x304>)
  402604:	4798      	blx	r3
				writeFrameNum++;
  402606:	3401      	adds	r4, #1
				sdImageWriteFrameNum = writeFrameNum;
  402608:	4b57      	ldr	r3, [pc, #348]	; (402768 <main+0x308>)
  40260a:	601c      	str	r4, [r3, #0]
					startRecording = 1;
  40260c:	2201      	movs	r2, #1
  40260e:	4b4f      	ldr	r3, [pc, #316]	; (40274c <main+0x2ec>)
  402610:	701a      	strb	r2, [r3, #0]
				if (writeFrameNum % 50 == 0)
  402612:	4b56      	ldr	r3, [pc, #344]	; (40276c <main+0x30c>)
  402614:	fba3 2304 	umull	r2, r3, r3, r4
  402618:	091b      	lsrs	r3, r3, #4
  40261a:	2232      	movs	r2, #50	; 0x32
  40261c:	fb02 4313 	mls	r3, r2, r3, r4
  402620:	2b00      	cmp	r3, #0
  402622:	d045      	beq.n	4026b0 <main+0x250>
			if (time_tick_calc_delay(tick_start, time_tick_get()) >= numFramesToRecord * 1000)
  402624:	f8d7 9000 	ldr.w	r9, [r7]
  402628:	47b0      	blx	r6
  40262a:	4601      	mov	r1, r0
  40262c:	4648      	mov	r0, r9
  40262e:	47a8      	blx	r5
  402630:	4b4f      	ldr	r3, [pc, #316]	; (402770 <main+0x310>)
  402632:	681a      	ldr	r2, [r3, #0]
  402634:	f44f 737a 	mov.w	r3, #1000	; 0x3e8
  402638:	fb03 f302 	mul.w	r3, r3, r2
  40263c:	4298      	cmp	r0, r3
  40263e:	d23f      	bcs.n	4026c0 <main+0x260>
			testPoint = 0;
  402640:	2200      	movs	r2, #0
  402642:	4b4c      	ldr	r3, [pc, #304]	; (402774 <main+0x314>)
  402644:	601a      	str	r2, [r3, #0]
			if (frameNumber > writeFrameNum)		// They're both zero...what's going on?
  402646:	f8da 3000 	ldr.w	r3, [sl]
  40264a:	429c      	cmp	r4, r3
  40264c:	d2ea      	bcs.n	402624 <main+0x1c4>
				switch (writeFrameNum % 3)
  40264e:	4b4a      	ldr	r3, [pc, #296]	; (402778 <main+0x318>)
  402650:	fba3 2304 	umull	r2, r3, r3, r4
  402654:	085b      	lsrs	r3, r3, #1
  402656:	eb03 0343 	add.w	r3, r3, r3, lsl #1
  40265a:	1ae3      	subs	r3, r4, r3
  40265c:	2b01      	cmp	r3, #1
  40265e:	d015      	beq.n	40268c <main+0x22c>
  402660:	2b00      	cmp	r3, #0
  402662:	d0bc      	beq.n	4025de <main+0x17e>
  402664:	2b02      	cmp	r3, #2
  402666:	d1cb      	bne.n	402600 <main+0x1a0>
						imageBuffer2[buffSize-2] = time_tick_calc_delay(tick_start, time_tick_get());
  402668:	4b3b      	ldr	r3, [pc, #236]	; (402758 <main+0x2f8>)
  40266a:	681b      	ldr	r3, [r3, #0]
  40266c:	f1a3 0902 	sub.w	r9, r3, #2
  402670:	f8d7 b000 	ldr.w	fp, [r7]
  402674:	47b0      	blx	r6
  402676:	4601      	mov	r1, r0
  402678:	4658      	mov	r0, fp
  40267a:	47a8      	blx	r5
  40267c:	4b3f      	ldr	r3, [pc, #252]	; (40277c <main+0x31c>)
  40267e:	f843 0029 	str.w	r0, [r3, r9, lsl #2]
						sd_mmc_start_write_blocks(&imageBuffer2[0], NB_BLOCKS_PER_WRITE);	// NB_BLOCKS_PER_WRITE
  402682:	21a5      	movs	r1, #165	; 0xa5
  402684:	4618      	mov	r0, r3
  402686:	4b36      	ldr	r3, [pc, #216]	; (402760 <main+0x300>)
  402688:	4798      	blx	r3
					break;
  40268a:	e7b9      	b.n	402600 <main+0x1a0>
						imageBuffer1[buffSize-2] = time_tick_calc_delay(tick_start, time_tick_get());
  40268c:	4b32      	ldr	r3, [pc, #200]	; (402758 <main+0x2f8>)
  40268e:	681b      	ldr	r3, [r3, #0]
  402690:	f1a3 0902 	sub.w	r9, r3, #2
  402694:	f8d7 b000 	ldr.w	fp, [r7]
  402698:	47b0      	blx	r6
  40269a:	4601      	mov	r1, r0
  40269c:	4658      	mov	r0, fp
  40269e:	47a8      	blx	r5
  4026a0:	4b37      	ldr	r3, [pc, #220]	; (402780 <main+0x320>)
  4026a2:	f843 0029 	str.w	r0, [r3, r9, lsl #2]
						sd_mmc_start_write_blocks(&imageBuffer1[0], NB_BLOCKS_PER_WRITE);	// NB_BLOCKS_PER_WRITE
  4026a6:	21a5      	movs	r1, #165	; 0xa5
  4026a8:	4618      	mov	r0, r3
  4026aa:	4b2d      	ldr	r3, [pc, #180]	; (402760 <main+0x300>)
  4026ac:	4798      	blx	r3
					break;
  4026ae:	e7a7      	b.n	402600 <main+0x1a0>
					curBlock += 50*NB_BLOCKS_PER_FRAME;
  4026b0:	f642 52c6 	movw	r2, #11718	; 0x2dc6
  4026b4:	4490      	add	r8, r2
					sd_mmc_init_write_blocks(SD_SLOT_NB, curBlock, 50 * NB_BLOCKS_PER_FRAME);
  4026b6:	4641      	mov	r1, r8
  4026b8:	2000      	movs	r0, #0
  4026ba:	4b21      	ldr	r3, [pc, #132]	; (402740 <main+0x2e0>)
  4026bc:	4798      	blx	r3
  4026be:	e7b1      	b.n	402624 <main+0x1c4>
		base->PIO_CODR = arch_ioport_pin_to_mask(pin);
  4026c0:	2202      	movs	r2, #2
  4026c2:	4b11      	ldr	r3, [pc, #68]	; (402708 <main+0x2a8>)
  4026c4:	635a      	str	r2, [r3, #52]	; 0x34
  4026c6:	2201      	movs	r2, #1
  4026c8:	f5a3 63c0 	sub.w	r3, r3, #1536	; 0x600
  4026cc:	635a      	str	r2, [r3, #52]	; 0x34
  4026ce:	e7fe      	b.n	4026ce <main+0x26e>
  4026d0:	400e1850 	.word	0x400e1850
  4026d4:	20400010 	.word	0x20400010
  4026d8:	00401e09 	.word	0x00401e09
  4026dc:	004020a9 	.word	0x004020a9
  4026e0:	00401f9d 	.word	0x00401f9d
  4026e4:	004017ad 	.word	0x004017ad
  4026e8:	00401dc1 	.word	0x00401dc1
  4026ec:	004023f1 	.word	0x004023f1
  4026f0:	004011e5 	.word	0x004011e5
  4026f4:	00401151 	.word	0x00401151
  4026f8:	004023bd 	.word	0x004023bd
  4026fc:	00401cd5 	.word	0x00401cd5
  402700:	0040027d 	.word	0x0040027d
  402704:	0040029d 	.word	0x0040029d
  402708:	400e1400 	.word	0x400e1400
  40270c:	00250a78 	.word	0x00250a78
  402710:	20400001 	.word	0x20400001
  402714:	004008f9 	.word	0x004008f9
  402718:	400e0e00 	.word	0x400e0e00
  40271c:	0040091d 	.word	0x0040091d
  402720:	073c0b67 	.word	0x073c0b67
  402724:	004017f1 	.word	0x004017f1
  402728:	20400510 	.word	0x20400510
  40272c:	20400538 	.word	0x20400538
  402730:	40020000 	.word	0x40020000
  402734:	00401135 	.word	0x00401135
  402738:	00401a19 	.word	0x00401a19
  40273c:	00401781 	.word	0x00401781
  402740:	00400aa5 	.word	0x00400aa5
  402744:	00401ded 	.word	0x00401ded
  402748:	204583d0 	.word	0x204583d0
  40274c:	20400528 	.word	0x20400528
  402750:	400e1000 	.word	0x400e1000
  402754:	00401df9 	.word	0x00401df9
  402758:	00402a30 	.word	0x00402a30
  40275c:	2043af10 	.word	0x2043af10
  402760:	00400b31 	.word	0x00400b31
  402764:	00400b59 	.word	0x00400b59
  402768:	20400524 	.word	0x20400524
  40276c:	51eb851f 	.word	0x51eb851f
  402770:	20400518 	.word	0x20400518
  402774:	2040052c 	.word	0x2040052c
  402778:	aaaaaaab 	.word	0xaaaaaaab
  40277c:	2041da50 	.word	0x2041da50
  402780:	20400590 	.word	0x20400590
  402784:	2040050c 	.word	0x2040050c

00402788 <__libc_init_array>:
  402788:	b570      	push	{r4, r5, r6, lr}
  40278a:	4e0f      	ldr	r6, [pc, #60]	; (4027c8 <__libc_init_array+0x40>)
  40278c:	4d0f      	ldr	r5, [pc, #60]	; (4027cc <__libc_init_array+0x44>)
  40278e:	1b76      	subs	r6, r6, r5
  402790:	10b6      	asrs	r6, r6, #2
  402792:	bf18      	it	ne
  402794:	2400      	movne	r4, #0
  402796:	d005      	beq.n	4027a4 <__libc_init_array+0x1c>
  402798:	3401      	adds	r4, #1
  40279a:	f855 3b04 	ldr.w	r3, [r5], #4
  40279e:	4798      	blx	r3
  4027a0:	42a6      	cmp	r6, r4
  4027a2:	d1f9      	bne.n	402798 <__libc_init_array+0x10>
  4027a4:	4e0a      	ldr	r6, [pc, #40]	; (4027d0 <__libc_init_array+0x48>)
  4027a6:	4d0b      	ldr	r5, [pc, #44]	; (4027d4 <__libc_init_array+0x4c>)
  4027a8:	1b76      	subs	r6, r6, r5
  4027aa:	f000 f945 	bl	402a38 <_init>
  4027ae:	10b6      	asrs	r6, r6, #2
  4027b0:	bf18      	it	ne
  4027b2:	2400      	movne	r4, #0
  4027b4:	d006      	beq.n	4027c4 <__libc_init_array+0x3c>
  4027b6:	3401      	adds	r4, #1
  4027b8:	f855 3b04 	ldr.w	r3, [r5], #4
  4027bc:	4798      	blx	r3
  4027be:	42a6      	cmp	r6, r4
  4027c0:	d1f9      	bne.n	4027b6 <__libc_init_array+0x2e>
  4027c2:	bd70      	pop	{r4, r5, r6, pc}
  4027c4:	bd70      	pop	{r4, r5, r6, pc}
  4027c6:	bf00      	nop
  4027c8:	00402a44 	.word	0x00402a44
  4027cc:	00402a44 	.word	0x00402a44
  4027d0:	00402a4c 	.word	0x00402a4c
  4027d4:	00402a44 	.word	0x00402a44

004027d8 <memset>:
  4027d8:	b470      	push	{r4, r5, r6}
  4027da:	0786      	lsls	r6, r0, #30
  4027dc:	d046      	beq.n	40286c <memset+0x94>
  4027de:	1e54      	subs	r4, r2, #1
  4027e0:	2a00      	cmp	r2, #0
  4027e2:	d041      	beq.n	402868 <memset+0x90>
  4027e4:	b2ca      	uxtb	r2, r1
  4027e6:	4603      	mov	r3, r0
  4027e8:	e002      	b.n	4027f0 <memset+0x18>
  4027ea:	f114 34ff 	adds.w	r4, r4, #4294967295
  4027ee:	d33b      	bcc.n	402868 <memset+0x90>
  4027f0:	f803 2b01 	strb.w	r2, [r3], #1
  4027f4:	079d      	lsls	r5, r3, #30
  4027f6:	d1f8      	bne.n	4027ea <memset+0x12>
  4027f8:	2c03      	cmp	r4, #3
  4027fa:	d92e      	bls.n	40285a <memset+0x82>
  4027fc:	b2cd      	uxtb	r5, r1
  4027fe:	ea45 2505 	orr.w	r5, r5, r5, lsl #8
  402802:	2c0f      	cmp	r4, #15
  402804:	ea45 4505 	orr.w	r5, r5, r5, lsl #16
  402808:	d919      	bls.n	40283e <memset+0x66>
  40280a:	f103 0210 	add.w	r2, r3, #16
  40280e:	4626      	mov	r6, r4
  402810:	3e10      	subs	r6, #16
  402812:	2e0f      	cmp	r6, #15
  402814:	f842 5c10 	str.w	r5, [r2, #-16]
  402818:	f842 5c0c 	str.w	r5, [r2, #-12]
  40281c:	f842 5c08 	str.w	r5, [r2, #-8]
  402820:	f842 5c04 	str.w	r5, [r2, #-4]
  402824:	f102 0210 	add.w	r2, r2, #16
  402828:	d8f2      	bhi.n	402810 <memset+0x38>
  40282a:	f1a4 0210 	sub.w	r2, r4, #16
  40282e:	f022 020f 	bic.w	r2, r2, #15
  402832:	f004 040f 	and.w	r4, r4, #15
  402836:	3210      	adds	r2, #16
  402838:	2c03      	cmp	r4, #3
  40283a:	4413      	add	r3, r2
  40283c:	d90d      	bls.n	40285a <memset+0x82>
  40283e:	461e      	mov	r6, r3
  402840:	4622      	mov	r2, r4
  402842:	3a04      	subs	r2, #4
  402844:	2a03      	cmp	r2, #3
  402846:	f846 5b04 	str.w	r5, [r6], #4
  40284a:	d8fa      	bhi.n	402842 <memset+0x6a>
  40284c:	1f22      	subs	r2, r4, #4
  40284e:	f022 0203 	bic.w	r2, r2, #3
  402852:	3204      	adds	r2, #4
  402854:	4413      	add	r3, r2
  402856:	f004 0403 	and.w	r4, r4, #3
  40285a:	b12c      	cbz	r4, 402868 <memset+0x90>
  40285c:	b2c9      	uxtb	r1, r1
  40285e:	441c      	add	r4, r3
  402860:	f803 1b01 	strb.w	r1, [r3], #1
  402864:	429c      	cmp	r4, r3
  402866:	d1fb      	bne.n	402860 <memset+0x88>
  402868:	bc70      	pop	{r4, r5, r6}
  40286a:	4770      	bx	lr
  40286c:	4614      	mov	r4, r2
  40286e:	4603      	mov	r3, r0
  402870:	e7c2      	b.n	4027f8 <memset+0x20>
  402872:	bf00      	nop

00402874 <register_fini>:
  402874:	4b02      	ldr	r3, [pc, #8]	; (402880 <register_fini+0xc>)
  402876:	b113      	cbz	r3, 40287e <register_fini+0xa>
  402878:	4802      	ldr	r0, [pc, #8]	; (402884 <register_fini+0x10>)
  40287a:	f000 b805 	b.w	402888 <atexit>
  40287e:	4770      	bx	lr
  402880:	00000000 	.word	0x00000000
  402884:	00402895 	.word	0x00402895

00402888 <atexit>:
  402888:	2300      	movs	r3, #0
  40288a:	4601      	mov	r1, r0
  40288c:	461a      	mov	r2, r3
  40288e:	4618      	mov	r0, r3
  402890:	f000 b81e 	b.w	4028d0 <__register_exitproc>

00402894 <__libc_fini_array>:
  402894:	b538      	push	{r3, r4, r5, lr}
  402896:	4c0a      	ldr	r4, [pc, #40]	; (4028c0 <__libc_fini_array+0x2c>)
  402898:	4d0a      	ldr	r5, [pc, #40]	; (4028c4 <__libc_fini_array+0x30>)
  40289a:	1b64      	subs	r4, r4, r5
  40289c:	10a4      	asrs	r4, r4, #2
  40289e:	d00a      	beq.n	4028b6 <__libc_fini_array+0x22>
  4028a0:	f104 4380 	add.w	r3, r4, #1073741824	; 0x40000000
  4028a4:	3b01      	subs	r3, #1
  4028a6:	eb05 0583 	add.w	r5, r5, r3, lsl #2
  4028aa:	3c01      	subs	r4, #1
  4028ac:	f855 3904 	ldr.w	r3, [r5], #-4
  4028b0:	4798      	blx	r3
  4028b2:	2c00      	cmp	r4, #0
  4028b4:	d1f9      	bne.n	4028aa <__libc_fini_array+0x16>
  4028b6:	e8bd 4038 	ldmia.w	sp!, {r3, r4, r5, lr}
  4028ba:	f000 b8c7 	b.w	402a4c <_fini>
  4028be:	bf00      	nop
  4028c0:	00402a5c 	.word	0x00402a5c
  4028c4:	00402a58 	.word	0x00402a58

004028c8 <__retarget_lock_acquire_recursive>:
  4028c8:	4770      	bx	lr
  4028ca:	bf00      	nop

004028cc <__retarget_lock_release_recursive>:
  4028cc:	4770      	bx	lr
  4028ce:	bf00      	nop

004028d0 <__register_exitproc>:
  4028d0:	e92d 43f8 	stmdb	sp!, {r3, r4, r5, r6, r7, r8, r9, lr}
  4028d4:	4d2c      	ldr	r5, [pc, #176]	; (402988 <__register_exitproc+0xb8>)
  4028d6:	4606      	mov	r6, r0
  4028d8:	6828      	ldr	r0, [r5, #0]
  4028da:	4698      	mov	r8, r3
  4028dc:	460f      	mov	r7, r1
  4028de:	4691      	mov	r9, r2
  4028e0:	f7ff fff2 	bl	4028c8 <__retarget_lock_acquire_recursive>
  4028e4:	4b29      	ldr	r3, [pc, #164]	; (40298c <__register_exitproc+0xbc>)
  4028e6:	681c      	ldr	r4, [r3, #0]
  4028e8:	f8d4 3148 	ldr.w	r3, [r4, #328]	; 0x148
  4028ec:	2b00      	cmp	r3, #0
  4028ee:	d03e      	beq.n	40296e <__register_exitproc+0x9e>
  4028f0:	685a      	ldr	r2, [r3, #4]
  4028f2:	2a1f      	cmp	r2, #31
  4028f4:	dc1c      	bgt.n	402930 <__register_exitproc+0x60>
  4028f6:	f102 0e01 	add.w	lr, r2, #1
  4028fa:	b176      	cbz	r6, 40291a <__register_exitproc+0x4a>
  4028fc:	eb03 0182 	add.w	r1, r3, r2, lsl #2
  402900:	2401      	movs	r4, #1
  402902:	f8c1 9088 	str.w	r9, [r1, #136]	; 0x88
  402906:	f8d3 0188 	ldr.w	r0, [r3, #392]	; 0x188
  40290a:	4094      	lsls	r4, r2
  40290c:	4320      	orrs	r0, r4
  40290e:	2e02      	cmp	r6, #2
  402910:	f8c3 0188 	str.w	r0, [r3, #392]	; 0x188
  402914:	f8c1 8108 	str.w	r8, [r1, #264]	; 0x108
  402918:	d023      	beq.n	402962 <__register_exitproc+0x92>
  40291a:	3202      	adds	r2, #2
  40291c:	f8c3 e004 	str.w	lr, [r3, #4]
  402920:	6828      	ldr	r0, [r5, #0]
  402922:	f843 7022 	str.w	r7, [r3, r2, lsl #2]
  402926:	f7ff ffd1 	bl	4028cc <__retarget_lock_release_recursive>
  40292a:	2000      	movs	r0, #0
  40292c:	e8bd 83f8 	ldmia.w	sp!, {r3, r4, r5, r6, r7, r8, r9, pc}
  402930:	4b17      	ldr	r3, [pc, #92]	; (402990 <__register_exitproc+0xc0>)
  402932:	b30b      	cbz	r3, 402978 <__register_exitproc+0xa8>
  402934:	f44f 70c8 	mov.w	r0, #400	; 0x190
  402938:	f3af 8000 	nop.w
  40293c:	4603      	mov	r3, r0
  40293e:	b1d8      	cbz	r0, 402978 <__register_exitproc+0xa8>
  402940:	f8d4 2148 	ldr.w	r2, [r4, #328]	; 0x148
  402944:	6002      	str	r2, [r0, #0]
  402946:	2100      	movs	r1, #0
  402948:	6041      	str	r1, [r0, #4]
  40294a:	460a      	mov	r2, r1
  40294c:	f8c4 0148 	str.w	r0, [r4, #328]	; 0x148
  402950:	f04f 0e01 	mov.w	lr, #1
  402954:	f8c0 1188 	str.w	r1, [r0, #392]	; 0x188
  402958:	f8c0 118c 	str.w	r1, [r0, #396]	; 0x18c
  40295c:	2e00      	cmp	r6, #0
  40295e:	d0dc      	beq.n	40291a <__register_exitproc+0x4a>
  402960:	e7cc      	b.n	4028fc <__register_exitproc+0x2c>
  402962:	f8d3 118c 	ldr.w	r1, [r3, #396]	; 0x18c
  402966:	430c      	orrs	r4, r1
  402968:	f8c3 418c 	str.w	r4, [r3, #396]	; 0x18c
  40296c:	e7d5      	b.n	40291a <__register_exitproc+0x4a>
  40296e:	f504 73a6 	add.w	r3, r4, #332	; 0x14c
  402972:	f8c4 3148 	str.w	r3, [r4, #328]	; 0x148
  402976:	e7bb      	b.n	4028f0 <__register_exitproc+0x20>
  402978:	6828      	ldr	r0, [r5, #0]
  40297a:	f7ff ffa7 	bl	4028cc <__retarget_lock_release_recursive>
  40297e:	f04f 30ff 	mov.w	r0, #4294967295
  402982:	e8bd 83f8 	ldmia.w	sp!, {r3, r4, r5, r6, r7, r8, r9, pc}
  402986:	bf00      	nop
  402988:	20400440 	.word	0x20400440
  40298c:	00402a34 	.word	0x00402a34
  402990:	00000000 	.word	0x00000000

00402994 <mmc_trans_multipliers>:
  402994:	00000000 0000000a 0000000c 0000000d     ................
  4029a4:	0000000f 00000014 0000001a 0000001e     ................
  4029b4:	00000023 00000028 0000002d 00000034     #...(...-...4...
  4029c4:	00000037 0000003c 00000046 00000050     7...<...F...P...

004029d4 <sd_mmc_trans_units>:
  4029d4:	0000000a 00000064 000003e8 00002710     ....d........'..
	...

004029f0 <sd_trans_multipliers>:
  4029f0:	00000000 0000000a 0000000c 0000000d     ................
  402a00:	0000000f 00000014 00000019 0000001e     ................
  402a10:	00000023 00000028 0000002d 00000032     #...(...-...2...
  402a20:	00000037 0000003c 00000046 00000050     7...<...F...P...

00402a30 <buffSize>:
  402a30:	00007530                                0u..

00402a34 <_global_impure_ptr>:
  402a34:	20400018                                ..@ 

00402a38 <_init>:
  402a38:	b5f8      	push	{r3, r4, r5, r6, r7, lr}
  402a3a:	bf00      	nop
  402a3c:	bcf8      	pop	{r3, r4, r5, r6, r7}
  402a3e:	bc08      	pop	{r3}
  402a40:	469e      	mov	lr, r3
  402a42:	4770      	bx	lr

00402a44 <__init_array_start>:
  402a44:	00402875 	.word	0x00402875

00402a48 <__frame_dummy_init_array_entry>:
  402a48:	00400165                                e.@.

00402a4c <_fini>:
  402a4c:	b5f8      	push	{r3, r4, r5, r6, r7, lr}
  402a4e:	bf00      	nop
  402a50:	bcf8      	pop	{r3, r4, r5, r6, r7}
  402a52:	bc08      	pop	{r3}
  402a54:	469e      	mov	lr, r3
  402a56:	4770      	bx	lr

00402a58 <__fini_array_start>:
  402a58:	00400141 	.word	0x00400141

Disassembly of section .relocate:

20400000 <portable_delay_cycles>:
RAMFUNC
void portable_delay_cycles(unsigned long n)
{
	UNUSED(n);

	__asm (
20400000:	f3bf 8f5f 	dmb	sy
20400004:	3801      	subs	r0, #1
20400006:	d1fb      	bne.n	20400000 <portable_delay_cycles>
20400008:	4770      	bx	lr
	...

2040000c <gain>:
2040000c:	0001 0000                                   ....

20400010 <g_interrupt_enabled>:
20400010:	0001 0000                                   ....

20400014 <SystemCoreClock>:
20400014:	0900 003d                                   ..=.

20400018 <impure_data>:
20400018:	0000 0000 0304 2040 036c 2040 03d4 2040     ......@ l.@ ..@ 
	...
204000c0:	0001 0000 0000 0000 330e abcd 1234 e66d     .........3..4.m.
204000d0:	deec 0005 000b 0000 0000 0000 0000 0000     ................
	...

20400440 <__atexit_recursive_mutex>:
20400440:	83d8 2045                                   ..E 
