
MiniscopeUntethered.elf:     file format elf32-littlearm

Sections:
Idx Name          Size      VMA       LMA       File off  Algn
  0 .text         00002408  00400000  00400000  00010000  2**2
                  CONTENTS, ALLOC, LOAD, READONLY, CODE
  1 .relocate     00000444  20400000  00402408  00020000  2**3
                  CONTENTS, ALLOC, LOAD, CODE
  2 .bss          0003e108  20400448  00402850  00020444  2**3
                  ALLOC
  3 .stack        00002000  2043e550  00440958  00020444  2**0
                  ALLOC
  4 .heap         00000200  20440550  00442958  00020444  2**0
                  ALLOC
  5 .ARM.attributes 0000002e  00000000  00000000  00020444  2**0
                  CONTENTS, READONLY
  6 .comment      00000059  00000000  00000000  00020472  2**0
                  CONTENTS, READONLY
  7 .debug_frame  000001f4  00000000  00000000  000204cc  2**2
                  CONTENTS, READONLY, DEBUGGING

Disassembly of section .text:

00400000 <exception_table>:
  400000:	50 05 44 20 6d 14 40 00 69 14 40 00 69 14 40 00     P.D m.@.i.@.i.@.
  400010:	69 14 40 00 69 14 40 00 69 14 40 00 00 00 00 00     i.@.i.@.i.@.....
	...
  40002c:	69 14 40 00 69 14 40 00 00 00 00 00 69 14 40 00     i.@.i.@.....i.@.
  40003c:	71 11 40 00 69 14 40 00 69 14 40 00 69 14 40 00     q.@.i.@.i.@.i.@.
  40004c:	69 14 40 00 69 14 40 00 69 14 40 00 69 14 40 00     i.@.i.@.i.@.i.@.
  40005c:	69 14 40 00 69 14 40 00 00 00 00 00 8d 1b 40 00     i.@.i.@.......@.
  40006c:	69 14 40 00 00 00 00 00 69 14 40 00 69 14 40 00     i.@.....i.@.i.@.
  40007c:	69 14 40 00 69 14 40 00 00 00 00 00 69 14 40 00     i.@.i.@.....i.@.
  40008c:	69 14 40 00 69 14 40 00 69 14 40 00 69 14 40 00     i.@.i.@.i.@.i.@.
  40009c:	69 14 40 00 69 14 40 00 69 14 40 00 00 00 00 00     i.@.i.@.i.@.....
	...
  4000b4:	69 14 40 00 69 14 40 00 69 14 40 00 69 14 40 00     i.@.i.@.i.@.i.@.
  4000c4:	69 14 40 00 69 14 40 00 69 14 40 00 00 00 00 00     i.@.i.@.i.@.....
  4000d4:	69 14 40 00 00 00 00 00 69 14 40 00 69 14 40 00     i.@.....i.@.i.@.
  4000e4:	69 14 40 00 69 14 40 00 69 14 40 00 69 14 40 00     i.@.i.@.i.@.i.@.
  4000f4:	69 14 40 00 69 14 40 00 00 00 00 00 00 00 00 00     i.@.i.@.........
  400104:	00 00 00 00 69 14 40 00 69 14 40 00 69 14 40 00     ....i.@.i.@.i.@.
	...
  400120:	69 14 40 00 69 14 40 00 c5 1b 40 00 69 14 40 00     i.@.i.@...@.i.@.
  400130:	69 14 40 00 00 00 00 00 00 00 00 00 69 14 40 00     i.@.........i.@.

00400140 <__do_global_dtors_aux>:
  400140:	b510      	push	{r4, lr}
  400142:	4c05      	ldr	r4, [pc, #20]	; (400158 <__do_global_dtors_aux+0x18>)
  400144:	7823      	ldrb	r3, [r4, #0]
  400146:	b933      	cbnz	r3, 400156 <__do_global_dtors_aux+0x16>
  400148:	4b04      	ldr	r3, [pc, #16]	; (40015c <__do_global_dtors_aux+0x1c>)
  40014a:	b113      	cbz	r3, 400152 <__do_global_dtors_aux+0x12>
  40014c:	4804      	ldr	r0, [pc, #16]	; (400160 <__do_global_dtors_aux+0x20>)
  40014e:	f3af 8000 	nop.w
  400152:	2301      	movs	r3, #1
  400154:	7023      	strb	r3, [r4, #0]
  400156:	bd10      	pop	{r4, pc}
  400158:	20400448 	.word	0x20400448
  40015c:	00000000 	.word	0x00000000
  400160:	00402408 	.word	0x00402408

00400164 <frame_dummy>:
  400164:	4b0c      	ldr	r3, [pc, #48]	; (400198 <frame_dummy+0x34>)
  400166:	b143      	cbz	r3, 40017a <frame_dummy+0x16>
  400168:	480c      	ldr	r0, [pc, #48]	; (40019c <frame_dummy+0x38>)
  40016a:	490d      	ldr	r1, [pc, #52]	; (4001a0 <frame_dummy+0x3c>)
  40016c:	b510      	push	{r4, lr}
  40016e:	f3af 8000 	nop.w
  400172:	480c      	ldr	r0, [pc, #48]	; (4001a4 <frame_dummy+0x40>)
  400174:	6803      	ldr	r3, [r0, #0]
  400176:	b923      	cbnz	r3, 400182 <frame_dummy+0x1e>
  400178:	bd10      	pop	{r4, pc}
  40017a:	480a      	ldr	r0, [pc, #40]	; (4001a4 <frame_dummy+0x40>)
  40017c:	6803      	ldr	r3, [r0, #0]
  40017e:	b933      	cbnz	r3, 40018e <frame_dummy+0x2a>
  400180:	4770      	bx	lr
  400182:	4b09      	ldr	r3, [pc, #36]	; (4001a8 <frame_dummy+0x44>)
  400184:	2b00      	cmp	r3, #0
  400186:	d0f7      	beq.n	400178 <frame_dummy+0x14>
  400188:	e8bd 4010 	ldmia.w	sp!, {r4, lr}
  40018c:	4718      	bx	r3
  40018e:	4b06      	ldr	r3, [pc, #24]	; (4001a8 <frame_dummy+0x44>)
  400190:	2b00      	cmp	r3, #0
  400192:	d0f5      	beq.n	400180 <frame_dummy+0x1c>
  400194:	4718      	bx	r3
  400196:	bf00      	nop
  400198:	00000000 	.word	0x00000000
  40019c:	00402408 	.word	0x00402408
  4001a0:	2040044c 	.word	0x2040044c
  4001a4:	00402408 	.word	0x00402408
  4001a8:	00000000 	.word	0x00000000

004001ac <SDMMC_UNSTUFF_BITS>:
  4001ac:	1a89      	subs	r1, r1, r2
  4001ae:	f002 0207 	and.w	r2, r2, #7
  4001b2:	b570      	push	{r4, r5, r6, lr}
  4001b4:	3107      	adds	r1, #7
  4001b6:	2408      	movs	r4, #8
  4001b8:	18d5      	adds	r5, r2, r3
  4001ba:	fb91 f1f4 	sdiv	r1, r1, r4
  4001be:	4401      	add	r1, r0
  4001c0:	2d08      	cmp	r5, #8
  4001c2:	f811 4c01 	ldrb.w	r4, [r1, #-1]
  4001c6:	fa44 f402 	asr.w	r4, r4, r2
  4001ca:	dd12      	ble.n	4001f2 <SDMMC_UNSTUFF_BITS+0x46>
  4001cc:	2d10      	cmp	r5, #16
  4001ce:	f1c2 0608 	rsb	r6, r2, #8
  4001d2:	f811 0c02 	ldrb.w	r0, [r1, #-2]
  4001d6:	bfc4      	itt	gt
  4001d8:	f1c2 0210 	rsbgt	r2, r2, #16
  4001dc:	f811 1c03 	ldrbgt.w	r1, [r1, #-3]
  4001e0:	fa00 f006 	lsl.w	r0, r0, r6
  4001e4:	bfc8      	it	gt
  4001e6:	fa01 f202 	lslgt.w	r2, r1, r2
  4001ea:	ea44 0400 	orr.w	r4, r4, r0
  4001ee:	bfc8      	it	gt
  4001f0:	4314      	orrgt	r4, r2
  4001f2:	2001      	movs	r0, #1
  4001f4:	4098      	lsls	r0, r3
  4001f6:	3801      	subs	r0, #1
  4001f8:	4020      	ands	r0, r4
  4001fa:	bd70      	pop	{r4, r5, r6, pc}

004001fc <sd_mmc_configure_slot>:
  4001fc:	4b07      	ldr	r3, [pc, #28]	; (40021c <sd_mmc_configure_slot+0x20>)
  4001fe:	4808      	ldr	r0, [pc, #32]	; (400220 <sd_mmc_configure_slot+0x24>)
  400200:	b410      	push	{r4}
  400202:	6819      	ldr	r1, [r3, #0]
  400204:	4c07      	ldr	r4, [pc, #28]	; (400224 <sd_mmc_configure_slot+0x28>)
  400206:	7f8b      	ldrb	r3, [r1, #30]
  400208:	7b4a      	ldrb	r2, [r1, #13]
  40020a:	46a4      	mov	ip, r4
  40020c:	3300      	adds	r3, #0
  40020e:	6809      	ldr	r1, [r1, #0]
  400210:	7800      	ldrb	r0, [r0, #0]
  400212:	bf18      	it	ne
  400214:	2301      	movne	r3, #1
  400216:	f85d 4b04 	ldr.w	r4, [sp], #4
  40021a:	4760      	bx	ip
  40021c:	20400464 	.word	0x20400464
  400220:	2040048c 	.word	0x2040048c
  400224:	00400c11 	.word	0x00400c11

00400228 <sd_mmc_deselect_slot>:
  400228:	4b02      	ldr	r3, [pc, #8]	; (400234 <sd_mmc_deselect_slot+0xc>)
  40022a:	7818      	ldrb	r0, [r3, #0]
  40022c:	b908      	cbnz	r0, 400232 <sd_mmc_deselect_slot+0xa>
  40022e:	4b02      	ldr	r3, [pc, #8]	; (400238 <sd_mmc_deselect_slot+0x10>)
  400230:	4718      	bx	r3
  400232:	4770      	bx	lr
  400234:	2040048c 	.word	0x2040048c
  400238:	00400c75 	.word	0x00400c75

0040023c <sd_mmc_select_slot>:
  40023c:	b510      	push	{r4, lr}
  40023e:	b9b8      	cbnz	r0, 400270 <sd_mmc_select_slot+0x34>
  400240:	4c0c      	ldr	r4, [pc, #48]	; (400274 <sd_mmc_select_slot+0x38>)
  400242:	7aa3      	ldrb	r3, [r4, #10]
  400244:	3b03      	subs	r3, #3
  400246:	2b01      	cmp	r3, #1
  400248:	d806      	bhi.n	400258 <sd_mmc_select_slot+0x1c>
  40024a:	2302      	movs	r3, #2
  40024c:	77a0      	strb	r0, [r4, #30]
  40024e:	72a3      	strb	r3, [r4, #10]
  400250:	4b09      	ldr	r3, [pc, #36]	; (400278 <sd_mmc_select_slot+0x3c>)
  400252:	6023      	str	r3, [r4, #0]
  400254:	2301      	movs	r3, #1
  400256:	7363      	strb	r3, [r4, #13]
  400258:	2200      	movs	r2, #0
  40025a:	4b08      	ldr	r3, [pc, #32]	; (40027c <sd_mmc_select_slot+0x40>)
  40025c:	701a      	strb	r2, [r3, #0]
  40025e:	4b08      	ldr	r3, [pc, #32]	; (400280 <sd_mmc_select_slot+0x44>)
  400260:	601c      	str	r4, [r3, #0]
  400262:	4b08      	ldr	r3, [pc, #32]	; (400284 <sd_mmc_select_slot+0x48>)
  400264:	4798      	blx	r3
  400266:	7aa0      	ldrb	r0, [r4, #10]
  400268:	1e83      	subs	r3, r0, #2
  40026a:	4258      	negs	r0, r3
  40026c:	4158      	adcs	r0, r3
  40026e:	bd10      	pop	{r4, pc}
  400270:	2004      	movs	r0, #4
  400272:	bd10      	pop	{r4, pc}
  400274:	20400468 	.word	0x20400468
  400278:	00061a80 	.word	0x00061a80
  40027c:	2040048c 	.word	0x2040048c
  400280:	20400464 	.word	0x20400464
  400284:	004001fd 	.word	0x004001fd

00400288 <sd_mmc_cmd9_mci>:
  400288:	b538      	push	{r3, r4, r5, lr}
  40028a:	4d08      	ldr	r5, [pc, #32]	; (4002ac <sd_mmc_cmd9_mci+0x24>)
  40028c:	f641 3009 	movw	r0, #6921	; 0x1b09
  400290:	682b      	ldr	r3, [r5, #0]
  400292:	8919      	ldrh	r1, [r3, #8]
  400294:	4b06      	ldr	r3, [pc, #24]	; (4002b0 <sd_mmc_cmd9_mci+0x28>)
  400296:	0409      	lsls	r1, r1, #16
  400298:	4798      	blx	r3
  40029a:	4604      	mov	r4, r0
  40029c:	b118      	cbz	r0, 4002a6 <sd_mmc_cmd9_mci+0x1e>
  40029e:	6828      	ldr	r0, [r5, #0]
  4002a0:	4b04      	ldr	r3, [pc, #16]	; (4002b4 <sd_mmc_cmd9_mci+0x2c>)
  4002a2:	300e      	adds	r0, #14
  4002a4:	4798      	blx	r3
  4002a6:	4620      	mov	r0, r4
  4002a8:	bd38      	pop	{r3, r4, r5, pc}
  4002aa:	bf00      	nop
  4002ac:	20400464 	.word	0x20400464
  4002b0:	00400c95 	.word	0x00400c95
  4002b4:	00400cc5 	.word	0x00400cc5

004002b8 <sd_mmc_init>:
  4002b8:	2204      	movs	r2, #4
  4002ba:	4b03      	ldr	r3, [pc, #12]	; (4002c8 <sd_mmc_init+0x10>)
  4002bc:	729a      	strb	r2, [r3, #10]
  4002be:	22ff      	movs	r2, #255	; 0xff
  4002c0:	4b02      	ldr	r3, [pc, #8]	; (4002cc <sd_mmc_init+0x14>)
  4002c2:	701a      	strb	r2, [r3, #0]
  4002c4:	4b02      	ldr	r3, [pc, #8]	; (4002d0 <sd_mmc_init+0x18>)
  4002c6:	4718      	bx	r3
  4002c8:	20400468 	.word	0x20400468
  4002cc:	2040048c 	.word	0x2040048c
  4002d0:	00400bd5 	.word	0x00400bd5

004002d4 <sd_mmc_check>:
  4002d4:	e92d 4ff0 	stmdb	sp!, {r4, r5, r6, r7, r8, r9, sl, fp, lr}
  4002d8:	4b95      	ldr	r3, [pc, #596]	; (400530 <sd_mmc_check+0x25c>)
  4002da:	b097      	sub	sp, #92	; 0x5c
  4002dc:	4798      	blx	r3
  4002de:	2801      	cmp	r0, #1
  4002e0:	4607      	mov	r7, r0
  4002e2:	d005      	beq.n	4002f0 <sd_mmc_check+0x1c>
  4002e4:	4b93      	ldr	r3, [pc, #588]	; (400534 <sd_mmc_check+0x260>)
  4002e6:	4798      	blx	r3
  4002e8:	4638      	mov	r0, r7
  4002ea:	b017      	add	sp, #92	; 0x5c
  4002ec:	e8bd 8ff0 	ldmia.w	sp!, {r4, r5, r6, r7, r8, r9, sl, fp, pc}
  4002f0:	4c91      	ldr	r4, [pc, #580]	; (400538 <sd_mmc_check+0x264>)
  4002f2:	2500      	movs	r5, #0
  4002f4:	4e91      	ldr	r6, [pc, #580]	; (40053c <sd_mmc_check+0x268>)
  4002f6:	6823      	ldr	r3, [r4, #0]
  4002f8:	46b2      	mov	sl, r6
  4002fa:	72d8      	strb	r0, [r3, #11]
  4002fc:	731d      	strb	r5, [r3, #12]
  4002fe:	811d      	strh	r5, [r3, #8]
  400300:	47b0      	blx	r6
  400302:	4629      	mov	r1, r5
  400304:	f44f 4080 	mov.w	r0, #16384	; 0x4000
  400308:	4d8d      	ldr	r5, [pc, #564]	; (400540 <sd_mmc_check+0x26c>)
  40030a:	47a8      	blx	r5
  40030c:	2800      	cmp	r0, #0
  40030e:	f000 810b 	beq.w	400528 <sd_mmc_check+0x254>
  400312:	f44f 71d5 	mov.w	r1, #426	; 0x1aa
  400316:	f245 5008 	movw	r0, #21768	; 0x5508
  40031a:	47a8      	blx	r5
  40031c:	2800      	cmp	r0, #0
  40031e:	f000 82b5 	beq.w	40088c <sd_mmc_check+0x5b8>
  400322:	4b88      	ldr	r3, [pc, #544]	; (400544 <sd_mmc_check+0x270>)
  400324:	4798      	blx	r3
  400326:	1c41      	adds	r1, r0, #1
  400328:	f000 82b0 	beq.w	40088c <sd_mmc_check+0x5b8>
  40032c:	f3c0 000b 	ubfx	r0, r0, #0, #12
  400330:	f5b0 7fd5 	cmp.w	r0, #426	; 0x1aa
  400334:	f040 80f8 	bne.w	400528 <sd_mmc_check+0x254>
  400338:	463b      	mov	r3, r7
  40033a:	6822      	ldr	r2, [r4, #0]
  40033c:	7ad2      	ldrb	r2, [r2, #11]
  40033e:	07d2      	lsls	r2, r2, #31
  400340:	d527      	bpl.n	400392 <sd_mmc_check+0xbe>
  400342:	2b00      	cmp	r3, #0
  400344:	4b80      	ldr	r3, [pc, #512]	; (400548 <sd_mmc_check+0x274>)
  400346:	f640 0635 	movw	r6, #2101	; 0x835
  40034a:	f8df 91f8 	ldr.w	r9, [pc, #504]	; 400544 <sd_mmc_check+0x270>
  40034e:	bf14      	ite	ne
  400350:	4698      	movne	r8, r3
  400352:	f44f 18fc 	moveq.w	r8, #2064384	; 0x1f8000
  400356:	2100      	movs	r1, #0
  400358:	f241 1037 	movw	r0, #4407	; 0x1137
  40035c:	47a8      	blx	r5
  40035e:	2800      	cmp	r0, #0
  400360:	f000 8099 	beq.w	400496 <sd_mmc_check+0x1c2>
  400364:	4641      	mov	r1, r8
  400366:	f244 5029 	movw	r0, #17705	; 0x4529
  40036a:	47a8      	blx	r5
  40036c:	2800      	cmp	r0, #0
  40036e:	f000 8092 	beq.w	400496 <sd_mmc_check+0x1c2>
  400372:	47c8      	blx	r9
  400374:	2800      	cmp	r0, #0
  400376:	f280 808b 	bge.w	400490 <sd_mmc_check+0x1bc>
  40037a:	0042      	lsls	r2, r0, #1
  40037c:	d504      	bpl.n	400388 <sd_mmc_check+0xb4>
  40037e:	6822      	ldr	r2, [r4, #0]
  400380:	7ad3      	ldrb	r3, [r2, #11]
  400382:	f043 0308 	orr.w	r3, r3, #8
  400386:	72d3      	strb	r3, [r2, #11]
  400388:	6823      	ldr	r3, [r4, #0]
  40038a:	7adb      	ldrb	r3, [r3, #11]
  40038c:	07d8      	lsls	r0, r3, #31
  40038e:	f100 81bd 	bmi.w	40070c <sd_mmc_check+0x438>
  400392:	2100      	movs	r1, #0
  400394:	f245 1003 	movw	r0, #20739	; 0x5103
  400398:	47a8      	blx	r5
  40039a:	2800      	cmp	r0, #0
  40039c:	f000 80c4 	beq.w	400528 <sd_mmc_check+0x254>
  4003a0:	4e68      	ldr	r6, [pc, #416]	; (400544 <sd_mmc_check+0x270>)
  4003a2:	f8d4 8000 	ldr.w	r8, [r4]
  4003a6:	47b0      	blx	r6
  4003a8:	6823      	ldr	r3, [r4, #0]
  4003aa:	0c00      	lsrs	r0, r0, #16
  4003ac:	9603      	str	r6, [sp, #12]
  4003ae:	f8a8 0008 	strh.w	r0, [r8, #8]
  4003b2:	7adb      	ldrb	r3, [r3, #11]
  4003b4:	f013 0f01 	tst.w	r3, #1
  4003b8:	d030      	beq.n	40041c <sd_mmc_check+0x148>
  4003ba:	4b64      	ldr	r3, [pc, #400]	; (40054c <sd_mmc_check+0x278>)
  4003bc:	4798      	blx	r3
  4003be:	2800      	cmp	r0, #0
  4003c0:	f000 80b2 	beq.w	400528 <sd_mmc_check+0x254>
  4003c4:	f8d4 b000 	ldr.w	fp, [r4]
  4003c8:	2308      	movs	r3, #8
  4003ca:	2260      	movs	r2, #96	; 0x60
  4003cc:	2180      	movs	r1, #128	; 0x80
  4003ce:	f10b 090e 	add.w	r9, fp, #14
  4003d2:	f8df 8190 	ldr.w	r8, [pc, #400]	; 400564 <sd_mmc_check+0x290>
  4003d6:	4648      	mov	r0, r9
  4003d8:	47c0      	blx	r8
  4003da:	4b5d      	ldr	r3, [pc, #372]	; (400550 <sd_mmc_check+0x27c>)
  4003dc:	f3c0 01c3 	ubfx	r1, r0, #3, #4
  4003e0:	f000 0007 	and.w	r0, r0, #7
  4003e4:	f853 2020 	ldr.w	r2, [r3, r0, lsl #2]
  4003e8:	f44f 737a 	mov.w	r3, #1000	; 0x3e8
  4003ec:	4648      	mov	r0, r9
  4003ee:	4353      	muls	r3, r2
  4003f0:	4a58      	ldr	r2, [pc, #352]	; (400554 <sd_mmc_check+0x280>)
  4003f2:	f852 2021 	ldr.w	r2, [r2, r1, lsl #2]
  4003f6:	2180      	movs	r1, #128	; 0x80
  4003f8:	4353      	muls	r3, r2
  4003fa:	227e      	movs	r2, #126	; 0x7e
  4003fc:	f8cb 3000 	str.w	r3, [fp]
  400400:	2302      	movs	r3, #2
  400402:	47c0      	blx	r8
  400404:	2800      	cmp	r0, #0
  400406:	f000 8189 	beq.w	40071c <sd_mmc_check+0x448>
  40040a:	2316      	movs	r3, #22
  40040c:	2230      	movs	r2, #48	; 0x30
  40040e:	2180      	movs	r1, #128	; 0x80
  400410:	4648      	mov	r0, r9
  400412:	47c0      	blx	r8
  400414:	3001      	adds	r0, #1
  400416:	0240      	lsls	r0, r0, #9
  400418:	f8cb 0004 	str.w	r0, [fp, #4]
  40041c:	6823      	ldr	r3, [r4, #0]
  40041e:	f243 1007 	movw	r0, #12551	; 0x3107
  400422:	8919      	ldrh	r1, [r3, #8]
  400424:	0409      	lsls	r1, r1, #16
  400426:	47a8      	blx	r5
  400428:	2800      	cmp	r0, #0
  40042a:	d07d      	beq.n	400528 <sd_mmc_check+0x254>
  40042c:	6823      	ldr	r3, [r4, #0]
  40042e:	7ada      	ldrb	r2, [r3, #11]
  400430:	07d1      	lsls	r1, r2, #31
  400432:	f140 81aa 	bpl.w	40078a <sd_mmc_check+0x4b6>
  400436:	8919      	ldrh	r1, [r3, #8]
  400438:	f241 1037 	movw	r0, #4407	; 0x1137
  40043c:	0409      	lsls	r1, r1, #16
  40043e:	47a8      	blx	r5
  400440:	2800      	cmp	r0, #0
  400442:	d071      	beq.n	400528 <sd_mmc_check+0x254>
  400444:	2601      	movs	r6, #1
  400446:	2208      	movs	r2, #8
  400448:	2100      	movs	r1, #0
  40044a:	4843      	ldr	r0, [pc, #268]	; (400558 <sd_mmc_check+0x284>)
  40044c:	9600      	str	r6, [sp, #0]
  40044e:	4633      	mov	r3, r6
  400450:	f8df 8114 	ldr.w	r8, [pc, #276]	; 400568 <sd_mmc_check+0x294>
  400454:	47c0      	blx	r8
  400456:	2800      	cmp	r0, #0
  400458:	d066      	beq.n	400528 <sd_mmc_check+0x254>
  40045a:	4631      	mov	r1, r6
  40045c:	a806      	add	r0, sp, #24
  40045e:	4b3f      	ldr	r3, [pc, #252]	; (40055c <sd_mmc_check+0x288>)
  400460:	4798      	blx	r3
  400462:	2800      	cmp	r0, #0
  400464:	d060      	beq.n	400528 <sd_mmc_check+0x254>
  400466:	4b3e      	ldr	r3, [pc, #248]	; (400560 <sd_mmc_check+0x28c>)
  400468:	4798      	blx	r3
  40046a:	2800      	cmp	r0, #0
  40046c:	d05c      	beq.n	400528 <sd_mmc_check+0x254>
  40046e:	2304      	movs	r3, #4
  400470:	2238      	movs	r2, #56	; 0x38
  400472:	2140      	movs	r1, #64	; 0x40
  400474:	a806      	add	r0, sp, #24
  400476:	f8df 80ec 	ldr.w	r8, [pc, #236]	; 400564 <sd_mmc_check+0x290>
  40047a:	47c0      	blx	r8
  40047c:	42b0      	cmp	r0, r6
  40047e:	f000 8181 	beq.w	400784 <sd_mmc_check+0x4b0>
  400482:	d302      	bcc.n	40048a <sd_mmc_check+0x1b6>
  400484:	2802      	cmp	r0, #2
  400486:	f000 81f6 	beq.w	400876 <sd_mmc_check+0x5a2>
  40048a:	6823      	ldr	r3, [r4, #0]
  40048c:	2210      	movs	r2, #16
  40048e:	e17b      	b.n	400788 <sd_mmc_check+0x4b4>
  400490:	3e01      	subs	r6, #1
  400492:	f47f af60 	bne.w	400356 <sd_mmc_check+0x82>
  400496:	6823      	ldr	r3, [r4, #0]
  400498:	2202      	movs	r2, #2
  40049a:	2100      	movs	r1, #0
  40049c:	f44f 4080 	mov.w	r0, #16384	; 0x4000
  4004a0:	72da      	strb	r2, [r3, #11]
  4004a2:	47a8      	blx	r5
  4004a4:	2800      	cmp	r0, #0
  4004a6:	d03f      	beq.n	400528 <sd_mmc_check+0x254>
  4004a8:	f241 0669 	movw	r6, #4201	; 0x1069
  4004ac:	f8df 8098 	ldr.w	r8, [pc, #152]	; 400548 <sd_mmc_check+0x274>
  4004b0:	f8df b090 	ldr.w	fp, [pc, #144]	; 400544 <sd_mmc_check+0x270>
  4004b4:	4641      	mov	r1, r8
  4004b6:	f244 5001 	movw	r0, #17665	; 0x4501
  4004ba:	47a8      	blx	r5
  4004bc:	2800      	cmp	r0, #0
  4004be:	d033      	beq.n	400528 <sd_mmc_check+0x254>
  4004c0:	47d8      	blx	fp
  4004c2:	2800      	cmp	r0, #0
  4004c4:	da2e      	bge.n	400524 <sd_mmc_check+0x250>
  4004c6:	f000 40c0 	and.w	r0, r0, #1610612736	; 0x60000000
  4004ca:	f1b0 4f80 	cmp.w	r0, #1073741824	; 0x40000000
  4004ce:	d104      	bne.n	4004da <sd_mmc_check+0x206>
  4004d0:	6822      	ldr	r2, [r4, #0]
  4004d2:	7ad3      	ldrb	r3, [r2, #11]
  4004d4:	f043 0308 	orr.w	r3, r3, #8
  4004d8:	72d3      	strb	r3, [r2, #11]
  4004da:	2100      	movs	r1, #0
  4004dc:	f645 3002 	movw	r0, #23298	; 0x5b02
  4004e0:	47a8      	blx	r5
  4004e2:	b308      	cbz	r0, 400528 <sd_mmc_check+0x254>
  4004e4:	6823      	ldr	r3, [r4, #0]
  4004e6:	2201      	movs	r2, #1
  4004e8:	f44f 3180 	mov.w	r1, #65536	; 0x10000
  4004ec:	f241 1003 	movw	r0, #4355	; 0x1103
  4004f0:	811a      	strh	r2, [r3, #8]
  4004f2:	47a8      	blx	r5
  4004f4:	b1c0      	cbz	r0, 400528 <sd_mmc_check+0x254>
  4004f6:	4b15      	ldr	r3, [pc, #84]	; (40054c <sd_mmc_check+0x278>)
  4004f8:	4798      	blx	r3
  4004fa:	b1a8      	cbz	r0, 400528 <sd_mmc_check+0x254>
  4004fc:	f8d4 8000 	ldr.w	r8, [r4]
  400500:	2304      	movs	r3, #4
  400502:	4e18      	ldr	r6, [pc, #96]	; (400564 <sd_mmc_check+0x290>)
  400504:	227a      	movs	r2, #122	; 0x7a
  400506:	f108 0a0e 	add.w	sl, r8, #14
  40050a:	2180      	movs	r1, #128	; 0x80
  40050c:	46b1      	mov	r9, r6
  40050e:	4650      	mov	r0, sl
  400510:	47b0      	blx	r6
  400512:	3801      	subs	r0, #1
  400514:	2803      	cmp	r0, #3
  400516:	d829      	bhi.n	40056c <sd_mmc_check+0x298>
  400518:	e8df f010 	tbh	[pc, r0, lsl #1]
  40051c:	00ee00ec 	.word	0x00ee00ec
  400520:	00f200f0 	.word	0x00f200f0
  400524:	3e01      	subs	r6, #1
  400526:	d1c5      	bne.n	4004b4 <sd_mmc_check+0x1e0>
  400528:	6823      	ldr	r3, [r4, #0]
  40052a:	2703      	movs	r7, #3
  40052c:	729f      	strb	r7, [r3, #10]
  40052e:	e6d9      	b.n	4002e4 <sd_mmc_check+0x10>
  400530:	0040023d 	.word	0x0040023d
  400534:	00400229 	.word	0x00400229
  400538:	20400464 	.word	0x20400464
  40053c:	00400c77 	.word	0x00400c77
  400540:	00400c95 	.word	0x00400c95
  400544:	00400cbd 	.word	0x00400cbd
  400548:	401f8000 	.word	0x401f8000
  40054c:	00400289 	.word	0x00400289
  400550:	004022c4 	.word	0x004022c4
  400554:	004022e0 	.word	0x004022e0
  400558:	00081133 	.word	0x00081133
  40055c:	00400ded 	.word	0x00400ded
  400560:	00400f0d 	.word	0x00400f0d
  400564:	004001ad 	.word	0x004001ad
  400568:	00400cf1 	.word	0x00400cf1
  40056c:	2312      	movs	r3, #18
  40056e:	f888 300c 	strb.w	r3, [r8, #12]
  400572:	2260      	movs	r2, #96	; 0x60
  400574:	2308      	movs	r3, #8
  400576:	2180      	movs	r1, #128	; 0x80
  400578:	4650      	mov	r0, sl
  40057a:	47c8      	blx	r9
  40057c:	4b73      	ldr	r3, [pc, #460]	; (40074c <sd_mmc_check+0x478>)
  40057e:	f3c0 01c3 	ubfx	r1, r0, #3, #4
  400582:	f000 0007 	and.w	r0, r0, #7
  400586:	f853 2020 	ldr.w	r2, [r3, r0, lsl #2]
  40058a:	f44f 737a 	mov.w	r3, #1000	; 0x3e8
  40058e:	4650      	mov	r0, sl
  400590:	4353      	muls	r3, r2
  400592:	4a6f      	ldr	r2, [pc, #444]	; (400750 <sd_mmc_check+0x47c>)
  400594:	f852 2021 	ldr.w	r2, [r2, r1, lsl #2]
  400598:	2180      	movs	r1, #128	; 0x80
  40059a:	4353      	muls	r3, r2
  40059c:	223e      	movs	r2, #62	; 0x3e
  40059e:	f8c8 3000 	str.w	r3, [r8]
  4005a2:	230c      	movs	r3, #12
  4005a4:	47c8      	blx	r9
  4005a6:	f640 73ff 	movw	r3, #4095	; 0xfff
  4005aa:	4606      	mov	r6, r0
  4005ac:	4298      	cmp	r0, r3
  4005ae:	d010      	beq.n	4005d2 <sd_mmc_check+0x2fe>
  4005b0:	2303      	movs	r3, #3
  4005b2:	222f      	movs	r2, #47	; 0x2f
  4005b4:	2180      	movs	r1, #128	; 0x80
  4005b6:	4650      	mov	r0, sl
  4005b8:	47c8      	blx	r9
  4005ba:	3601      	adds	r6, #1
  4005bc:	3002      	adds	r0, #2
  4005be:	2304      	movs	r3, #4
  4005c0:	2250      	movs	r2, #80	; 0x50
  4005c2:	2180      	movs	r1, #128	; 0x80
  4005c4:	4086      	lsls	r6, r0
  4005c6:	4650      	mov	r0, sl
  4005c8:	47c8      	blx	r9
  4005ca:	4086      	lsls	r6, r0
  4005cc:	0ab6      	lsrs	r6, r6, #10
  4005ce:	f8c8 6004 	str.w	r6, [r8, #4]
  4005d2:	f8b8 1008 	ldrh.w	r1, [r8, #8]
  4005d6:	f243 1007 	movw	r0, #12551	; 0x3107
  4005da:	0409      	lsls	r1, r1, #16
  4005dc:	47a8      	blx	r5
  4005de:	2800      	cmp	r0, #0
  4005e0:	d0a2      	beq.n	400528 <sd_mmc_check+0x254>
  4005e2:	6823      	ldr	r3, [r4, #0]
  4005e4:	7b1b      	ldrb	r3, [r3, #12]
  4005e6:	2b3f      	cmp	r3, #63	; 0x3f
  4005e8:	d971      	bls.n	4006ce <sd_mmc_check+0x3fa>
  4005ea:	2100      	movs	r1, #0
  4005ec:	2301      	movs	r3, #1
  4005ee:	f44f 7200 	mov.w	r2, #512	; 0x200
  4005f2:	4858      	ldr	r0, [pc, #352]	; (400754 <sd_mmc_check+0x480>)
  4005f4:	9100      	str	r1, [sp, #0]
  4005f6:	4e58      	ldr	r6, [pc, #352]	; (400758 <sd_mmc_check+0x484>)
  4005f8:	47b0      	blx	r6
  4005fa:	2800      	cmp	r0, #0
  4005fc:	d094      	beq.n	400528 <sd_mmc_check+0x254>
  4005fe:	f8df 8180 	ldr.w	r8, [pc, #384]	; 400780 <sd_mmc_check+0x4ac>
  400602:	2632      	movs	r6, #50	; 0x32
  400604:	46c2      	mov	sl, r8
  400606:	a805      	add	r0, sp, #20
  400608:	47c0      	blx	r8
  40060a:	2800      	cmp	r0, #0
  40060c:	d08c      	beq.n	400528 <sd_mmc_check+0x254>
  40060e:	3e01      	subs	r6, #1
  400610:	b2b6      	uxth	r6, r6
  400612:	2e00      	cmp	r6, #0
  400614:	d1f7      	bne.n	400606 <sd_mmc_check+0x332>
  400616:	9b05      	ldr	r3, [sp, #20]
  400618:	223e      	movs	r2, #62	; 0x3e
  40061a:	6820      	ldr	r0, [r4, #0]
  40061c:	2180      	movs	r1, #128	; 0x80
  40061e:	f003 0802 	and.w	r8, r3, #2
  400622:	230c      	movs	r3, #12
  400624:	300e      	adds	r0, #14
  400626:	47c8      	blx	r9
  400628:	f640 73ff 	movw	r3, #4095	; 0xfff
  40062c:	4298      	cmp	r0, r3
  40062e:	d169      	bne.n	400704 <sd_mmc_check+0x430>
  400630:	2604      	movs	r6, #4
  400632:	a806      	add	r0, sp, #24
  400634:	47d0      	blx	sl
  400636:	2800      	cmp	r0, #0
  400638:	f43f af76 	beq.w	400528 <sd_mmc_check+0x254>
  40063c:	3e01      	subs	r6, #1
  40063e:	b2b6      	uxth	r6, r6
  400640:	2e00      	cmp	r6, #0
  400642:	d1f6      	bne.n	400632 <sd_mmc_check+0x35e>
  400644:	9b06      	ldr	r3, [sp, #24]
  400646:	2636      	movs	r6, #54	; 0x36
  400648:	6822      	ldr	r2, [r4, #0]
  40064a:	085b      	lsrs	r3, r3, #1
  40064c:	6053      	str	r3, [r2, #4]
  40064e:	a806      	add	r0, sp, #24
  400650:	47d0      	blx	sl
  400652:	2800      	cmp	r0, #0
  400654:	f43f af68 	beq.w	400528 <sd_mmc_check+0x254>
  400658:	3601      	adds	r6, #1
  40065a:	b2b6      	uxth	r6, r6
  40065c:	2e80      	cmp	r6, #128	; 0x80
  40065e:	d1f6      	bne.n	40064e <sd_mmc_check+0x37a>
  400660:	f8df 9118 	ldr.w	r9, [pc, #280]	; 40077c <sd_mmc_check+0x4a8>
  400664:	4e3d      	ldr	r6, [pc, #244]	; (40075c <sd_mmc_check+0x488>)
  400666:	f899 0000 	ldrb.w	r0, [r9]
  40066a:	47b0      	blx	r6
  40066c:	2803      	cmp	r0, #3
  40066e:	d918      	bls.n	4006a2 <sd_mmc_check+0x3ce>
  400670:	f899 0000 	ldrb.w	r0, [r9]
  400674:	47b0      	blx	r6
  400676:	2804      	cmp	r0, #4
  400678:	4606      	mov	r6, r0
  40067a:	d045      	beq.n	400708 <sd_mmc_check+0x434>
  40067c:	4b38      	ldr	r3, [pc, #224]	; (400760 <sd_mmc_check+0x48c>)
  40067e:	4939      	ldr	r1, [pc, #228]	; (400764 <sd_mmc_check+0x490>)
  400680:	2808      	cmp	r0, #8
  400682:	bf18      	it	ne
  400684:	4619      	movne	r1, r3
  400686:	f243 1006 	movw	r0, #12550	; 0x3106
  40068a:	47a8      	blx	r5
  40068c:	2800      	cmp	r0, #0
  40068e:	f43f af4b 	beq.w	400528 <sd_mmc_check+0x254>
  400692:	47d8      	blx	fp
  400694:	0603      	lsls	r3, r0, #24
  400696:	f53f af47 	bmi.w	400528 <sd_mmc_check+0x254>
  40069a:	6823      	ldr	r3, [r4, #0]
  40069c:	735e      	strb	r6, [r3, #13]
  40069e:	4b32      	ldr	r3, [pc, #200]	; (400768 <sd_mmc_check+0x494>)
  4006a0:	4798      	blx	r3
  4006a2:	4b32      	ldr	r3, [pc, #200]	; (40076c <sd_mmc_check+0x498>)
  4006a4:	4798      	blx	r3
  4006a6:	b1a0      	cbz	r0, 4006d2 <sd_mmc_check+0x3fe>
  4006a8:	f1b8 0f00 	cmp.w	r8, #0
  4006ac:	d011      	beq.n	4006d2 <sd_mmc_check+0x3fe>
  4006ae:	4930      	ldr	r1, [pc, #192]	; (400770 <sd_mmc_check+0x49c>)
  4006b0:	f243 1006 	movw	r0, #12550	; 0x3106
  4006b4:	47a8      	blx	r5
  4006b6:	2800      	cmp	r0, #0
  4006b8:	f43f af36 	beq.w	400528 <sd_mmc_check+0x254>
  4006bc:	47d8      	blx	fp
  4006be:	0606      	lsls	r6, r0, #24
  4006c0:	f53f af32 	bmi.w	400528 <sd_mmc_check+0x254>
  4006c4:	6823      	ldr	r3, [r4, #0]
  4006c6:	2201      	movs	r2, #1
  4006c8:	779a      	strb	r2, [r3, #30]
  4006ca:	4a2a      	ldr	r2, [pc, #168]	; (400774 <sd_mmc_check+0x4a0>)
  4006cc:	601a      	str	r2, [r3, #0]
  4006ce:	4b26      	ldr	r3, [pc, #152]	; (400768 <sd_mmc_check+0x494>)
  4006d0:	4798      	blx	r3
  4006d2:	260b      	movs	r6, #11
  4006d4:	3e01      	subs	r6, #1
  4006d6:	f016 06ff 	ands.w	r6, r6, #255	; 0xff
  4006da:	f43f af25 	beq.w	400528 <sd_mmc_check+0x254>
  4006de:	f44f 7100 	mov.w	r1, #512	; 0x200
  4006e2:	f241 1010 	movw	r0, #4368	; 0x1110
  4006e6:	47a8      	blx	r5
  4006e8:	2800      	cmp	r0, #0
  4006ea:	d0f3      	beq.n	4006d4 <sd_mmc_check+0x400>
  4006ec:	6823      	ldr	r3, [r4, #0]
  4006ee:	2200      	movs	r2, #0
  4006f0:	729a      	strb	r2, [r3, #10]
  4006f2:	e5f7      	b.n	4002e4 <sd_mmc_check+0x10>
  4006f4:	2314      	movs	r3, #20
  4006f6:	e73a      	b.n	40056e <sd_mmc_check+0x29a>
  4006f8:	2322      	movs	r3, #34	; 0x22
  4006fa:	e738      	b.n	40056e <sd_mmc_check+0x29a>
  4006fc:	2330      	movs	r3, #48	; 0x30
  4006fe:	e736      	b.n	40056e <sd_mmc_check+0x29a>
  400700:	2340      	movs	r3, #64	; 0x40
  400702:	e734      	b.n	40056e <sd_mmc_check+0x29a>
  400704:	2632      	movs	r6, #50	; 0x32
  400706:	e7a2      	b.n	40064e <sd_mmc_check+0x37a>
  400708:	491b      	ldr	r1, [pc, #108]	; (400778 <sd_mmc_check+0x4a4>)
  40070a:	e7bc      	b.n	400686 <sd_mmc_check+0x3b2>
  40070c:	2100      	movs	r1, #0
  40070e:	f645 3002 	movw	r0, #23298	; 0x5b02
  400712:	47a8      	blx	r5
  400714:	2800      	cmp	r0, #0
  400716:	f47f ae3c 	bne.w	400392 <sd_mmc_check+0xbe>
  40071a:	e705      	b.n	400528 <sd_mmc_check+0x254>
  40071c:	230c      	movs	r3, #12
  40071e:	223e      	movs	r2, #62	; 0x3e
  400720:	2180      	movs	r1, #128	; 0x80
  400722:	4648      	mov	r0, r9
  400724:	47c0      	blx	r8
  400726:	4606      	mov	r6, r0
  400728:	2303      	movs	r3, #3
  40072a:	222f      	movs	r2, #47	; 0x2f
  40072c:	2180      	movs	r1, #128	; 0x80
  40072e:	4648      	mov	r0, r9
  400730:	47c0      	blx	r8
  400732:	3601      	adds	r6, #1
  400734:	3002      	adds	r0, #2
  400736:	2304      	movs	r3, #4
  400738:	2250      	movs	r2, #80	; 0x50
  40073a:	2180      	movs	r1, #128	; 0x80
  40073c:	4086      	lsls	r6, r0
  40073e:	4648      	mov	r0, r9
  400740:	47c0      	blx	r8
  400742:	fa06 f000 	lsl.w	r0, r6, r0
  400746:	0a80      	lsrs	r0, r0, #10
  400748:	e666      	b.n	400418 <sd_mmc_check+0x144>
  40074a:	bf00      	nop
  40074c:	004022c4 	.word	0x004022c4
  400750:	00402284 	.word	0x00402284
  400754:	00081108 	.word	0x00081108
  400758:	00400cf1 	.word	0x00400cf1
  40075c:	00400c01 	.word	0x00400c01
  400760:	01b70000 	.word	0x01b70000
  400764:	01b70200 	.word	0x01b70200
  400768:	004001fd 	.word	0x004001fd
  40076c:	00400c0b 	.word	0x00400c0b
  400770:	03b90100 	.word	0x03b90100
  400774:	03197500 	.word	0x03197500
  400778:	01b70100 	.word	0x01b70100
  40077c:	2040048c 	.word	0x2040048c
  400780:	00400d91 	.word	0x00400d91
  400784:	6823      	ldr	r3, [r4, #0]
  400786:	221a      	movs	r2, #26
  400788:	731a      	strb	r2, [r3, #12]
  40078a:	4b41      	ldr	r3, [pc, #260]	; (400890 <sd_mmc_check+0x5bc>)
  40078c:	7818      	ldrb	r0, [r3, #0]
  40078e:	4b41      	ldr	r3, [pc, #260]	; (400894 <sd_mmc_check+0x5c0>)
  400790:	4798      	blx	r3
  400792:	2803      	cmp	r0, #3
  400794:	d917      	bls.n	4007c6 <sd_mmc_check+0x4f2>
  400796:	6823      	ldr	r3, [r4, #0]
  400798:	7ada      	ldrb	r2, [r3, #11]
  40079a:	07d2      	lsls	r2, r2, #31
  40079c:	d511      	bpl.n	4007c2 <sd_mmc_check+0x4ee>
  40079e:	8919      	ldrh	r1, [r3, #8]
  4007a0:	f241 1037 	movw	r0, #4407	; 0x1137
  4007a4:	0409      	lsls	r1, r1, #16
  4007a6:	47a8      	blx	r5
  4007a8:	2800      	cmp	r0, #0
  4007aa:	f43f aebd 	beq.w	400528 <sd_mmc_check+0x254>
  4007ae:	2102      	movs	r1, #2
  4007b0:	f241 1006 	movw	r0, #4358	; 0x1106
  4007b4:	47a8      	blx	r5
  4007b6:	2800      	cmp	r0, #0
  4007b8:	f43f aeb6 	beq.w	400528 <sd_mmc_check+0x254>
  4007bc:	6823      	ldr	r3, [r4, #0]
  4007be:	2204      	movs	r2, #4
  4007c0:	735a      	strb	r2, [r3, #13]
  4007c2:	4b35      	ldr	r3, [pc, #212]	; (400898 <sd_mmc_check+0x5c4>)
  4007c4:	4798      	blx	r3
  4007c6:	4b35      	ldr	r3, [pc, #212]	; (40089c <sd_mmc_check+0x5c8>)
  4007c8:	4798      	blx	r3
  4007ca:	2800      	cmp	r0, #0
  4007cc:	d045      	beq.n	40085a <sd_mmc_check+0x586>
  4007ce:	6823      	ldr	r3, [r4, #0]
  4007d0:	7ada      	ldrb	r2, [r3, #11]
  4007d2:	07d6      	lsls	r6, r2, #31
  4007d4:	d53f      	bpl.n	400856 <sd_mmc_check+0x582>
  4007d6:	7b1b      	ldrb	r3, [r3, #12]
  4007d8:	2b10      	cmp	r3, #16
  4007da:	d93c      	bls.n	400856 <sd_mmc_check+0x582>
  4007dc:	2601      	movs	r6, #1
  4007de:	2240      	movs	r2, #64	; 0x40
  4007e0:	2100      	movs	r1, #0
  4007e2:	4b2f      	ldr	r3, [pc, #188]	; (4008a0 <sd_mmc_check+0x5cc>)
  4007e4:	a806      	add	r0, sp, #24
  4007e6:	f8df 80cc 	ldr.w	r8, [pc, #204]	; 4008b4 <sd_mmc_check+0x5e0>
  4007ea:	4798      	blx	r3
  4007ec:	9600      	str	r6, [sp, #0]
  4007ee:	4633      	mov	r3, r6
  4007f0:	2240      	movs	r2, #64	; 0x40
  4007f2:	492c      	ldr	r1, [pc, #176]	; (4008a4 <sd_mmc_check+0x5d0>)
  4007f4:	482c      	ldr	r0, [pc, #176]	; (4008a8 <sd_mmc_check+0x5d4>)
  4007f6:	47c0      	blx	r8
  4007f8:	2800      	cmp	r0, #0
  4007fa:	f43f ae95 	beq.w	400528 <sd_mmc_check+0x254>
  4007fe:	4631      	mov	r1, r6
  400800:	a806      	add	r0, sp, #24
  400802:	4b2a      	ldr	r3, [pc, #168]	; (4008ac <sd_mmc_check+0x5d8>)
  400804:	4798      	blx	r3
  400806:	2800      	cmp	r0, #0
  400808:	f43f ae8e 	beq.w	400528 <sd_mmc_check+0x254>
  40080c:	4b28      	ldr	r3, [pc, #160]	; (4008b0 <sd_mmc_check+0x5dc>)
  40080e:	4798      	blx	r3
  400810:	2800      	cmp	r0, #0
  400812:	f43f ae89 	beq.w	400528 <sd_mmc_check+0x254>
  400816:	9b03      	ldr	r3, [sp, #12]
  400818:	4798      	blx	r3
  40081a:	0600      	lsls	r0, r0, #24
  40081c:	f53f ae84 	bmi.w	400528 <sd_mmc_check+0x254>
  400820:	2304      	movs	r3, #4
  400822:	f44f 72bc 	mov.w	r2, #376	; 0x178
  400826:	f44f 7100 	mov.w	r1, #512	; 0x200
  40082a:	a806      	add	r0, sp, #24
  40082c:	f8df 8088 	ldr.w	r8, [pc, #136]	; 4008b8 <sd_mmc_check+0x5e4>
  400830:	47c0      	blx	r8
  400832:	280f      	cmp	r0, #15
  400834:	d00f      	beq.n	400856 <sd_mmc_check+0x582>
  400836:	2310      	movs	r3, #16
  400838:	f44f 7288 	mov.w	r2, #272	; 0x110
  40083c:	f44f 7100 	mov.w	r1, #512	; 0x200
  400840:	a806      	add	r0, sp, #24
  400842:	47c0      	blx	r8
  400844:	2800      	cmp	r0, #0
  400846:	f47f ae6f 	bne.w	400528 <sd_mmc_check+0x254>
  40084a:	47d0      	blx	sl
  40084c:	6823      	ldr	r3, [r4, #0]
  40084e:	681a      	ldr	r2, [r3, #0]
  400850:	779e      	strb	r6, [r3, #30]
  400852:	40b2      	lsls	r2, r6
  400854:	601a      	str	r2, [r3, #0]
  400856:	4b10      	ldr	r3, [pc, #64]	; (400898 <sd_mmc_check+0x5c4>)
  400858:	4798      	blx	r3
  40085a:	6823      	ldr	r3, [r4, #0]
  40085c:	7adb      	ldrb	r3, [r3, #11]
  40085e:	07d9      	lsls	r1, r3, #31
  400860:	f57f af44 	bpl.w	4006ec <sd_mmc_check+0x418>
  400864:	f44f 7100 	mov.w	r1, #512	; 0x200
  400868:	f241 1010 	movw	r0, #4368	; 0x1110
  40086c:	47a8      	blx	r5
  40086e:	2800      	cmp	r0, #0
  400870:	f47f af3c 	bne.w	4006ec <sd_mmc_check+0x418>
  400874:	e658      	b.n	400528 <sd_mmc_check+0x254>
  400876:	222f      	movs	r2, #47	; 0x2f
  400878:	4633      	mov	r3, r6
  40087a:	2140      	movs	r1, #64	; 0x40
  40087c:	a806      	add	r0, sp, #24
  40087e:	47c0      	blx	r8
  400880:	2801      	cmp	r0, #1
  400882:	6823      	ldr	r3, [r4, #0]
  400884:	bf0c      	ite	eq
  400886:	2230      	moveq	r2, #48	; 0x30
  400888:	2220      	movne	r2, #32
  40088a:	e77d      	b.n	400788 <sd_mmc_check+0x4b4>
  40088c:	2300      	movs	r3, #0
  40088e:	e554      	b.n	40033a <sd_mmc_check+0x66>
  400890:	2040048c 	.word	0x2040048c
  400894:	00400c01 	.word	0x00400c01
  400898:	004001fd 	.word	0x004001fd
  40089c:	00400c0b 	.word	0x00400c0b
  4008a0:	004020c9 	.word	0x004020c9
  4008a4:	80ffff01 	.word	0x80ffff01
  4008a8:	00081106 	.word	0x00081106
  4008ac:	00400ded 	.word	0x00400ded
  4008b0:	00400f0d 	.word	0x00400f0d
  4008b4:	00400cf1 	.word	0x00400cf1
  4008b8:	004001ad 	.word	0x004001ad

004008bc <sd_mmc_get_type>:
  4008bc:	b508      	push	{r3, lr}
  4008be:	4b05      	ldr	r3, [pc, #20]	; (4008d4 <sd_mmc_get_type+0x18>)
  4008c0:	4798      	blx	r3
  4008c2:	b928      	cbnz	r0, 4008d0 <sd_mmc_get_type+0x14>
  4008c4:	4b04      	ldr	r3, [pc, #16]	; (4008d8 <sd_mmc_get_type+0x1c>)
  4008c6:	4798      	blx	r3
  4008c8:	4b04      	ldr	r3, [pc, #16]	; (4008dc <sd_mmc_get_type+0x20>)
  4008ca:	681b      	ldr	r3, [r3, #0]
  4008cc:	7ad8      	ldrb	r0, [r3, #11]
  4008ce:	bd08      	pop	{r3, pc}
  4008d0:	2000      	movs	r0, #0
  4008d2:	bd08      	pop	{r3, pc}
  4008d4:	0040023d 	.word	0x0040023d
  4008d8:	00400229 	.word	0x00400229
  4008dc:	20400464 	.word	0x20400464

004008e0 <sd_mmc_get_capacity>:
  4008e0:	b508      	push	{r3, lr}
  4008e2:	4b05      	ldr	r3, [pc, #20]	; (4008f8 <sd_mmc_get_capacity+0x18>)
  4008e4:	4798      	blx	r3
  4008e6:	b928      	cbnz	r0, 4008f4 <sd_mmc_get_capacity+0x14>
  4008e8:	4b04      	ldr	r3, [pc, #16]	; (4008fc <sd_mmc_get_capacity+0x1c>)
  4008ea:	4798      	blx	r3
  4008ec:	4b04      	ldr	r3, [pc, #16]	; (400900 <sd_mmc_get_capacity+0x20>)
  4008ee:	681b      	ldr	r3, [r3, #0]
  4008f0:	6858      	ldr	r0, [r3, #4]
  4008f2:	bd08      	pop	{r3, pc}
  4008f4:	2000      	movs	r0, #0
  4008f6:	bd08      	pop	{r3, pc}
  4008f8:	0040023d 	.word	0x0040023d
  4008fc:	00400229 	.word	0x00400229
  400900:	20400464 	.word	0x20400464

00400904 <sd_mmc_init_read_blocks>:
  400904:	e92d 4ff7 	stmdb	sp!, {r0, r1, r2, r4, r5, r6, r7, r8, r9, sl, fp, lr}
  400908:	4b20      	ldr	r3, [pc, #128]	; (40098c <sd_mmc_init_read_blocks+0x88>)
  40090a:	460f      	mov	r7, r1
  40090c:	4614      	mov	r4, r2
  40090e:	4798      	blx	r3
  400910:	4606      	mov	r6, r0
  400912:	b9c0      	cbnz	r0, 400946 <sd_mmc_init_read_blocks+0x42>
  400914:	f8df a098 	ldr.w	sl, [pc, #152]	; 4009b0 <sd_mmc_init_read_blocks+0xac>
  400918:	f8df 8098 	ldr.w	r8, [pc, #152]	; 4009b4 <sd_mmc_init_read_blocks+0xb0>
  40091c:	f8df b098 	ldr.w	fp, [pc, #152]	; 4009b8 <sd_mmc_init_read_blocks+0xb4>
  400920:	46d1      	mov	r9, sl
  400922:	f8da 3000 	ldr.w	r3, [sl]
  400926:	f241 100d 	movw	r0, #4365	; 0x110d
  40092a:	8919      	ldrh	r1, [r3, #8]
  40092c:	0409      	lsls	r1, r1, #16
  40092e:	47d8      	blx	fp
  400930:	b130      	cbz	r0, 400940 <sd_mmc_init_read_blocks+0x3c>
  400932:	4d17      	ldr	r5, [pc, #92]	; (400990 <sd_mmc_init_read_blocks+0x8c>)
  400934:	47a8      	blx	r5
  400936:	05c2      	lsls	r2, r0, #23
  400938:	d409      	bmi.n	40094e <sd_mmc_init_read_blocks+0x4a>
  40093a:	f1b8 0801 	subs.w	r8, r8, #1
  40093e:	d1f0      	bne.n	400922 <sd_mmc_init_read_blocks+0x1e>
  400940:	2605      	movs	r6, #5
  400942:	4b14      	ldr	r3, [pc, #80]	; (400994 <sd_mmc_init_read_blocks+0x90>)
  400944:	4798      	blx	r3
  400946:	4630      	mov	r0, r6
  400948:	b003      	add	sp, #12
  40094a:	e8bd 8ff0 	ldmia.w	sp!, {r4, r5, r6, r7, r8, r9, sl, fp, pc}
  40094e:	4b12      	ldr	r3, [pc, #72]	; (400998 <sd_mmc_init_read_blocks+0x94>)
  400950:	4812      	ldr	r0, [pc, #72]	; (40099c <sd_mmc_init_read_blocks+0x98>)
  400952:	2c01      	cmp	r4, #1
  400954:	bf98      	it	ls
  400956:	4618      	movls	r0, r3
  400958:	f8d9 3000 	ldr.w	r3, [r9]
  40095c:	7adb      	ldrb	r3, [r3, #11]
  40095e:	071b      	lsls	r3, r3, #28
  400960:	d400      	bmi.n	400964 <sd_mmc_init_read_blocks+0x60>
  400962:	027f      	lsls	r7, r7, #9
  400964:	2301      	movs	r3, #1
  400966:	4639      	mov	r1, r7
  400968:	f44f 7200 	mov.w	r2, #512	; 0x200
  40096c:	4f0c      	ldr	r7, [pc, #48]	; (4009a0 <sd_mmc_init_read_blocks+0x9c>)
  40096e:	9300      	str	r3, [sp, #0]
  400970:	4623      	mov	r3, r4
  400972:	47b8      	blx	r7
  400974:	2800      	cmp	r0, #0
  400976:	d0e3      	beq.n	400940 <sd_mmc_init_read_blocks+0x3c>
  400978:	47a8      	blx	r5
  40097a:	4b0a      	ldr	r3, [pc, #40]	; (4009a4 <sd_mmc_init_read_blocks+0xa0>)
  40097c:	4003      	ands	r3, r0
  40097e:	2b00      	cmp	r3, #0
  400980:	d1de      	bne.n	400940 <sd_mmc_init_read_blocks+0x3c>
  400982:	4b09      	ldr	r3, [pc, #36]	; (4009a8 <sd_mmc_init_read_blocks+0xa4>)
  400984:	801c      	strh	r4, [r3, #0]
  400986:	4b09      	ldr	r3, [pc, #36]	; (4009ac <sd_mmc_init_read_blocks+0xa8>)
  400988:	801c      	strh	r4, [r3, #0]
  40098a:	e7dc      	b.n	400946 <sd_mmc_init_read_blocks+0x42>
  40098c:	0040023d 	.word	0x0040023d
  400990:	00400cbd 	.word	0x00400cbd
  400994:	00400229 	.word	0x00400229
  400998:	00081111 	.word	0x00081111
  40099c:	00101112 	.word	0x00101112
  4009a0:	00400cf1 	.word	0x00400cf1
  4009a4:	e4580000 	.word	0xe4580000
  4009a8:	20400488 	.word	0x20400488
  4009ac:	2040048a 	.word	0x2040048a
  4009b0:	20400464 	.word	0x20400464
  4009b4:	00030d41 	.word	0x00030d41
  4009b8:	00400c95 	.word	0x00400c95

004009bc <sd_mmc_start_read_blocks>:
  4009bc:	b510      	push	{r4, lr}
  4009be:	4b06      	ldr	r3, [pc, #24]	; (4009d8 <sd_mmc_start_read_blocks+0x1c>)
  4009c0:	460c      	mov	r4, r1
  4009c2:	4798      	blx	r3
  4009c4:	4b05      	ldr	r3, [pc, #20]	; (4009dc <sd_mmc_start_read_blocks+0x20>)
  4009c6:	b910      	cbnz	r0, 4009ce <sd_mmc_start_read_blocks+0x12>
  4009c8:	8018      	strh	r0, [r3, #0]
  4009ca:	2005      	movs	r0, #5
  4009cc:	bd10      	pop	{r4, pc}
  4009ce:	8819      	ldrh	r1, [r3, #0]
  4009d0:	2000      	movs	r0, #0
  4009d2:	1b09      	subs	r1, r1, r4
  4009d4:	8019      	strh	r1, [r3, #0]
  4009d6:	bd10      	pop	{r4, pc}
  4009d8:	00400ded 	.word	0x00400ded
  4009dc:	20400488 	.word	0x20400488

004009e0 <sd_mmc_wait_end_of_read_blocks>:
  4009e0:	b510      	push	{r4, lr}
  4009e2:	4b11      	ldr	r3, [pc, #68]	; (400a28 <sd_mmc_wait_end_of_read_blocks+0x48>)
  4009e4:	4604      	mov	r4, r0
  4009e6:	4798      	blx	r3
  4009e8:	b1d8      	cbz	r0, 400a22 <sd_mmc_wait_end_of_read_blocks+0x42>
  4009ea:	4b10      	ldr	r3, [pc, #64]	; (400a2c <sd_mmc_wait_end_of_read_blocks+0x4c>)
  4009ec:	b144      	cbz	r4, 400a00 <sd_mmc_wait_end_of_read_blocks+0x20>
  4009ee:	2200      	movs	r2, #0
  4009f0:	801a      	strh	r2, [r3, #0]
  4009f2:	4b0f      	ldr	r3, [pc, #60]	; (400a30 <sd_mmc_wait_end_of_read_blocks+0x50>)
  4009f4:	881b      	ldrh	r3, [r3, #0]
  4009f6:	2b01      	cmp	r3, #1
  4009f8:	d107      	bne.n	400a0a <sd_mmc_wait_end_of_read_blocks+0x2a>
  4009fa:	4b0e      	ldr	r3, [pc, #56]	; (400a34 <sd_mmc_wait_end_of_read_blocks+0x54>)
  4009fc:	4798      	blx	r3
  4009fe:	e002      	b.n	400a06 <sd_mmc_wait_end_of_read_blocks+0x26>
  400a00:	881b      	ldrh	r3, [r3, #0]
  400a02:	2b00      	cmp	r3, #0
  400a04:	d0f5      	beq.n	4009f2 <sd_mmc_wait_end_of_read_blocks+0x12>
  400a06:	2000      	movs	r0, #0
  400a08:	bd10      	pop	{r4, pc}
  400a0a:	2100      	movs	r1, #0
  400a0c:	f243 100c 	movw	r0, #12556	; 0x310c
  400a10:	4c09      	ldr	r4, [pc, #36]	; (400a38 <sd_mmc_wait_end_of_read_blocks+0x58>)
  400a12:	47a0      	blx	r4
  400a14:	4601      	mov	r1, r0
  400a16:	2800      	cmp	r0, #0
  400a18:	d1ef      	bne.n	4009fa <sd_mmc_wait_end_of_read_blocks+0x1a>
  400a1a:	f243 100c 	movw	r0, #12556	; 0x310c
  400a1e:	47a0      	blx	r4
  400a20:	e7eb      	b.n	4009fa <sd_mmc_wait_end_of_read_blocks+0x1a>
  400a22:	2005      	movs	r0, #5
  400a24:	bd10      	pop	{r4, pc}
  400a26:	bf00      	nop
  400a28:	00400f0d 	.word	0x00400f0d
  400a2c:	20400488 	.word	0x20400488
  400a30:	2040048a 	.word	0x2040048a
  400a34:	00400229 	.word	0x00400229
  400a38:	00400c95 	.word	0x00400c95

00400a3c <sd_mmc_init_write_blocks>:
  400a3c:	b573      	push	{r0, r1, r4, r5, r6, lr}
  400a3e:	4b16      	ldr	r3, [pc, #88]	; (400a98 <sd_mmc_init_write_blocks+0x5c>)
  400a40:	460e      	mov	r6, r1
  400a42:	4614      	mov	r4, r2
  400a44:	4798      	blx	r3
  400a46:	4605      	mov	r5, r0
  400a48:	b9b8      	cbnz	r0, 400a7a <sd_mmc_init_write_blocks+0x3e>
  400a4a:	4b14      	ldr	r3, [pc, #80]	; (400a9c <sd_mmc_init_write_blocks+0x60>)
  400a4c:	f44f 7200 	mov.w	r2, #512	; 0x200
  400a50:	4813      	ldr	r0, [pc, #76]	; (400aa0 <sd_mmc_init_write_blocks+0x64>)
  400a52:	2c01      	cmp	r4, #1
  400a54:	bf98      	it	ls
  400a56:	4618      	movls	r0, r3
  400a58:	4b12      	ldr	r3, [pc, #72]	; (400aa4 <sd_mmc_init_write_blocks+0x68>)
  400a5a:	681b      	ldr	r3, [r3, #0]
  400a5c:	7adb      	ldrb	r3, [r3, #11]
  400a5e:	071b      	lsls	r3, r3, #28
  400a60:	f04f 0301 	mov.w	r3, #1
  400a64:	bf58      	it	pl
  400a66:	0276      	lslpl	r6, r6, #9
  400a68:	9300      	str	r3, [sp, #0]
  400a6a:	4623      	mov	r3, r4
  400a6c:	4631      	mov	r1, r6
  400a6e:	4e0e      	ldr	r6, [pc, #56]	; (400aa8 <sd_mmc_init_write_blocks+0x6c>)
  400a70:	47b0      	blx	r6
  400a72:	b928      	cbnz	r0, 400a80 <sd_mmc_init_write_blocks+0x44>
  400a74:	2505      	movs	r5, #5
  400a76:	4b0d      	ldr	r3, [pc, #52]	; (400aac <sd_mmc_init_write_blocks+0x70>)
  400a78:	4798      	blx	r3
  400a7a:	4628      	mov	r0, r5
  400a7c:	b002      	add	sp, #8
  400a7e:	bd70      	pop	{r4, r5, r6, pc}
  400a80:	4b0b      	ldr	r3, [pc, #44]	; (400ab0 <sd_mmc_init_write_blocks+0x74>)
  400a82:	4798      	blx	r3
  400a84:	4b0b      	ldr	r3, [pc, #44]	; (400ab4 <sd_mmc_init_write_blocks+0x78>)
  400a86:	4003      	ands	r3, r0
  400a88:	2b00      	cmp	r3, #0
  400a8a:	d1f3      	bne.n	400a74 <sd_mmc_init_write_blocks+0x38>
  400a8c:	4b0a      	ldr	r3, [pc, #40]	; (400ab8 <sd_mmc_init_write_blocks+0x7c>)
  400a8e:	801c      	strh	r4, [r3, #0]
  400a90:	4b0a      	ldr	r3, [pc, #40]	; (400abc <sd_mmc_init_write_blocks+0x80>)
  400a92:	801c      	strh	r4, [r3, #0]
  400a94:	e7f1      	b.n	400a7a <sd_mmc_init_write_blocks+0x3e>
  400a96:	bf00      	nop
  400a98:	0040023d 	.word	0x0040023d
  400a9c:	00089118 	.word	0x00089118
  400aa0:	00109119 	.word	0x00109119
  400aa4:	20400464 	.word	0x20400464
  400aa8:	00400cf1 	.word	0x00400cf1
  400aac:	00400229 	.word	0x00400229
  400ab0:	00400cbd 	.word	0x00400cbd
  400ab4:	e4580000 	.word	0xe4580000
  400ab8:	20400488 	.word	0x20400488
  400abc:	2040048a 	.word	0x2040048a

00400ac0 <sd_mmc_start_write_blocks>:
  400ac0:	b510      	push	{r4, lr}
  400ac2:	4b06      	ldr	r3, [pc, #24]	; (400adc <sd_mmc_start_write_blocks+0x1c>)
  400ac4:	460c      	mov	r4, r1
  400ac6:	4798      	blx	r3
  400ac8:	4b05      	ldr	r3, [pc, #20]	; (400ae0 <sd_mmc_start_write_blocks+0x20>)
  400aca:	b910      	cbnz	r0, 400ad2 <sd_mmc_start_write_blocks+0x12>
  400acc:	8018      	strh	r0, [r3, #0]
  400ace:	2005      	movs	r0, #5
  400ad0:	bd10      	pop	{r4, pc}
  400ad2:	8819      	ldrh	r1, [r3, #0]
  400ad4:	2000      	movs	r0, #0
  400ad6:	1b09      	subs	r1, r1, r4
  400ad8:	8019      	strh	r1, [r3, #0]
  400ada:	bd10      	pop	{r4, pc}
  400adc:	00400e51 	.word	0x00400e51
  400ae0:	20400488 	.word	0x20400488

00400ae4 <sd_mmc_wait_end_of_write_blocks>:
  400ae4:	b510      	push	{r4, lr}
  400ae6:	4b0f      	ldr	r3, [pc, #60]	; (400b24 <sd_mmc_wait_end_of_write_blocks+0x40>)
  400ae8:	4604      	mov	r4, r0
  400aea:	4798      	blx	r3
  400aec:	b1b8      	cbz	r0, 400b1e <sd_mmc_wait_end_of_write_blocks+0x3a>
  400aee:	4b0e      	ldr	r3, [pc, #56]	; (400b28 <sd_mmc_wait_end_of_write_blocks+0x44>)
  400af0:	b144      	cbz	r4, 400b04 <sd_mmc_wait_end_of_write_blocks+0x20>
  400af2:	2200      	movs	r2, #0
  400af4:	801a      	strh	r2, [r3, #0]
  400af6:	4b0d      	ldr	r3, [pc, #52]	; (400b2c <sd_mmc_wait_end_of_write_blocks+0x48>)
  400af8:	4c0d      	ldr	r4, [pc, #52]	; (400b30 <sd_mmc_wait_end_of_write_blocks+0x4c>)
  400afa:	881b      	ldrh	r3, [r3, #0]
  400afc:	2b01      	cmp	r3, #1
  400afe:	d106      	bne.n	400b0e <sd_mmc_wait_end_of_write_blocks+0x2a>
  400b00:	47a0      	blx	r4
  400b02:	e002      	b.n	400b0a <sd_mmc_wait_end_of_write_blocks+0x26>
  400b04:	881b      	ldrh	r3, [r3, #0]
  400b06:	2b00      	cmp	r3, #0
  400b08:	d0f5      	beq.n	400af6 <sd_mmc_wait_end_of_write_blocks+0x12>
  400b0a:	2000      	movs	r0, #0
  400b0c:	bd10      	pop	{r4, pc}
  400b0e:	2100      	movs	r1, #0
  400b10:	f243 100c 	movw	r0, #12556	; 0x310c
  400b14:	4b07      	ldr	r3, [pc, #28]	; (400b34 <sd_mmc_wait_end_of_write_blocks+0x50>)
  400b16:	4798      	blx	r3
  400b18:	2800      	cmp	r0, #0
  400b1a:	d1f1      	bne.n	400b00 <sd_mmc_wait_end_of_write_blocks+0x1c>
  400b1c:	47a0      	blx	r4
  400b1e:	2005      	movs	r0, #5
  400b20:	bd10      	pop	{r4, pc}
  400b22:	bf00      	nop
  400b24:	00400eb5 	.word	0x00400eb5
  400b28:	20400488 	.word	0x20400488
  400b2c:	2040048a 	.word	0x2040048a
  400b30:	00400229 	.word	0x00400229
  400b34:	00400c95 	.word	0x00400c95

00400b38 <hsmci_reset>:
  400b38:	f04f 4380 	mov.w	r3, #1073741824	; 0x40000000
  400b3c:	b570      	push	{r4, r5, r6, lr}
  400b3e:	2680      	movs	r6, #128	; 0x80
  400b40:	685d      	ldr	r5, [r3, #4]
  400b42:	689c      	ldr	r4, [r3, #8]
  400b44:	68d8      	ldr	r0, [r3, #12]
  400b46:	69d9      	ldr	r1, [r3, #28]
  400b48:	6d5a      	ldr	r2, [r3, #84]	; 0x54
  400b4a:	601e      	str	r6, [r3, #0]
  400b4c:	605d      	str	r5, [r3, #4]
  400b4e:	609c      	str	r4, [r3, #8]
  400b50:	60d8      	str	r0, [r3, #12]
  400b52:	61d9      	str	r1, [r3, #28]
  400b54:	655a      	str	r2, [r3, #84]	; 0x54
  400b56:	2200      	movs	r2, #0
  400b58:	651a      	str	r2, [r3, #80]	; 0x50
  400b5a:	2205      	movs	r2, #5
  400b5c:	601a      	str	r2, [r3, #0]
  400b5e:	bd70      	pop	{r4, r5, r6, pc}

00400b60 <hsmci_send_cmd_execute>:
  400b60:	b508      	push	{r3, lr}
  400b62:	f001 033f 	and.w	r3, r1, #63	; 0x3f
  400b66:	4318      	orrs	r0, r3
  400b68:	05cb      	lsls	r3, r1, #23
  400b6a:	d503      	bpl.n	400b74 <hsmci_send_cmd_execute+0x14>
  400b6c:	050b      	lsls	r3, r1, #20
  400b6e:	d514      	bpl.n	400b9a <hsmci_send_cmd_execute+0x3a>
  400b70:	f440 5084 	orr.w	r0, r0, #4224	; 0x1080
  400b74:	044b      	lsls	r3, r1, #17
  400b76:	f04f 4380 	mov.w	r3, #1073741824	; 0x40000000
  400b7a:	bf48      	it	mi
  400b7c:	f440 6000 	orrmi.w	r0, r0, #2048	; 0x800
  400b80:	611a      	str	r2, [r3, #16]
  400b82:	6158      	str	r0, [r3, #20]
  400b84:	f401 5080 	and.w	r0, r1, #4096	; 0x1000
  400b88:	6c1a      	ldr	r2, [r3, #64]	; 0x40
  400b8a:	b168      	cbz	r0, 400ba8 <hsmci_send_cmd_execute+0x48>
  400b8c:	f412 0f1f 	tst.w	r2, #10420224	; 0x9f0000
  400b90:	d00d      	beq.n	400bae <hsmci_send_cmd_execute+0x4e>
  400b92:	4b0f      	ldr	r3, [pc, #60]	; (400bd0 <hsmci_send_cmd_execute+0x70>)
  400b94:	4798      	blx	r3
  400b96:	2000      	movs	r0, #0
  400b98:	bd08      	pop	{r3, pc}
  400b9a:	048b      	lsls	r3, r1, #18
  400b9c:	bf4c      	ite	mi
  400b9e:	f440 5086 	orrmi.w	r0, r0, #4288	; 0x10c0
  400ba2:	f440 5082 	orrpl.w	r0, r0, #4160	; 0x1040
  400ba6:	e7e5      	b.n	400b74 <hsmci_send_cmd_execute+0x14>
  400ba8:	f412 0f1b 	tst.w	r2, #10158080	; 0x9b0000
  400bac:	e7f0      	b.n	400b90 <hsmci_send_cmd_execute+0x30>
  400bae:	07d2      	lsls	r2, r2, #31
  400bb0:	d5ea      	bpl.n	400b88 <hsmci_send_cmd_execute+0x28>
  400bb2:	048b      	lsls	r3, r1, #18
  400bb4:	d50a      	bpl.n	400bcc <hsmci_send_cmd_execute+0x6c>
  400bb6:	2200      	movs	r2, #0
  400bb8:	f04f 4180 	mov.w	r1, #1073741824	; 0x40000000
  400bbc:	1c50      	adds	r0, r2, #1
  400bbe:	6c0b      	ldr	r3, [r1, #64]	; 0x40
  400bc0:	d0e7      	beq.n	400b92 <hsmci_send_cmd_execute+0x32>
  400bc2:	f003 0330 	and.w	r3, r3, #48	; 0x30
  400bc6:	3201      	adds	r2, #1
  400bc8:	2b20      	cmp	r3, #32
  400bca:	d1f7      	bne.n	400bbc <hsmci_send_cmd_execute+0x5c>
  400bcc:	2001      	movs	r0, #1
  400bce:	bd08      	pop	{r3, pc}
  400bd0:	00400b39 	.word	0x00400b39

00400bd4 <hsmci_init>:
  400bd4:	b510      	push	{r4, lr}
  400bd6:	2012      	movs	r0, #18
  400bd8:	4c08      	ldr	r4, [pc, #32]	; (400bfc <hsmci_init+0x28>)
  400bda:	47a0      	blx	r4
  400bdc:	203a      	movs	r0, #58	; 0x3a
  400bde:	47a0      	blx	r4
  400be0:	f04f 4380 	mov.w	r3, #1073741824	; 0x40000000
  400be4:	2272      	movs	r2, #114	; 0x72
  400be6:	609a      	str	r2, [r3, #8]
  400be8:	61da      	str	r2, [r3, #28]
  400bea:	2211      	movs	r2, #17
  400bec:	655a      	str	r2, [r3, #84]	; 0x54
  400bee:	f44f 62e0 	mov.w	r2, #1792	; 0x700
  400bf2:	605a      	str	r2, [r3, #4]
  400bf4:	2205      	movs	r2, #5
  400bf6:	601a      	str	r2, [r3, #0]
  400bf8:	bd10      	pop	{r4, pc}
  400bfa:	bf00      	nop
  400bfc:	00401325 	.word	0x00401325

00400c00 <hsmci_get_bus_width>:
  400c00:	2800      	cmp	r0, #0
  400c02:	bf0c      	ite	eq
  400c04:	2004      	moveq	r0, #4
  400c06:	2000      	movne	r0, #0
  400c08:	4770      	bx	lr

00400c0a <hsmci_is_high_speed_capable>:
  400c0a:	2001      	movs	r0, #1
  400c0c:	4770      	bx	lr
	...

00400c10 <hsmci_select_device>:
  400c10:	f04f 4080 	mov.w	r0, #1073741824	; 0x40000000
  400c14:	b313      	cbz	r3, 400c5c <hsmci_select_device+0x4c>
  400c16:	6d43      	ldr	r3, [r0, #84]	; 0x54
  400c18:	f443 7380 	orr.w	r3, r3, #256	; 0x100
  400c1c:	6543      	str	r3, [r0, #84]	; 0x54
  400c1e:	0049      	lsls	r1, r1, #1
  400c20:	4b12      	ldr	r3, [pc, #72]	; (400c6c <hsmci_select_device+0x5c>)
  400c22:	4299      	cmp	r1, r3
  400c24:	d81e      	bhi.n	400c64 <hsmci_select_device+0x54>
  400c26:	4812      	ldr	r0, [pc, #72]	; (400c70 <hsmci_select_device+0x60>)
  400c28:	fbb0 f3f1 	udiv	r3, r0, r1
  400c2c:	fb01 0113 	mls	r1, r1, r3, r0
  400c30:	b101      	cbz	r1, 400c34 <hsmci_select_device+0x24>
  400c32:	3301      	adds	r3, #1
  400c34:	3b01      	subs	r3, #1
  400c36:	f04f 4180 	mov.w	r1, #1073741824	; 0x40000000
  400c3a:	b2db      	uxtb	r3, r3
  400c3c:	2a04      	cmp	r2, #4
  400c3e:	6848      	ldr	r0, [r1, #4]
  400c40:	f020 00ff 	bic.w	r0, r0, #255	; 0xff
  400c44:	6048      	str	r0, [r1, #4]
  400c46:	6848      	ldr	r0, [r1, #4]
  400c48:	ea43 0300 	orr.w	r3, r3, r0
  400c4c:	604b      	str	r3, [r1, #4]
  400c4e:	d00b      	beq.n	400c68 <hsmci_select_device+0x58>
  400c50:	2a08      	cmp	r2, #8
  400c52:	bf0c      	ite	eq
  400c54:	23c0      	moveq	r3, #192	; 0xc0
  400c56:	2300      	movne	r3, #0
  400c58:	60cb      	str	r3, [r1, #12]
  400c5a:	4770      	bx	lr
  400c5c:	6d43      	ldr	r3, [r0, #84]	; 0x54
  400c5e:	f423 7380 	bic.w	r3, r3, #256	; 0x100
  400c62:	e7db      	b.n	400c1c <hsmci_select_device+0xc>
  400c64:	2300      	movs	r3, #0
  400c66:	e7e6      	b.n	400c36 <hsmci_select_device+0x26>
  400c68:	2380      	movs	r3, #128	; 0x80
  400c6a:	e7f5      	b.n	400c58 <hsmci_select_device+0x48>
  400c6c:	089543ff 	.word	0x089543ff
  400c70:	08954400 	.word	0x08954400

00400c74 <hsmci_deselect_device>:
  400c74:	4770      	bx	lr

00400c76 <hsmci_send_clock>:
  400c76:	f04f 4380 	mov.w	r3, #1073741824	; 0x40000000
  400c7a:	685a      	ldr	r2, [r3, #4]
  400c7c:	f422 5260 	bic.w	r2, r2, #14336	; 0x3800
  400c80:	605a      	str	r2, [r3, #4]
  400c82:	2200      	movs	r2, #0
  400c84:	611a      	str	r2, [r3, #16]
  400c86:	f44f 6210 	mov.w	r2, #2304	; 0x900
  400c8a:	615a      	str	r2, [r3, #20]
  400c8c:	6c1a      	ldr	r2, [r3, #64]	; 0x40
  400c8e:	07d2      	lsls	r2, r2, #31
  400c90:	d5fc      	bpl.n	400c8c <hsmci_send_clock+0x16>
  400c92:	4770      	bx	lr

00400c94 <hsmci_send_cmd>:
  400c94:	f04f 4380 	mov.w	r3, #1073741824	; 0x40000000
  400c98:	b410      	push	{r4}
  400c9a:	685a      	ldr	r2, [r3, #4]
  400c9c:	2400      	movs	r4, #0
  400c9e:	f422 5260 	bic.w	r2, r2, #14336	; 0x3800
  400ca2:	605a      	str	r2, [r3, #4]
  400ca4:	460a      	mov	r2, r1
  400ca6:	651c      	str	r4, [r3, #80]	; 0x50
  400ca8:	4601      	mov	r1, r0
  400caa:	619c      	str	r4, [r3, #24]
  400cac:	4620      	mov	r0, r4
  400cae:	4b02      	ldr	r3, [pc, #8]	; (400cb8 <hsmci_send_cmd+0x24>)
  400cb0:	f85d 4b04 	ldr.w	r4, [sp], #4
  400cb4:	4718      	bx	r3
  400cb6:	bf00      	nop
  400cb8:	00400b61 	.word	0x00400b61

00400cbc <hsmci_get_response>:
  400cbc:	f04f 4380 	mov.w	r3, #1073741824	; 0x40000000
  400cc0:	6a18      	ldr	r0, [r3, #32]
  400cc2:	4770      	bx	lr

00400cc4 <hsmci_get_response_128>:
  400cc4:	b510      	push	{r4, lr}
  400cc6:	1d03      	adds	r3, r0, #4
  400cc8:	f04f 4480 	mov.w	r4, #1073741824	; 0x40000000
  400ccc:	3014      	adds	r0, #20
  400cce:	6a22      	ldr	r2, [r4, #32]
  400cd0:	3304      	adds	r3, #4
  400cd2:	0e11      	lsrs	r1, r2, #24
  400cd4:	f803 2c05 	strb.w	r2, [r3, #-5]
  400cd8:	f803 1c08 	strb.w	r1, [r3, #-8]
  400cdc:	0c11      	lsrs	r1, r2, #16
  400cde:	f803 1c07 	strb.w	r1, [r3, #-7]
  400ce2:	0a11      	lsrs	r1, r2, #8
  400ce4:	f803 1c06 	strb.w	r1, [r3, #-6]
  400ce8:	4283      	cmp	r3, r0
  400cea:	d1f0      	bne.n	400cce <hsmci_get_response_128+0xa>
  400cec:	bd10      	pop	{r4, pc}
	...

00400cf0 <hsmci_adtc_start>:
  400cf0:	b470      	push	{r4, r5, r6}
  400cf2:	4605      	mov	r5, r0
  400cf4:	f89d 000c 	ldrb.w	r0, [sp, #12]
  400cf8:	f04f 4480 	mov.w	r4, #1073741824	; 0x40000000
  400cfc:	b108      	cbz	r0, 400d02 <hsmci_adtc_start+0x12>
  400cfe:	f44f 7080 	mov.w	r0, #256	; 0x100
  400d02:	6520      	str	r0, [r4, #80]	; 0x50
  400d04:	0796      	lsls	r6, r2, #30
  400d06:	6860      	ldr	r0, [r4, #4]
  400d08:	f440 50c0 	orr.w	r0, r0, #6144	; 0x1800
  400d0c:	6060      	str	r0, [r4, #4]
  400d0e:	6860      	ldr	r0, [r4, #4]
  400d10:	bf14      	ite	ne
  400d12:	f440 5000 	orrne.w	r0, r0, #8192	; 0x2000
  400d16:	f420 5000 	biceq.w	r0, r0, #8192	; 0x2000
  400d1a:	f415 4f00 	tst.w	r5, #32768	; 0x8000
  400d1e:	6060      	str	r0, [r4, #4]
  400d20:	f04f 4480 	mov.w	r4, #1073741824	; 0x40000000
  400d24:	bf14      	ite	ne
  400d26:	f44f 3080 	movne.w	r0, #65536	; 0x10000
  400d2a:	f44f 20a0 	moveq.w	r0, #327680	; 0x50000
  400d2e:	f415 3f80 	tst.w	r5, #65536	; 0x10000
  400d32:	d010      	beq.n	400d56 <hsmci_adtc_start+0x66>
  400d34:	f3c2 0608 	ubfx	r6, r2, #0, #9
  400d38:	f440 1000 	orr.w	r0, r0, #2097152	; 0x200000
  400d3c:	61a6      	str	r6, [r4, #24]
  400d3e:	2600      	movs	r6, #0
  400d40:	4c0f      	ldr	r4, [pc, #60]	; (400d80 <hsmci_adtc_start+0x90>)
  400d42:	6026      	str	r6, [r4, #0]
  400d44:	4c0f      	ldr	r4, [pc, #60]	; (400d84 <hsmci_adtc_start+0x94>)
  400d46:	8022      	strh	r2, [r4, #0]
  400d48:	4a0f      	ldr	r2, [pc, #60]	; (400d88 <hsmci_adtc_start+0x98>)
  400d4a:	8013      	strh	r3, [r2, #0]
  400d4c:	460a      	mov	r2, r1
  400d4e:	4b0f      	ldr	r3, [pc, #60]	; (400d8c <hsmci_adtc_start+0x9c>)
  400d50:	4629      	mov	r1, r5
  400d52:	bc70      	pop	{r4, r5, r6}
  400d54:	4718      	bx	r3
  400d56:	ea43 4602 	orr.w	r6, r3, r2, lsl #16
  400d5a:	61a6      	str	r6, [r4, #24]
  400d5c:	03ae      	lsls	r6, r5, #14
  400d5e:	d502      	bpl.n	400d66 <hsmci_adtc_start+0x76>
  400d60:	f440 1020 	orr.w	r0, r0, #2621440	; 0x280000
  400d64:	e7eb      	b.n	400d3e <hsmci_adtc_start+0x4e>
  400d66:	036c      	lsls	r4, r5, #13
  400d68:	d502      	bpl.n	400d70 <hsmci_adtc_start+0x80>
  400d6a:	f440 1080 	orr.w	r0, r0, #1048576	; 0x100000
  400d6e:	e7e6      	b.n	400d3e <hsmci_adtc_start+0x4e>
  400d70:	032e      	lsls	r6, r5, #12
  400d72:	d4e4      	bmi.n	400d3e <hsmci_adtc_start+0x4e>
  400d74:	02ec      	lsls	r4, r5, #11
  400d76:	bf48      	it	mi
  400d78:	f440 2000 	orrmi.w	r0, r0, #524288	; 0x80000
  400d7c:	e7df      	b.n	400d3e <hsmci_adtc_start+0x4e>
  400d7e:	bf00      	nop
  400d80:	20400494 	.word	0x20400494
  400d84:	2040048e 	.word	0x2040048e
  400d88:	20400490 	.word	0x20400490
  400d8c:	00400b61 	.word	0x00400b61

00400d90 <hsmci_read_word>:
  400d90:	b508      	push	{r3, lr}
  400d92:	4911      	ldr	r1, [pc, #68]	; (400dd8 <hsmci_read_word+0x48>)
  400d94:	f04f 4380 	mov.w	r3, #1073741824	; 0x40000000
  400d98:	6c1a      	ldr	r2, [r3, #64]	; 0x40
  400d9a:	420a      	tst	r2, r1
  400d9c:	d003      	beq.n	400da6 <hsmci_read_word+0x16>
  400d9e:	4b0f      	ldr	r3, [pc, #60]	; (400ddc <hsmci_read_word+0x4c>)
  400da0:	4798      	blx	r3
  400da2:	2000      	movs	r0, #0
  400da4:	bd08      	pop	{r3, pc}
  400da6:	0792      	lsls	r2, r2, #30
  400da8:	d5f6      	bpl.n	400d98 <hsmci_read_word+0x8>
  400daa:	6b1b      	ldr	r3, [r3, #48]	; 0x30
  400dac:	4a0c      	ldr	r2, [pc, #48]	; (400de0 <hsmci_read_word+0x50>)
  400dae:	6003      	str	r3, [r0, #0]
  400db0:	6813      	ldr	r3, [r2, #0]
  400db2:	3304      	adds	r3, #4
  400db4:	6013      	str	r3, [r2, #0]
  400db6:	4a0b      	ldr	r2, [pc, #44]	; (400de4 <hsmci_read_word+0x54>)
  400db8:	8811      	ldrh	r1, [r2, #0]
  400dba:	4a0b      	ldr	r2, [pc, #44]	; (400de8 <hsmci_read_word+0x58>)
  400dbc:	8812      	ldrh	r2, [r2, #0]
  400dbe:	434a      	muls	r2, r1
  400dc0:	4293      	cmp	r3, r2
  400dc2:	d307      	bcc.n	400dd4 <hsmci_read_word+0x44>
  400dc4:	f04f 4280 	mov.w	r2, #1073741824	; 0x40000000
  400dc8:	4903      	ldr	r1, [pc, #12]	; (400dd8 <hsmci_read_word+0x48>)
  400dca:	6c13      	ldr	r3, [r2, #64]	; 0x40
  400dcc:	420b      	tst	r3, r1
  400dce:	d1e6      	bne.n	400d9e <hsmci_read_word+0xe>
  400dd0:	011b      	lsls	r3, r3, #4
  400dd2:	d5fa      	bpl.n	400dca <hsmci_read_word+0x3a>
  400dd4:	2001      	movs	r0, #1
  400dd6:	bd08      	pop	{r3, pc}
  400dd8:	c0600000 	.word	0xc0600000
  400ddc:	00400b39 	.word	0x00400b39
  400de0:	20400494 	.word	0x20400494
  400de4:	2040048e 	.word	0x2040048e
  400de8:	20400490 	.word	0x20400490

00400dec <hsmci_start_read_blocks>:
  400dec:	b5f0      	push	{r4, r5, r6, r7, lr}
  400dee:	b089      	sub	sp, #36	; 0x24
  400df0:	4607      	mov	r7, r0
  400df2:	460c      	mov	r4, r1
  400df4:	2220      	movs	r2, #32
  400df6:	2100      	movs	r1, #0
  400df8:	4668      	mov	r0, sp
  400dfa:	4b0e      	ldr	r3, [pc, #56]	; (400e34 <hsmci_start_read_blocks+0x48>)
  400dfc:	2501      	movs	r5, #1
  400dfe:	4798      	blx	r3
  400e00:	4e0d      	ldr	r6, [pc, #52]	; (400e38 <hsmci_start_read_blocks+0x4c>)
  400e02:	4b0e      	ldr	r3, [pc, #56]	; (400e3c <hsmci_start_read_blocks+0x50>)
  400e04:	466a      	mov	r2, sp
  400e06:	6235      	str	r5, [r6, #32]
  400e08:	4630      	mov	r0, r6
  400e0a:	881b      	ldrh	r3, [r3, #0]
  400e0c:	2100      	movs	r1, #0
  400e0e:	9702      	str	r7, [sp, #8]
  400e10:	435c      	muls	r4, r3
  400e12:	4b0b      	ldr	r3, [pc, #44]	; (400e40 <hsmci_start_read_blocks+0x54>)
  400e14:	9303      	str	r3, [sp, #12]
  400e16:	08a3      	lsrs	r3, r4, #2
  400e18:	9300      	str	r3, [sp, #0]
  400e1a:	4b0a      	ldr	r3, [pc, #40]	; (400e44 <hsmci_start_read_blocks+0x58>)
  400e1c:	9301      	str	r3, [sp, #4]
  400e1e:	4b0a      	ldr	r3, [pc, #40]	; (400e48 <hsmci_start_read_blocks+0x5c>)
  400e20:	4798      	blx	r3
  400e22:	4a0a      	ldr	r2, [pc, #40]	; (400e4c <hsmci_start_read_blocks+0x60>)
  400e24:	61f5      	str	r5, [r6, #28]
  400e26:	4628      	mov	r0, r5
  400e28:	6813      	ldr	r3, [r2, #0]
  400e2a:	441c      	add	r4, r3
  400e2c:	6014      	str	r4, [r2, #0]
  400e2e:	b009      	add	sp, #36	; 0x24
  400e30:	bdf0      	pop	{r4, r5, r6, r7, pc}
  400e32:	bf00      	nop
  400e34:	004020c9 	.word	0x004020c9
  400e38:	40078000 	.word	0x40078000
  400e3c:	2040048e 	.word	0x2040048e
  400e40:	00043001 	.word	0x00043001
  400e44:	40000200 	.word	0x40000200
  400e48:	00401365 	.word	0x00401365
  400e4c:	20400494 	.word	0x20400494

00400e50 <hsmci_start_write_blocks>:
  400e50:	b5f0      	push	{r4, r5, r6, r7, lr}
  400e52:	b089      	sub	sp, #36	; 0x24
  400e54:	4607      	mov	r7, r0
  400e56:	460c      	mov	r4, r1
  400e58:	2220      	movs	r2, #32
  400e5a:	2100      	movs	r1, #0
  400e5c:	4668      	mov	r0, sp
  400e5e:	4b0e      	ldr	r3, [pc, #56]	; (400e98 <hsmci_start_write_blocks+0x48>)
  400e60:	2501      	movs	r5, #1
  400e62:	4798      	blx	r3
  400e64:	4e0d      	ldr	r6, [pc, #52]	; (400e9c <hsmci_start_write_blocks+0x4c>)
  400e66:	4b0e      	ldr	r3, [pc, #56]	; (400ea0 <hsmci_start_write_blocks+0x50>)
  400e68:	466a      	mov	r2, sp
  400e6a:	6235      	str	r5, [r6, #32]
  400e6c:	4630      	mov	r0, r6
  400e6e:	881b      	ldrh	r3, [r3, #0]
  400e70:	2100      	movs	r1, #0
  400e72:	435c      	muls	r4, r3
  400e74:	4b0b      	ldr	r3, [pc, #44]	; (400ea4 <hsmci_start_write_blocks+0x54>)
  400e76:	9303      	str	r3, [sp, #12]
  400e78:	08a3      	lsrs	r3, r4, #2
  400e7a:	e88d 0088 	stmia.w	sp, {r3, r7}
  400e7e:	4b0a      	ldr	r3, [pc, #40]	; (400ea8 <hsmci_start_write_blocks+0x58>)
  400e80:	9302      	str	r3, [sp, #8]
  400e82:	4b0a      	ldr	r3, [pc, #40]	; (400eac <hsmci_start_write_blocks+0x5c>)
  400e84:	4798      	blx	r3
  400e86:	4a0a      	ldr	r2, [pc, #40]	; (400eb0 <hsmci_start_write_blocks+0x60>)
  400e88:	61f5      	str	r5, [r6, #28]
  400e8a:	4628      	mov	r0, r5
  400e8c:	6813      	ldr	r3, [r2, #0]
  400e8e:	441c      	add	r4, r3
  400e90:	6014      	str	r4, [r2, #0]
  400e92:	b009      	add	sp, #36	; 0x24
  400e94:	bdf0      	pop	{r4, r5, r6, r7, pc}
  400e96:	bf00      	nop
  400e98:	004020c9 	.word	0x004020c9
  400e9c:	40078000 	.word	0x40078000
  400ea0:	2040048e 	.word	0x2040048e
  400ea4:	00015011 	.word	0x00015011
  400ea8:	40000200 	.word	0x40000200
  400eac:	00401365 	.word	0x00401365
  400eb0:	20400494 	.word	0x20400494

00400eb4 <hsmci_wait_end_of_write_blocks>:
  400eb4:	4b0f      	ldr	r3, [pc, #60]	; (400ef4 <hsmci_wait_end_of_write_blocks+0x40>)
  400eb6:	f04f 4080 	mov.w	r0, #1073741824	; 0x40000000
  400eba:	b570      	push	{r4, r5, r6, lr}
  400ebc:	881a      	ldrh	r2, [r3, #0]
  400ebe:	4b0e      	ldr	r3, [pc, #56]	; (400ef8 <hsmci_wait_end_of_write_blocks+0x44>)
  400ec0:	4c0e      	ldr	r4, [pc, #56]	; (400efc <hsmci_wait_end_of_write_blocks+0x48>)
  400ec2:	881b      	ldrh	r3, [r3, #0]
  400ec4:	4d0e      	ldr	r5, [pc, #56]	; (400f00 <hsmci_wait_end_of_write_blocks+0x4c>)
  400ec6:	4353      	muls	r3, r2
  400ec8:	4a0e      	ldr	r2, [pc, #56]	; (400f04 <hsmci_wait_end_of_write_blocks+0x50>)
  400eca:	6811      	ldr	r1, [r2, #0]
  400ecc:	6c02      	ldr	r2, [r0, #64]	; 0x40
  400ece:	4222      	tst	r2, r4
  400ed0:	d006      	beq.n	400ee0 <hsmci_wait_end_of_write_blocks+0x2c>
  400ed2:	4b0d      	ldr	r3, [pc, #52]	; (400f08 <hsmci_wait_end_of_write_blocks+0x54>)
  400ed4:	4798      	blx	r3
  400ed6:	2201      	movs	r2, #1
  400ed8:	4b09      	ldr	r3, [pc, #36]	; (400f00 <hsmci_wait_end_of_write_blocks+0x4c>)
  400eda:	2000      	movs	r0, #0
  400edc:	621a      	str	r2, [r3, #32]
  400ede:	bd70      	pop	{r4, r5, r6, pc}
  400ee0:	428b      	cmp	r3, r1
  400ee2:	d902      	bls.n	400eea <hsmci_wait_end_of_write_blocks+0x36>
  400ee4:	6dee      	ldr	r6, [r5, #92]	; 0x5c
  400ee6:	07f6      	lsls	r6, r6, #31
  400ee8:	d401      	bmi.n	400eee <hsmci_wait_end_of_write_blocks+0x3a>
  400eea:	0112      	lsls	r2, r2, #4
  400eec:	d5ee      	bpl.n	400ecc <hsmci_wait_end_of_write_blocks+0x18>
  400eee:	2001      	movs	r0, #1
  400ef0:	bd70      	pop	{r4, r5, r6, pc}
  400ef2:	bf00      	nop
  400ef4:	2040048e 	.word	0x2040048e
  400ef8:	20400490 	.word	0x20400490
  400efc:	c0600000 	.word	0xc0600000
  400f00:	40078000 	.word	0x40078000
  400f04:	20400494 	.word	0x20400494
  400f08:	00400b39 	.word	0x00400b39

00400f0c <hsmci_wait_end_of_read_blocks>:
  400f0c:	4b00      	ldr	r3, [pc, #0]	; (400f10 <hsmci_wait_end_of_read_blocks+0x4>)
  400f0e:	4718      	bx	r3
  400f10:	00400eb5 	.word	0x00400eb5

00400f14 <matrix_set_system_io>:
  400f14:	4a06      	ldr	r2, [pc, #24]	; (400f30 <matrix_set_system_io+0x1c>)
  400f16:	b280      	uxth	r0, r0
  400f18:	f8d2 3114 	ldr.w	r3, [r2, #276]	; 0x114
  400f1c:	0c1b      	lsrs	r3, r3, #16
  400f1e:	041b      	lsls	r3, r3, #16
  400f20:	f8c2 3114 	str.w	r3, [r2, #276]	; 0x114
  400f24:	f8d2 3114 	ldr.w	r3, [r2, #276]	; 0x114
  400f28:	4318      	orrs	r0, r3
  400f2a:	f8c2 0114 	str.w	r0, [r2, #276]	; 0x114
  400f2e:	4770      	bx	lr
  400f30:	40088000 	.word	0x40088000

00400f34 <matrix_get_system_io>:
  400f34:	4b02      	ldr	r3, [pc, #8]	; (400f40 <matrix_get_system_io+0xc>)
  400f36:	f8d3 0114 	ldr.w	r0, [r3, #276]	; 0x114
  400f3a:	b280      	uxth	r0, r0
  400f3c:	4770      	bx	lr
  400f3e:	bf00      	nop
  400f40:	40088000 	.word	0x40088000

00400f44 <pwm_clocks_generate>:
  400f44:	b5f0      	push	{r4, r5, r6, r7, lr}
  400f46:	4d11      	ldr	r5, [pc, #68]	; (400f8c <pwm_clocks_generate+0x48>)
  400f48:	b08d      	sub	sp, #52	; 0x34
  400f4a:	4606      	mov	r6, r0
  400f4c:	460f      	mov	r7, r1
  400f4e:	ac01      	add	r4, sp, #4
  400f50:	cd0f      	ldmia	r5!, {r0, r1, r2, r3}
  400f52:	c40f      	stmia	r4!, {r0, r1, r2, r3}
  400f54:	cd0f      	ldmia	r5!, {r0, r1, r2, r3}
  400f56:	c40f      	stmia	r4!, {r0, r1, r2, r3}
  400f58:	e895 0007 	ldmia.w	r5, {r0, r1, r2}
  400f5c:	2300      	movs	r3, #0
  400f5e:	e884 0007 	stmia.w	r4, {r0, r1, r2}
  400f62:	aa01      	add	r2, sp, #4
  400f64:	f852 0023 	ldr.w	r0, [r2, r3, lsl #2]
  400f68:	fbb7 f0f0 	udiv	r0, r7, r0
  400f6c:	fbb0 f0f6 	udiv	r0, r0, r6
  400f70:	f5b0 7f80 	cmp.w	r0, #256	; 0x100
  400f74:	d906      	bls.n	400f84 <pwm_clocks_generate+0x40>
  400f76:	3301      	adds	r3, #1
  400f78:	2b0b      	cmp	r3, #11
  400f7a:	d1f3      	bne.n	400f64 <pwm_clocks_generate+0x20>
  400f7c:	f64f 70ff 	movw	r0, #65535	; 0xffff
  400f80:	b00d      	add	sp, #52	; 0x34
  400f82:	bdf0      	pop	{r4, r5, r6, r7, pc}
  400f84:	ea40 2003 	orr.w	r0, r0, r3, lsl #8
  400f88:	e7fa      	b.n	400f80 <pwm_clocks_generate+0x3c>
  400f8a:	bf00      	nop
  400f8c:	00402320 	.word	0x00402320

00400f90 <pwm_init>:
  400f90:	b570      	push	{r4, r5, r6, lr}
  400f92:	680c      	ldr	r4, [r1, #0]
  400f94:	4606      	mov	r6, r0
  400f96:	460d      	mov	r5, r1
  400f98:	b144      	cbz	r4, 400fac <pwm_init+0x1c>
  400f9a:	4620      	mov	r0, r4
  400f9c:	4b0c      	ldr	r3, [pc, #48]	; (400fd0 <pwm_init+0x40>)
  400f9e:	6889      	ldr	r1, [r1, #8]
  400fa0:	4798      	blx	r3
  400fa2:	f64f 73ff 	movw	r3, #65535	; 0xffff
  400fa6:	4604      	mov	r4, r0
  400fa8:	4298      	cmp	r0, r3
  400faa:	d00c      	beq.n	400fc6 <pwm_init+0x36>
  400fac:	6868      	ldr	r0, [r5, #4]
  400fae:	b140      	cbz	r0, 400fc2 <pwm_init+0x32>
  400fb0:	4b07      	ldr	r3, [pc, #28]	; (400fd0 <pwm_init+0x40>)
  400fb2:	68a9      	ldr	r1, [r5, #8]
  400fb4:	4798      	blx	r3
  400fb6:	f64f 73ff 	movw	r3, #65535	; 0xffff
  400fba:	4298      	cmp	r0, r3
  400fbc:	d005      	beq.n	400fca <pwm_init+0x3a>
  400fbe:	ea44 4400 	orr.w	r4, r4, r0, lsl #16
  400fc2:	6034      	str	r4, [r6, #0]
  400fc4:	2400      	movs	r4, #0
  400fc6:	4620      	mov	r0, r4
  400fc8:	bd70      	pop	{r4, r5, r6, pc}
  400fca:	4604      	mov	r4, r0
  400fcc:	e7fb      	b.n	400fc6 <pwm_init+0x36>
  400fce:	bf00      	nop
  400fd0:	00400f45 	.word	0x00400f45

00400fd4 <pwm_channel_init>:
  400fd4:	e891 000c 	ldmia.w	r1, {r2, r3}
  400fd8:	b570      	push	{r4, r5, r6, lr}
  400fda:	f003 030f 	and.w	r3, r3, #15
  400fde:	8a8c      	ldrh	r4, [r1, #20]
  400fe0:	4323      	orrs	r3, r4
  400fe2:	890c      	ldrh	r4, [r1, #8]
  400fe4:	4323      	orrs	r3, r4
  400fe6:	7a8c      	ldrb	r4, [r1, #10]
  400fe8:	ea43 2344 	orr.w	r3, r3, r4, lsl #9
  400fec:	7d8c      	ldrb	r4, [r1, #22]
  400fee:	ea43 4304 	orr.w	r3, r3, r4, lsl #16
  400ff2:	7dcc      	ldrb	r4, [r1, #23]
  400ff4:	ea43 4344 	orr.w	r3, r3, r4, lsl #17
  400ff8:	7e0c      	ldrb	r4, [r1, #24]
  400ffa:	ea43 4384 	orr.w	r3, r3, r4, lsl #18
  400ffe:	eb00 1442 	add.w	r4, r0, r2, lsl #5
  401002:	f8c4 3200 	str.w	r3, [r4, #512]	; 0x200
  401006:	68cb      	ldr	r3, [r1, #12]
  401008:	f8c4 3204 	str.w	r3, [r4, #516]	; 0x204
  40100c:	690b      	ldr	r3, [r1, #16]
  40100e:	f8c4 320c 	str.w	r3, [r4, #524]	; 0x20c
  401012:	7d8b      	ldrb	r3, [r1, #22]
  401014:	b11b      	cbz	r3, 40101e <pwm_channel_init+0x4a>
  401016:	f8d1 301a 	ldr.w	r3, [r1, #26]
  40101a:	f8c4 3218 	str.w	r3, [r4, #536]	; 0x218
  40101e:	7fcc      	ldrb	r4, [r1, #31]
  401020:	f04f 1301 	mov.w	r3, #65537	; 0x10001
  401024:	6c85      	ldr	r5, [r0, #72]	; 0x48
  401026:	fa04 f602 	lsl.w	r6, r4, r2
  40102a:	4093      	lsls	r3, r2
  40102c:	7f8c      	ldrb	r4, [r1, #30]
  40102e:	43db      	mvns	r3, r3
  401030:	4094      	lsls	r4, r2
  401032:	401d      	ands	r5, r3
  401034:	ea44 4406 	orr.w	r4, r4, r6, lsl #16
  401038:	432c      	orrs	r4, r5
  40103a:	6484      	str	r4, [r0, #72]	; 0x48
  40103c:	6c44      	ldr	r4, [r0, #68]	; 0x44
  40103e:	4023      	ands	r3, r4
  401040:	f891 4021 	ldrb.w	r4, [r1, #33]	; 0x21
  401044:	fa04 f502 	lsl.w	r5, r4, r2
  401048:	f891 4020 	ldrb.w	r4, [r1, #32]
  40104c:	4094      	lsls	r4, r2
  40104e:	ea44 4405 	orr.w	r4, r4, r5, lsl #16
  401052:	4323      	orrs	r3, r4
  401054:	6443      	str	r3, [r0, #68]	; 0x44
  401056:	2301      	movs	r3, #1
  401058:	f891 4022 	ldrb.w	r4, [r1, #34]	; 0x22
  40105c:	4093      	lsls	r3, r2
  40105e:	2c00      	cmp	r4, #0
  401060:	d03e      	beq.n	4010e0 <pwm_channel_init+0x10c>
  401062:	6a04      	ldr	r4, [r0, #32]
  401064:	431c      	orrs	r4, r3
  401066:	6204      	str	r4, [r0, #32]
  401068:	f891 4024 	ldrb.w	r4, [r1, #36]	; 0x24
  40106c:	2c02      	cmp	r4, #2
  40106e:	d13b      	bne.n	4010e8 <pwm_channel_init+0x114>
  401070:	f8d0 40c0 	ldr.w	r4, [r0, #192]	; 0xc0
  401074:	431c      	orrs	r4, r3
  401076:	f8c0 40c0 	str.w	r4, [r0, #192]	; 0xc0
  40107a:	f891 4025 	ldrb.w	r4, [r1, #37]	; 0x25
  40107e:	041b      	lsls	r3, r3, #16
  401080:	2c02      	cmp	r4, #2
  401082:	d142      	bne.n	40110a <pwm_channel_init+0x136>
  401084:	f8d0 40c0 	ldr.w	r4, [r0, #192]	; 0xc0
  401088:	4323      	orrs	r3, r4
  40108a:	f8c0 30c0 	str.w	r3, [r0, #192]	; 0xc0
  40108e:	00d2      	lsls	r2, r2, #3
  401090:	24ff      	movs	r4, #255	; 0xff
  401092:	6ec3      	ldr	r3, [r0, #108]	; 0x6c
  401094:	4094      	lsls	r4, r2
  401096:	ea23 0404 	bic.w	r4, r3, r4
  40109a:	f891 3023 	ldrb.w	r3, [r1, #35]	; 0x23
  40109e:	4093      	lsls	r3, r2
  4010a0:	4323      	orrs	r3, r4
  4010a2:	66c3      	str	r3, [r0, #108]	; 0x6c
  4010a4:	b952      	cbnz	r2, 4010bc <pwm_channel_init+0xe8>
  4010a6:	f891 302c 	ldrb.w	r3, [r1, #44]	; 0x2c
  4010aa:	2b01      	cmp	r3, #1
  4010ac:	6a8b      	ldr	r3, [r1, #40]	; 0x28
  4010ae:	f023 437f 	bic.w	r3, r3, #4278190080	; 0xff000000
  4010b2:	bf08      	it	eq
  4010b4:	f043 7380 	orreq.w	r3, r3, #16777216	; 0x1000000
  4010b8:	f8c0 30a0 	str.w	r3, [r0, #160]	; 0xa0
  4010bc:	eb00 1042 	add.w	r0, r0, r2, lsl #5
  4010c0:	f8d0 3200 	ldr.w	r3, [r0, #512]	; 0x200
  4010c4:	f423 2300 	bic.w	r3, r3, #524288	; 0x80000
  4010c8:	f8c0 3200 	str.w	r3, [r0, #512]	; 0x200
  4010cc:	6b8b      	ldr	r3, [r1, #56]	; 0x38
  4010ce:	f8d0 2200 	ldr.w	r2, [r0, #512]	; 0x200
  4010d2:	f403 2300 	and.w	r3, r3, #524288	; 0x80000
  4010d6:	4313      	orrs	r3, r2
  4010d8:	f8c0 3200 	str.w	r3, [r0, #512]	; 0x200
  4010dc:	2000      	movs	r0, #0
  4010de:	bd70      	pop	{r4, r5, r6, pc}
  4010e0:	6a04      	ldr	r4, [r0, #32]
  4010e2:	ea24 0403 	bic.w	r4, r4, r3
  4010e6:	e7be      	b.n	401066 <pwm_channel_init+0x92>
  4010e8:	f8d0 50c0 	ldr.w	r5, [r0, #192]	; 0xc0
  4010ec:	43dc      	mvns	r4, r3
  4010ee:	4025      	ands	r5, r4
  4010f0:	f8c0 50c0 	str.w	r5, [r0, #192]	; 0xc0
  4010f4:	f891 5024 	ldrb.w	r5, [r1, #36]	; 0x24
  4010f8:	2d01      	cmp	r5, #1
  4010fa:	d103      	bne.n	401104 <pwm_channel_init+0x130>
  4010fc:	6e84      	ldr	r4, [r0, #104]	; 0x68
  4010fe:	431c      	orrs	r4, r3
  401100:	6684      	str	r4, [r0, #104]	; 0x68
  401102:	e7ba      	b.n	40107a <pwm_channel_init+0xa6>
  401104:	6e85      	ldr	r5, [r0, #104]	; 0x68
  401106:	402c      	ands	r4, r5
  401108:	e7fa      	b.n	401100 <pwm_channel_init+0x12c>
  40110a:	f8d0 50c0 	ldr.w	r5, [r0, #192]	; 0xc0
  40110e:	43dc      	mvns	r4, r3
  401110:	4025      	ands	r5, r4
  401112:	f8c0 50c0 	str.w	r5, [r0, #192]	; 0xc0
  401116:	f891 5025 	ldrb.w	r5, [r1, #37]	; 0x25
  40111a:	2d01      	cmp	r5, #1
  40111c:	d103      	bne.n	401126 <pwm_channel_init+0x152>
  40111e:	6e84      	ldr	r4, [r0, #104]	; 0x68
  401120:	4323      	orrs	r3, r4
  401122:	6683      	str	r3, [r0, #104]	; 0x68
  401124:	e7b3      	b.n	40108e <pwm_channel_init+0xba>
  401126:	6e83      	ldr	r3, [r0, #104]	; 0x68
  401128:	401c      	ands	r4, r3
  40112a:	6684      	str	r4, [r0, #104]	; 0x68
  40112c:	e7af      	b.n	40108e <pwm_channel_init+0xba>

0040112e <pwm_channel_update_duty>:
  40112e:	690b      	ldr	r3, [r1, #16]
  401130:	4293      	cmp	r3, r2
  401132:	d307      	bcc.n	401144 <pwm_channel_update_duty+0x16>
  401134:	680b      	ldr	r3, [r1, #0]
  401136:	60ca      	str	r2, [r1, #12]
  401138:	eb00 1043 	add.w	r0, r0, r3, lsl #5
  40113c:	f8c0 2208 	str.w	r2, [r0, #520]	; 0x208
  401140:	2000      	movs	r0, #0
  401142:	4770      	bx	lr
  401144:	f64f 70ff 	movw	r0, #65535	; 0xffff
  401148:	4770      	bx	lr

0040114a <pwm_channel_enable>:
  40114a:	2301      	movs	r3, #1
  40114c:	fa03 f101 	lsl.w	r1, r3, r1
  401150:	6041      	str	r1, [r0, #4]
  401152:	4770      	bx	lr

00401154 <pwm_channel_disable>:
  401154:	2301      	movs	r3, #1
  401156:	fa03 f101 	lsl.w	r1, r3, r1
  40115a:	6081      	str	r1, [r0, #8]
  40115c:	4770      	bx	lr

0040115e <pwm_channel_disable_interrupt>:
  40115e:	2301      	movs	r3, #1
  401160:	3210      	adds	r2, #16
  401162:	fa03 f101 	lsl.w	r1, r3, r1
  401166:	fa03 f202 	lsl.w	r2, r3, r2
  40116a:	430a      	orrs	r2, r1
  40116c:	6142      	str	r2, [r0, #20]
  40116e:	4770      	bx	lr

00401170 <SysTick_Handler>:
  401170:	4a02      	ldr	r2, [pc, #8]	; (40117c <SysTick_Handler+0xc>)
  401172:	6813      	ldr	r3, [r2, #0]
  401174:	3301      	adds	r3, #1
  401176:	6013      	str	r3, [r2, #0]
  401178:	4770      	bx	lr
  40117a:	bf00      	nop
  40117c:	20400498 	.word	0x20400498

00401180 <time_tick_init>:
  401180:	2200      	movs	r2, #0
  401182:	4b06      	ldr	r3, [pc, #24]	; (40119c <time_tick_init+0x1c>)
  401184:	4906      	ldr	r1, [pc, #24]	; (4011a0 <time_tick_init+0x20>)
  401186:	20e0      	movs	r0, #224	; 0xe0
  401188:	601a      	str	r2, [r3, #0]
  40118a:	4b06      	ldr	r3, [pc, #24]	; (4011a4 <time_tick_init+0x24>)
  40118c:	6059      	str	r1, [r3, #4]
  40118e:	4906      	ldr	r1, [pc, #24]	; (4011a8 <time_tick_init+0x28>)
  401190:	f881 0023 	strb.w	r0, [r1, #35]	; 0x23
  401194:	609a      	str	r2, [r3, #8]
  401196:	2207      	movs	r2, #7
  401198:	601a      	str	r2, [r3, #0]
  40119a:	4770      	bx	lr
  40119c:	20400498 	.word	0x20400498
  4011a0:	0002327f 	.word	0x0002327f
  4011a4:	e000e010 	.word	0xe000e010
  4011a8:	e000ed00 	.word	0xe000ed00

004011ac <time_tick_get>:
  4011ac:	4b01      	ldr	r3, [pc, #4]	; (4011b4 <time_tick_get+0x8>)
  4011ae:	6818      	ldr	r0, [r3, #0]
  4011b0:	4770      	bx	lr
  4011b2:	bf00      	nop
  4011b4:	20400498 	.word	0x20400498

004011b8 <time_tick_calc_delay>:
  4011b8:	4281      	cmp	r1, r0
  4011ba:	eba1 0000 	sub.w	r0, r1, r0
  4011be:	bf38      	it	cc
  4011c0:	f100 30ff 	addcc.w	r0, r0, #4294967295
  4011c4:	4770      	bx	lr
	...

004011c8 <sysclk_init>:
  4011c8:	b570      	push	{r4, r5, r6, lr}
  4011ca:	4810      	ldr	r0, [pc, #64]	; (40120c <sysclk_init+0x44>)
  4011cc:	4c10      	ldr	r4, [pc, #64]	; (401210 <sysclk_init+0x48>)
  4011ce:	4d11      	ldr	r5, [pc, #68]	; (401214 <sysclk_init+0x4c>)
  4011d0:	47a0      	blx	r4
  4011d2:	213e      	movs	r1, #62	; 0x3e
  4011d4:	2000      	movs	r0, #0
  4011d6:	4b10      	ldr	r3, [pc, #64]	; (401218 <sysclk_init+0x50>)
  4011d8:	4798      	blx	r3
  4011da:	47a8      	blx	r5
  4011dc:	2800      	cmp	r0, #0
  4011de:	d0fc      	beq.n	4011da <sysclk_init+0x12>
  4011e0:	4b0e      	ldr	r3, [pc, #56]	; (40121c <sysclk_init+0x54>)
  4011e2:	4798      	blx	r3
  4011e4:	4d0e      	ldr	r5, [pc, #56]	; (401220 <sysclk_init+0x58>)
  4011e6:	4a0f      	ldr	r2, [pc, #60]	; (401224 <sysclk_init+0x5c>)
  4011e8:	4b0f      	ldr	r3, [pc, #60]	; (401228 <sysclk_init+0x60>)
  4011ea:	629a      	str	r2, [r3, #40]	; 0x28
  4011ec:	47a8      	blx	r5
  4011ee:	2800      	cmp	r0, #0
  4011f0:	d0fc      	beq.n	4011ec <sysclk_init+0x24>
  4011f2:	2002      	movs	r0, #2
  4011f4:	4b0d      	ldr	r3, [pc, #52]	; (40122c <sysclk_init+0x64>)
  4011f6:	4798      	blx	r3
  4011f8:	4b0d      	ldr	r3, [pc, #52]	; (401230 <sysclk_init+0x68>)
  4011fa:	2000      	movs	r0, #0
  4011fc:	4798      	blx	r3
  4011fe:	4b0d      	ldr	r3, [pc, #52]	; (401234 <sysclk_init+0x6c>)
  401200:	4798      	blx	r3
  401202:	4623      	mov	r3, r4
  401204:	480c      	ldr	r0, [pc, #48]	; (401238 <sysclk_init+0x70>)
  401206:	e8bd 4070 	ldmia.w	sp!, {r4, r5, r6, lr}
  40120a:	4718      	bx	r3
  40120c:	11e1a300 	.word	0x11e1a300
  401210:	004015d1 	.word	0x004015d1
  401214:	004012f5 	.word	0x004012f5
  401218:	004012ad 	.word	0x004012ad
  40121c:	00401305 	.word	0x00401305
  401220:	00401315 	.word	0x00401315
  401224:	200b3f01 	.word	0x200b3f01
  401228:	400e0600 	.word	0x400e0600
  40122c:	0040123d 	.word	0x0040123d
  401230:	00401269 	.word	0x00401269
  401234:	00401509 	.word	0x00401509
  401238:	08954400 	.word	0x08954400

0040123c <pmc_mck_set_division>:
  40123c:	3802      	subs	r0, #2
  40123e:	2802      	cmp	r0, #2
  401240:	bf96      	itet	ls
  401242:	4b07      	ldrls	r3, [pc, #28]	; (401260 <pmc_mck_set_division+0x24>)
  401244:	2100      	movhi	r1, #0
  401246:	f833 1010 	ldrhls.w	r1, [r3, r0, lsl #1]
  40124a:	4b06      	ldr	r3, [pc, #24]	; (401264 <pmc_mck_set_division+0x28>)
  40124c:	6b1a      	ldr	r2, [r3, #48]	; 0x30
  40124e:	f422 7240 	bic.w	r2, r2, #768	; 0x300
  401252:	430a      	orrs	r2, r1
  401254:	631a      	str	r2, [r3, #48]	; 0x30
  401256:	6e9a      	ldr	r2, [r3, #104]	; 0x68
  401258:	0712      	lsls	r2, r2, #28
  40125a:	d5fc      	bpl.n	401256 <pmc_mck_set_division+0x1a>
  40125c:	4770      	bx	lr
  40125e:	bf00      	nop
  401260:	0040234c 	.word	0x0040234c
  401264:	400e0600 	.word	0x400e0600

00401268 <pmc_switch_mck_to_pllack>:
  401268:	4b0f      	ldr	r3, [pc, #60]	; (4012a8 <pmc_switch_mck_to_pllack+0x40>)
  40126a:	6b1a      	ldr	r2, [r3, #48]	; 0x30
  40126c:	f022 0270 	bic.w	r2, r2, #112	; 0x70
  401270:	4310      	orrs	r0, r2
  401272:	f241 0201 	movw	r2, #4097	; 0x1001
  401276:	6318      	str	r0, [r3, #48]	; 0x30
  401278:	6e99      	ldr	r1, [r3, #104]	; 0x68
  40127a:	0708      	lsls	r0, r1, #28
  40127c:	d50c      	bpl.n	401298 <pmc_switch_mck_to_pllack+0x30>
  40127e:	6b1a      	ldr	r2, [r3, #48]	; 0x30
  401280:	f022 0203 	bic.w	r2, r2, #3
  401284:	f042 0202 	orr.w	r2, r2, #2
  401288:	631a      	str	r2, [r3, #48]	; 0x30
  40128a:	f241 0201 	movw	r2, #4097	; 0x1001
  40128e:	6e99      	ldr	r1, [r3, #104]	; 0x68
  401290:	0709      	lsls	r1, r1, #28
  401292:	d505      	bpl.n	4012a0 <pmc_switch_mck_to_pllack+0x38>
  401294:	2000      	movs	r0, #0
  401296:	4770      	bx	lr
  401298:	3a01      	subs	r2, #1
  40129a:	d1ed      	bne.n	401278 <pmc_switch_mck_to_pllack+0x10>
  40129c:	2001      	movs	r0, #1
  40129e:	4770      	bx	lr
  4012a0:	3a01      	subs	r2, #1
  4012a2:	d1f4      	bne.n	40128e <pmc_switch_mck_to_pllack+0x26>
  4012a4:	e7fa      	b.n	40129c <pmc_switch_mck_to_pllack+0x34>
  4012a6:	bf00      	nop
  4012a8:	400e0600 	.word	0x400e0600

004012ac <pmc_switch_mainck_to_xtal>:
  4012ac:	4a0e      	ldr	r2, [pc, #56]	; (4012e8 <pmc_switch_mainck_to_xtal+0x3c>)
  4012ae:	6a13      	ldr	r3, [r2, #32]
  4012b0:	b128      	cbz	r0, 4012be <pmc_switch_mainck_to_xtal+0x12>
  4012b2:	490e      	ldr	r1, [pc, #56]	; (4012ec <pmc_switch_mainck_to_xtal+0x40>)
  4012b4:	4019      	ands	r1, r3
  4012b6:	4b0e      	ldr	r3, [pc, #56]	; (4012f0 <pmc_switch_mainck_to_xtal+0x44>)
  4012b8:	430b      	orrs	r3, r1
  4012ba:	6213      	str	r3, [r2, #32]
  4012bc:	4770      	bx	lr
  4012be:	f423 135c 	bic.w	r3, r3, #3604480	; 0x370000
  4012c2:	0209      	lsls	r1, r1, #8
  4012c4:	f023 0303 	bic.w	r3, r3, #3
  4012c8:	b289      	uxth	r1, r1
  4012ca:	f443 135c 	orr.w	r3, r3, #3604480	; 0x370000
  4012ce:	f043 0301 	orr.w	r3, r3, #1
  4012d2:	430b      	orrs	r3, r1
  4012d4:	6213      	str	r3, [r2, #32]
  4012d6:	6e93      	ldr	r3, [r2, #104]	; 0x68
  4012d8:	07db      	lsls	r3, r3, #31
  4012da:	d5fc      	bpl.n	4012d6 <pmc_switch_mainck_to_xtal+0x2a>
  4012dc:	6a13      	ldr	r3, [r2, #32]
  4012de:	f043 739b 	orr.w	r3, r3, #20316160	; 0x1360000
  4012e2:	f443 3380 	orr.w	r3, r3, #65536	; 0x10000
  4012e6:	e7e8      	b.n	4012ba <pmc_switch_mainck_to_xtal+0xe>
  4012e8:	400e0600 	.word	0x400e0600
  4012ec:	fec8fffc 	.word	0xfec8fffc
  4012f0:	01370002 	.word	0x01370002

004012f4 <pmc_osc_is_ready_mainck>:
  4012f4:	4b02      	ldr	r3, [pc, #8]	; (401300 <pmc_osc_is_ready_mainck+0xc>)
  4012f6:	6e98      	ldr	r0, [r3, #104]	; 0x68
  4012f8:	f400 3080 	and.w	r0, r0, #65536	; 0x10000
  4012fc:	4770      	bx	lr
  4012fe:	bf00      	nop
  401300:	400e0600 	.word	0x400e0600

00401304 <pmc_disable_pllack>:
  401304:	f04f 5200 	mov.w	r2, #536870912	; 0x20000000
  401308:	4b01      	ldr	r3, [pc, #4]	; (401310 <pmc_disable_pllack+0xc>)
  40130a:	629a      	str	r2, [r3, #40]	; 0x28
  40130c:	4770      	bx	lr
  40130e:	bf00      	nop
  401310:	400e0600 	.word	0x400e0600

00401314 <pmc_is_locked_pllack>:
  401314:	4b02      	ldr	r3, [pc, #8]	; (401320 <pmc_is_locked_pllack+0xc>)
  401316:	6e98      	ldr	r0, [r3, #104]	; 0x68
  401318:	f000 0002 	and.w	r0, r0, #2
  40131c:	4770      	bx	lr
  40131e:	bf00      	nop
  401320:	400e0600 	.word	0x400e0600

00401324 <pmc_enable_periph_clk>:
  401324:	283f      	cmp	r0, #63	; 0x3f
  401326:	d818      	bhi.n	40135a <pmc_enable_periph_clk+0x36>
  401328:	281f      	cmp	r0, #31
  40132a:	4a0d      	ldr	r2, [pc, #52]	; (401360 <pmc_enable_periph_clk+0x3c>)
  40132c:	f04f 0301 	mov.w	r3, #1
  401330:	d808      	bhi.n	401344 <pmc_enable_periph_clk+0x20>
  401332:	6991      	ldr	r1, [r2, #24]
  401334:	fa03 f000 	lsl.w	r0, r3, r0
  401338:	ea30 0301 	bics.w	r3, r0, r1
  40133c:	d000      	beq.n	401340 <pmc_enable_periph_clk+0x1c>
  40133e:	6110      	str	r0, [r2, #16]
  401340:	2000      	movs	r0, #0
  401342:	4770      	bx	lr
  401344:	3820      	subs	r0, #32
  401346:	f8d2 1108 	ldr.w	r1, [r2, #264]	; 0x108
  40134a:	fa03 f000 	lsl.w	r0, r3, r0
  40134e:	ea30 0301 	bics.w	r3, r0, r1
  401352:	d0f5      	beq.n	401340 <pmc_enable_periph_clk+0x1c>
  401354:	f8c2 0100 	str.w	r0, [r2, #256]	; 0x100
  401358:	e7f2      	b.n	401340 <pmc_enable_periph_clk+0x1c>
  40135a:	2001      	movs	r0, #1
  40135c:	4770      	bx	lr
  40135e:	bf00      	nop
  401360:	400e0600 	.word	0x400e0600

00401364 <xdmac_configure_transfer>:
  401364:	eb00 1181 	add.w	r1, r0, r1, lsl #6
  401368:	6dcb      	ldr	r3, [r1, #92]	; 0x5c
  40136a:	6853      	ldr	r3, [r2, #4]
  40136c:	660b      	str	r3, [r1, #96]	; 0x60
  40136e:	6893      	ldr	r3, [r2, #8]
  401370:	664b      	str	r3, [r1, #100]	; 0x64
  401372:	6813      	ldr	r3, [r2, #0]
  401374:	f023 437f 	bic.w	r3, r3, #4278190080	; 0xff000000
  401378:	670b      	str	r3, [r1, #112]	; 0x70
  40137a:	6913      	ldr	r3, [r2, #16]
  40137c:	f3c3 030b 	ubfx	r3, r3, #0, #12
  401380:	674b      	str	r3, [r1, #116]	; 0x74
  401382:	6953      	ldr	r3, [r2, #20]
  401384:	67cb      	str	r3, [r1, #124]	; 0x7c
  401386:	6993      	ldr	r3, [r2, #24]
  401388:	f023 437f 	bic.w	r3, r3, #4278190080	; 0xff000000
  40138c:	f8c1 3080 	str.w	r3, [r1, #128]	; 0x80
  401390:	69d3      	ldr	r3, [r2, #28]
  401392:	f023 437f 	bic.w	r3, r3, #4278190080	; 0xff000000
  401396:	f8c1 3084 	str.w	r3, [r1, #132]	; 0x84
  40139a:	68d3      	ldr	r3, [r2, #12]
  40139c:	678b      	str	r3, [r1, #120]	; 0x78
  40139e:	4770      	bx	lr

004013a0 <ioport_set_pin_mode>:
  4013a0:	f000 021f 	and.w	r2, r0, #31
  4013a4:	0940      	lsrs	r0, r0, #5
  4013a6:	2301      	movs	r3, #1
  4013a8:	f500 1000 	add.w	r0, r0, #2097152	; 0x200000
  4013ac:	4093      	lsls	r3, r2
  4013ae:	070a      	lsls	r2, r1, #28
  4013b0:	f200 7007 	addw	r0, r0, #1799	; 0x707
  4013b4:	ea4f 2040 	mov.w	r0, r0, lsl #9
  4013b8:	d51e      	bpl.n	4013f8 <ioport_set_pin_mode+0x58>
  4013ba:	6643      	str	r3, [r0, #100]	; 0x64
  4013bc:	06ca      	lsls	r2, r1, #27
  4013be:	d51d      	bpl.n	4013fc <ioport_set_pin_mode+0x5c>
  4013c0:	f8c0 3094 	str.w	r3, [r0, #148]	; 0x94
  4013c4:	068a      	lsls	r2, r1, #26
  4013c6:	d51c      	bpl.n	401402 <ioport_set_pin_mode+0x62>
  4013c8:	6503      	str	r3, [r0, #80]	; 0x50
  4013ca:	f011 0fc0 	tst.w	r1, #192	; 0xc0
  4013ce:	d01a      	beq.n	401406 <ioport_set_pin_mode+0x66>
  4013d0:	6203      	str	r3, [r0, #32]
  4013d2:	060a      	lsls	r2, r1, #24
  4013d4:	d519      	bpl.n	40140a <ioport_set_pin_mode+0x6a>
  4013d6:	f8c0 3084 	str.w	r3, [r0, #132]	; 0x84
  4013da:	6f02      	ldr	r2, [r0, #112]	; 0x70
  4013dc:	f011 0f01 	tst.w	r1, #1
  4013e0:	bf14      	ite	ne
  4013e2:	431a      	orrne	r2, r3
  4013e4:	439a      	biceq	r2, r3
  4013e6:	0789      	lsls	r1, r1, #30
  4013e8:	6702      	str	r2, [r0, #112]	; 0x70
  4013ea:	6f42      	ldr	r2, [r0, #116]	; 0x74
  4013ec:	bf4c      	ite	mi
  4013ee:	4313      	orrmi	r3, r2
  4013f0:	ea22 0303 	bicpl.w	r3, r2, r3
  4013f4:	6743      	str	r3, [r0, #116]	; 0x74
  4013f6:	4770      	bx	lr
  4013f8:	6603      	str	r3, [r0, #96]	; 0x60
  4013fa:	e7df      	b.n	4013bc <ioport_set_pin_mode+0x1c>
  4013fc:	f8c0 3090 	str.w	r3, [r0, #144]	; 0x90
  401400:	e7e0      	b.n	4013c4 <ioport_set_pin_mode+0x24>
  401402:	6543      	str	r3, [r0, #84]	; 0x54
  401404:	e7e1      	b.n	4013ca <ioport_set_pin_mode+0x2a>
  401406:	6243      	str	r3, [r0, #36]	; 0x24
  401408:	e7e3      	b.n	4013d2 <ioport_set_pin_mode+0x32>
  40140a:	f8c0 3080 	str.w	r3, [r0, #128]	; 0x80
  40140e:	e7e4      	b.n	4013da <ioport_set_pin_mode+0x3a>

00401410 <board_init>:
  401410:	b538      	push	{r3, r4, r5, lr}
  401412:	2102      	movs	r1, #2
  401414:	4d12      	ldr	r5, [pc, #72]	; (401460 <board_init+0x50>)
  401416:	201c      	movs	r0, #28
  401418:	4c12      	ldr	r4, [pc, #72]	; (401464 <board_init+0x54>)
  40141a:	47a8      	blx	r5
  40141c:	f04f 5380 	mov.w	r3, #268435456	; 0x10000000
  401420:	2103      	movs	r1, #3
  401422:	2019      	movs	r0, #25
  401424:	6063      	str	r3, [r4, #4]
  401426:	47a8      	blx	r5
  401428:	f04f 7300 	mov.w	r3, #33554432	; 0x2000000
  40142c:	2102      	movs	r1, #2
  40142e:	201e      	movs	r0, #30
  401430:	6063      	str	r3, [r4, #4]
  401432:	47a8      	blx	r5
  401434:	f04f 4380 	mov.w	r3, #1073741824	; 0x40000000
  401438:	2102      	movs	r1, #2
  40143a:	201f      	movs	r0, #31
  40143c:	6063      	str	r3, [r4, #4]
  40143e:	47a8      	blx	r5
  401440:	f04f 4300 	mov.w	r3, #2147483648	; 0x80000000
  401444:	2102      	movs	r1, #2
  401446:	201a      	movs	r0, #26
  401448:	6063      	str	r3, [r4, #4]
  40144a:	47a8      	blx	r5
  40144c:	f04f 6380 	mov.w	r3, #67108864	; 0x4000000
  401450:	2102      	movs	r1, #2
  401452:	201b      	movs	r0, #27
  401454:	6063      	str	r3, [r4, #4]
  401456:	47a8      	blx	r5
  401458:	f04f 6300 	mov.w	r3, #134217728	; 0x8000000
  40145c:	6063      	str	r3, [r4, #4]
  40145e:	bd38      	pop	{r3, r4, r5, pc}
  401460:	004013a1 	.word	0x004013a1
  401464:	400e0e00 	.word	0x400e0e00

00401468 <Dummy_Handler>:
  401468:	e7fe      	b.n	401468 <Dummy_Handler>
	...

0040146c <Reset_Handler>:
  40146c:	b508      	push	{r3, lr}
  40146e:	4a1b      	ldr	r2, [pc, #108]	; (4014dc <Reset_Handler+0x70>)
  401470:	4b1b      	ldr	r3, [pc, #108]	; (4014e0 <Reset_Handler+0x74>)
  401472:	429a      	cmp	r2, r3
  401474:	d125      	bne.n	4014c2 <Reset_Handler+0x56>
  401476:	4b1b      	ldr	r3, [pc, #108]	; (4014e4 <Reset_Handler+0x78>)
  401478:	2100      	movs	r1, #0
  40147a:	4a1b      	ldr	r2, [pc, #108]	; (4014e8 <Reset_Handler+0x7c>)
  40147c:	4293      	cmp	r3, r2
  40147e:	d329      	bcc.n	4014d4 <Reset_Handler+0x68>
  401480:	4b1a      	ldr	r3, [pc, #104]	; (4014ec <Reset_Handler+0x80>)
  401482:	4a1b      	ldr	r2, [pc, #108]	; (4014f0 <Reset_Handler+0x84>)
  401484:	f023 037f 	bic.w	r3, r3, #127	; 0x7f
  401488:	6093      	str	r3, [r2, #8]
  40148a:	f3ef 8310 	mrs	r3, PRIMASK
  40148e:	b672      	cpsid	i
  401490:	f3bf 8f5f 	dmb	sy
  401494:	4817      	ldr	r0, [pc, #92]	; (4014f4 <Reset_Handler+0x88>)
  401496:	2200      	movs	r2, #0
  401498:	4917      	ldr	r1, [pc, #92]	; (4014f8 <Reset_Handler+0x8c>)
  40149a:	700a      	strb	r2, [r1, #0]
  40149c:	6802      	ldr	r2, [r0, #0]
  40149e:	f442 0270 	orr.w	r2, r2, #15728640	; 0xf00000
  4014a2:	6002      	str	r2, [r0, #0]
  4014a4:	f3bf 8f4f 	dsb	sy
  4014a8:	f3bf 8f6f 	isb	sy
  4014ac:	b923      	cbnz	r3, 4014b8 <Reset_Handler+0x4c>
  4014ae:	2301      	movs	r3, #1
  4014b0:	700b      	strb	r3, [r1, #0]
  4014b2:	f3bf 8f5f 	dmb	sy
  4014b6:	b662      	cpsie	i
  4014b8:	4b10      	ldr	r3, [pc, #64]	; (4014fc <Reset_Handler+0x90>)
  4014ba:	4798      	blx	r3
  4014bc:	4b10      	ldr	r3, [pc, #64]	; (401500 <Reset_Handler+0x94>)
  4014be:	4798      	blx	r3
  4014c0:	e7fe      	b.n	4014c0 <Reset_Handler+0x54>
  4014c2:	3a04      	subs	r2, #4
  4014c4:	490f      	ldr	r1, [pc, #60]	; (401504 <Reset_Handler+0x98>)
  4014c6:	428b      	cmp	r3, r1
  4014c8:	d2d5      	bcs.n	401476 <Reset_Handler+0xa>
  4014ca:	f852 0f04 	ldr.w	r0, [r2, #4]!
  4014ce:	f843 0b04 	str.w	r0, [r3], #4
  4014d2:	e7f8      	b.n	4014c6 <Reset_Handler+0x5a>
  4014d4:	f843 1b04 	str.w	r1, [r3], #4
  4014d8:	e7d0      	b.n	40147c <Reset_Handler+0x10>
  4014da:	bf00      	nop
  4014dc:	00402408 	.word	0x00402408
  4014e0:	20400000 	.word	0x20400000
  4014e4:	20400448 	.word	0x20400448
  4014e8:	2043e550 	.word	0x2043e550
  4014ec:	00400000 	.word	0x00400000
  4014f0:	e000ed00 	.word	0xe000ed00
  4014f4:	e000ed88 	.word	0xe000ed88
  4014f8:	2040000a 	.word	0x2040000a
  4014fc:	00401f45 	.word	0x00401f45
  401500:	00401cc5 	.word	0x00401cc5
  401504:	20400444 	.word	0x20400444

00401508 <SystemCoreClockUpdate>:
  401508:	4a2b      	ldr	r2, [pc, #172]	; (4015b8 <SystemCoreClockUpdate+0xb0>)
  40150a:	4b2c      	ldr	r3, [pc, #176]	; (4015bc <SystemCoreClockUpdate+0xb4>)
  40150c:	b510      	push	{r4, lr}
  40150e:	6b11      	ldr	r1, [r2, #48]	; 0x30
  401510:	f001 0103 	and.w	r1, r1, #3
  401514:	2901      	cmp	r1, #1
  401516:	d017      	beq.n	401548 <SystemCoreClockUpdate+0x40>
  401518:	d30c      	bcc.n	401534 <SystemCoreClockUpdate+0x2c>
  40151a:	2902      	cmp	r1, #2
  40151c:	d025      	beq.n	40156a <SystemCoreClockUpdate+0x62>
  40151e:	6b11      	ldr	r1, [r2, #48]	; 0x30
  401520:	f001 0170 	and.w	r1, r1, #112	; 0x70
  401524:	2970      	cmp	r1, #112	; 0x70
  401526:	d141      	bne.n	4015ac <SystemCoreClockUpdate+0xa4>
  401528:	681a      	ldr	r2, [r3, #0]
  40152a:	2103      	movs	r1, #3
  40152c:	fbb2 f2f1 	udiv	r2, r2, r1
  401530:	601a      	str	r2, [r3, #0]
  401532:	bd10      	pop	{r4, pc}
  401534:	4922      	ldr	r1, [pc, #136]	; (4015c0 <SystemCoreClockUpdate+0xb8>)
  401536:	6949      	ldr	r1, [r1, #20]
  401538:	060c      	lsls	r4, r1, #24
  40153a:	bf4c      	ite	mi
  40153c:	f44f 4100 	movmi.w	r1, #32768	; 0x8000
  401540:	f44f 41fa 	movpl.w	r1, #32000	; 0x7d00
  401544:	6019      	str	r1, [r3, #0]
  401546:	e7ea      	b.n	40151e <SystemCoreClockUpdate+0x16>
  401548:	6a11      	ldr	r1, [r2, #32]
  40154a:	01c8      	lsls	r0, r1, #7
  40154c:	d501      	bpl.n	401552 <SystemCoreClockUpdate+0x4a>
  40154e:	491d      	ldr	r1, [pc, #116]	; (4015c4 <SystemCoreClockUpdate+0xbc>)
  401550:	e7f8      	b.n	401544 <SystemCoreClockUpdate+0x3c>
  401552:	491d      	ldr	r1, [pc, #116]	; (4015c8 <SystemCoreClockUpdate+0xc0>)
  401554:	6019      	str	r1, [r3, #0]
  401556:	6a11      	ldr	r1, [r2, #32]
  401558:	f001 0170 	and.w	r1, r1, #112	; 0x70
  40155c:	2910      	cmp	r1, #16
  40155e:	d002      	beq.n	401566 <SystemCoreClockUpdate+0x5e>
  401560:	2920      	cmp	r1, #32
  401562:	d0f4      	beq.n	40154e <SystemCoreClockUpdate+0x46>
  401564:	e7db      	b.n	40151e <SystemCoreClockUpdate+0x16>
  401566:	4919      	ldr	r1, [pc, #100]	; (4015cc <SystemCoreClockUpdate+0xc4>)
  401568:	e7ec      	b.n	401544 <SystemCoreClockUpdate+0x3c>
  40156a:	6a11      	ldr	r1, [r2, #32]
  40156c:	01c9      	lsls	r1, r1, #7
  40156e:	d501      	bpl.n	401574 <SystemCoreClockUpdate+0x6c>
  401570:	4914      	ldr	r1, [pc, #80]	; (4015c4 <SystemCoreClockUpdate+0xbc>)
  401572:	e019      	b.n	4015a8 <SystemCoreClockUpdate+0xa0>
  401574:	4914      	ldr	r1, [pc, #80]	; (4015c8 <SystemCoreClockUpdate+0xc0>)
  401576:	6019      	str	r1, [r3, #0]
  401578:	6a11      	ldr	r1, [r2, #32]
  40157a:	f001 0170 	and.w	r1, r1, #112	; 0x70
  40157e:	2910      	cmp	r1, #16
  401580:	d011      	beq.n	4015a6 <SystemCoreClockUpdate+0x9e>
  401582:	2920      	cmp	r1, #32
  401584:	d0f4      	beq.n	401570 <SystemCoreClockUpdate+0x68>
  401586:	6b11      	ldr	r1, [r2, #48]	; 0x30
  401588:	f001 0103 	and.w	r1, r1, #3
  40158c:	2902      	cmp	r1, #2
  40158e:	d1c6      	bne.n	40151e <SystemCoreClockUpdate+0x16>
  401590:	6a94      	ldr	r4, [r2, #40]	; 0x28
  401592:	6819      	ldr	r1, [r3, #0]
  401594:	6a90      	ldr	r0, [r2, #40]	; 0x28
  401596:	f3c4 440a 	ubfx	r4, r4, #16, #11
  40159a:	b2c0      	uxtb	r0, r0
  40159c:	fb04 1101 	mla	r1, r4, r1, r1
  4015a0:	fbb1 f1f0 	udiv	r1, r1, r0
  4015a4:	e7ce      	b.n	401544 <SystemCoreClockUpdate+0x3c>
  4015a6:	4909      	ldr	r1, [pc, #36]	; (4015cc <SystemCoreClockUpdate+0xc4>)
  4015a8:	6019      	str	r1, [r3, #0]
  4015aa:	e7ec      	b.n	401586 <SystemCoreClockUpdate+0x7e>
  4015ac:	6b11      	ldr	r1, [r2, #48]	; 0x30
  4015ae:	681a      	ldr	r2, [r3, #0]
  4015b0:	f3c1 1102 	ubfx	r1, r1, #4, #3
  4015b4:	40ca      	lsrs	r2, r1
  4015b6:	e7bb      	b.n	401530 <SystemCoreClockUpdate+0x28>
  4015b8:	400e0600 	.word	0x400e0600
  4015bc:	2040000c 	.word	0x2040000c
  4015c0:	400e1810 	.word	0x400e1810
  4015c4:	00b71b00 	.word	0x00b71b00
  4015c8:	003d0900 	.word	0x003d0900
  4015cc:	007a1200 	.word	0x007a1200

004015d0 <system_init_flash>:
  4015d0:	4b0e      	ldr	r3, [pc, #56]	; (40160c <system_init_flash+0x3c>)
  4015d2:	4298      	cmp	r0, r3
  4015d4:	4b0e      	ldr	r3, [pc, #56]	; (401610 <system_init_flash+0x40>)
  4015d6:	d803      	bhi.n	4015e0 <system_init_flash+0x10>
  4015d8:	f04f 6280 	mov.w	r2, #67108864	; 0x4000000
  4015dc:	601a      	str	r2, [r3, #0]
  4015de:	4770      	bx	lr
  4015e0:	4a0c      	ldr	r2, [pc, #48]	; (401614 <system_init_flash+0x44>)
  4015e2:	4290      	cmp	r0, r2
  4015e4:	d801      	bhi.n	4015ea <system_init_flash+0x1a>
  4015e6:	4a0c      	ldr	r2, [pc, #48]	; (401618 <system_init_flash+0x48>)
  4015e8:	e7f8      	b.n	4015dc <system_init_flash+0xc>
  4015ea:	4a0c      	ldr	r2, [pc, #48]	; (40161c <system_init_flash+0x4c>)
  4015ec:	4290      	cmp	r0, r2
  4015ee:	d801      	bhi.n	4015f4 <system_init_flash+0x24>
  4015f0:	4a0b      	ldr	r2, [pc, #44]	; (401620 <system_init_flash+0x50>)
  4015f2:	e7f3      	b.n	4015dc <system_init_flash+0xc>
  4015f4:	4a0b      	ldr	r2, [pc, #44]	; (401624 <system_init_flash+0x54>)
  4015f6:	4290      	cmp	r0, r2
  4015f8:	d801      	bhi.n	4015fe <system_init_flash+0x2e>
  4015fa:	4a0b      	ldr	r2, [pc, #44]	; (401628 <system_init_flash+0x58>)
  4015fc:	e7ee      	b.n	4015dc <system_init_flash+0xc>
  4015fe:	4a0b      	ldr	r2, [pc, #44]	; (40162c <system_init_flash+0x5c>)
  401600:	4290      	cmp	r0, r2
  401602:	bf94      	ite	ls
  401604:	f04f 2204 	movls.w	r2, #67109888	; 0x4000400
  401608:	4a09      	ldrhi	r2, [pc, #36]	; (401630 <system_init_flash+0x60>)
  40160a:	e7e7      	b.n	4015dc <system_init_flash+0xc>
  40160c:	01312cff 	.word	0x01312cff
  401610:	400e0c00 	.word	0x400e0c00
  401614:	026259ff 	.word	0x026259ff
  401618:	04000100 	.word	0x04000100
  40161c:	039386ff 	.word	0x039386ff
  401620:	04000200 	.word	0x04000200
  401624:	04c4b3ff 	.word	0x04c4b3ff
  401628:	04000300 	.word	0x04000300
  40162c:	05f5e0ff 	.word	0x05f5e0ff
  401630:	04000500 	.word	0x04000500

00401634 <ioport_set_pin_mode>:
  401634:	f000 021f 	and.w	r2, r0, #31
  401638:	0940      	lsrs	r0, r0, #5
  40163a:	2301      	movs	r3, #1
  40163c:	f500 1000 	add.w	r0, r0, #2097152	; 0x200000
  401640:	4093      	lsls	r3, r2
  401642:	070a      	lsls	r2, r1, #28
  401644:	f200 7007 	addw	r0, r0, #1799	; 0x707
  401648:	ea4f 2040 	mov.w	r0, r0, lsl #9
  40164c:	d51e      	bpl.n	40168c <ioport_set_pin_mode+0x58>
  40164e:	6643      	str	r3, [r0, #100]	; 0x64
  401650:	06ca      	lsls	r2, r1, #27
  401652:	d51d      	bpl.n	401690 <ioport_set_pin_mode+0x5c>
  401654:	f8c0 3094 	str.w	r3, [r0, #148]	; 0x94
  401658:	068a      	lsls	r2, r1, #26
  40165a:	d51c      	bpl.n	401696 <ioport_set_pin_mode+0x62>
  40165c:	6503      	str	r3, [r0, #80]	; 0x50
  40165e:	f011 0fc0 	tst.w	r1, #192	; 0xc0
  401662:	d01a      	beq.n	40169a <ioport_set_pin_mode+0x66>
  401664:	6203      	str	r3, [r0, #32]
  401666:	060a      	lsls	r2, r1, #24
  401668:	d519      	bpl.n	40169e <ioport_set_pin_mode+0x6a>
  40166a:	f8c0 3084 	str.w	r3, [r0, #132]	; 0x84
  40166e:	6f02      	ldr	r2, [r0, #112]	; 0x70
  401670:	f011 0f01 	tst.w	r1, #1
  401674:	bf14      	ite	ne
  401676:	431a      	orrne	r2, r3
  401678:	439a      	biceq	r2, r3
  40167a:	0789      	lsls	r1, r1, #30
  40167c:	6702      	str	r2, [r0, #112]	; 0x70
  40167e:	6f42      	ldr	r2, [r0, #116]	; 0x74
  401680:	bf4c      	ite	mi
  401682:	4313      	orrmi	r3, r2
  401684:	ea22 0303 	bicpl.w	r3, r2, r3
  401688:	6743      	str	r3, [r0, #116]	; 0x74
  40168a:	4770      	bx	lr
  40168c:	6603      	str	r3, [r0, #96]	; 0x60
  40168e:	e7df      	b.n	401650 <ioport_set_pin_mode+0x1c>
  401690:	f8c0 3090 	str.w	r3, [r0, #144]	; 0x90
  401694:	e7e0      	b.n	401658 <ioport_set_pin_mode+0x24>
  401696:	6543      	str	r3, [r0, #84]	; 0x54
  401698:	e7e1      	b.n	40165e <ioport_set_pin_mode+0x2a>
  40169a:	6243      	str	r3, [r0, #36]	; 0x24
  40169c:	e7e3      	b.n	401666 <ioport_set_pin_mode+0x32>
  40169e:	f8c0 3080 	str.w	r3, [r0, #128]	; 0x80
  4016a2:	e7e4      	b.n	40166e <ioport_set_pin_mode+0x3a>

004016a4 <enableSourceClk>:
  4016a4:	b508      	push	{r3, lr}
  4016a6:	2101      	movs	r1, #1
  4016a8:	4b08      	ldr	r3, [pc, #32]	; (4016cc <enableSourceClk+0x28>)
  4016aa:	2011      	movs	r0, #17
  4016ac:	4798      	blx	r3
  4016ae:	f44f 3200 	mov.w	r2, #131072	; 0x20000
  4016b2:	4b07      	ldr	r3, [pc, #28]	; (4016d0 <enableSourceClk+0x2c>)
  4016b4:	605a      	str	r2, [r3, #4]
  4016b6:	f44f 7300 	mov.w	r3, #512	; 0x200
  4016ba:	4a06      	ldr	r2, [pc, #24]	; (4016d4 <enableSourceClk+0x30>)
  4016bc:	6013      	str	r3, [r2, #0]
  4016be:	6c53      	ldr	r3, [r2, #68]	; 0x44
  4016c0:	f023 0357 	bic.w	r3, r3, #87	; 0x57
  4016c4:	f043 0352 	orr.w	r3, r3, #82	; 0x52
  4016c8:	6453      	str	r3, [r2, #68]	; 0x44
  4016ca:	bd08      	pop	{r3, pc}
  4016cc:	00401635 	.word	0x00401635
  4016d0:	400e0e00 	.word	0x400e0e00
  4016d4:	400e0600 	.word	0x400e0600

004016d8 <spiWrite>:
  4016d8:	e92d 47f0 	stmdb	sp!, {r4, r5, r6, r7, r8, r9, sl, lr}
  4016dc:	2601      	movs	r6, #1
  4016de:	4d26      	ldr	r5, [pc, #152]	; (401778 <spiWrite+0xa0>)
  4016e0:	4c26      	ldr	r4, [pc, #152]	; (40177c <spiWrite+0xa4>)
  4016e2:	f040 0880 	orr.w	r8, r0, #128	; 0x80
  4016e6:	632e      	str	r6, [r5, #48]	; 0x30
  4016e8:	20f3      	movs	r0, #243	; 0xf3
  4016ea:	460f      	mov	r7, r1
  4016ec:	f04f 0a10 	mov.w	sl, #16
  4016f0:	47a0      	blx	r4
  4016f2:	636e      	str	r6, [r5, #52]	; 0x34
  4016f4:	2608      	movs	r6, #8
  4016f6:	20f3      	movs	r0, #243	; 0xf3
  4016f8:	47a0      	blx	r4
  4016fa:	f018 0f80 	tst.w	r8, #128	; 0x80
  4016fe:	d034      	beq.n	40176a <spiWrite+0x92>
  401700:	f8c5 a030 	str.w	sl, [r5, #48]	; 0x30
  401704:	f04f 0920 	mov.w	r9, #32
  401708:	20f3      	movs	r0, #243	; 0xf3
  40170a:	3e01      	subs	r6, #1
  40170c:	47a0      	blx	r4
  40170e:	f8c5 9030 	str.w	r9, [r5, #48]	; 0x30
  401712:	20f3      	movs	r0, #243	; 0xf3
  401714:	47a0      	blx	r4
  401716:	f016 06ff 	ands.w	r6, r6, #255	; 0xff
  40171a:	ea4f 0848 	mov.w	r8, r8, lsl #1
  40171e:	f8c5 9034 	str.w	r9, [r5, #52]	; 0x34
  401722:	fa5f f888 	uxtb.w	r8, r8
  401726:	d1e8      	bne.n	4016fa <spiWrite+0x22>
  401728:	2510      	movs	r5, #16
  40172a:	4e13      	ldr	r6, [pc, #76]	; (401778 <spiWrite+0xa0>)
  40172c:	46a9      	mov	r9, r5
  40172e:	043b      	lsls	r3, r7, #16
  401730:	d51e      	bpl.n	401770 <spiWrite+0x98>
  401732:	f8c6 9030 	str.w	r9, [r6, #48]	; 0x30
  401736:	f04f 0820 	mov.w	r8, #32
  40173a:	20f3      	movs	r0, #243	; 0xf3
  40173c:	3d01      	subs	r5, #1
  40173e:	47a0      	blx	r4
  401740:	f8c6 8030 	str.w	r8, [r6, #48]	; 0x30
  401744:	20f3      	movs	r0, #243	; 0xf3
  401746:	47a0      	blx	r4
  401748:	f015 05ff 	ands.w	r5, r5, #255	; 0xff
  40174c:	ea4f 0747 	mov.w	r7, r7, lsl #1
  401750:	f8c6 8034 	str.w	r8, [r6, #52]	; 0x34
  401754:	b2bf      	uxth	r7, r7
  401756:	d1ea      	bne.n	40172e <spiWrite+0x56>
  401758:	20f3      	movs	r0, #243	; 0xf3
  40175a:	47a0      	blx	r4
  40175c:	2301      	movs	r3, #1
  40175e:	20f3      	movs	r0, #243	; 0xf3
  401760:	6333      	str	r3, [r6, #48]	; 0x30
  401762:	4623      	mov	r3, r4
  401764:	e8bd 47f0 	ldmia.w	sp!, {r4, r5, r6, r7, r8, r9, sl, lr}
  401768:	4718      	bx	r3
  40176a:	f8c5 a034 	str.w	sl, [r5, #52]	; 0x34
  40176e:	e7c9      	b.n	401704 <spiWrite+0x2c>
  401770:	f8c6 9034 	str.w	r9, [r6, #52]	; 0x34
  401774:	e7df      	b.n	401736 <spiWrite+0x5e>
  401776:	bf00      	nop
  401778:	400e1000 	.word	0x400e1000
  40177c:	20400001 	.word	0x20400001

00401780 <imagingSensorConfigureEV76C541>:
  401780:	e92d 41f0 	stmdb	sp!, {r4, r5, r6, r7, r8, lr}
  401784:	4b28      	ldr	r3, [pc, #160]	; (401828 <imagingSensorConfigureEV76C541+0xa8>)
  401786:	b0a0      	sub	sp, #128	; 0x80
  401788:	f103 0528 	add.w	r5, r3, #40	; 0x28
  40178c:	466a      	mov	r2, sp
  40178e:	46e8      	mov	r8, sp
  401790:	6818      	ldr	r0, [r3, #0]
  401792:	3308      	adds	r3, #8
  401794:	f853 1c04 	ldr.w	r1, [r3, #-4]
  401798:	4614      	mov	r4, r2
  40179a:	42ab      	cmp	r3, r5
  40179c:	c403      	stmia	r4!, {r0, r1}
  40179e:	4622      	mov	r2, r4
  4017a0:	d1f6      	bne.n	401790 <imagingSensorConfigureEV76C541+0x10>
  4017a2:	881b      	ldrh	r3, [r3, #0]
  4017a4:	af0b      	add	r7, sp, #44	; 0x2c
  4017a6:	2500      	movs	r5, #0
  4017a8:	2254      	movs	r2, #84	; 0x54
  4017aa:	8023      	strh	r3, [r4, #0]
  4017ac:	4638      	mov	r0, r7
  4017ae:	4c1f      	ldr	r4, [pc, #124]	; (40182c <imagingSensorConfigureEV76C541+0xac>)
  4017b0:	491f      	ldr	r1, [pc, #124]	; (401830 <imagingSensorConfigureEV76C541+0xb0>)
  4017b2:	4626      	mov	r6, r4
  4017b4:	4b1f      	ldr	r3, [pc, #124]	; (401834 <imagingSensorConfigureEV76C541+0xb4>)
  4017b6:	4798      	blx	r3
  4017b8:	f837 1015 	ldrh.w	r1, [r7, r5, lsl #1]
  4017bc:	f818 0005 	ldrb.w	r0, [r8, r5]
  4017c0:	3501      	adds	r5, #1
  4017c2:	47a0      	blx	r4
  4017c4:	2d2a      	cmp	r5, #42	; 0x2a
  4017c6:	d1f7      	bne.n	4017b8 <imagingSensorConfigureEV76C541+0x38>
  4017c8:	f44f 5150 	mov.w	r1, #13312	; 0x3400
  4017cc:	2006      	movs	r0, #6
  4017ce:	47a0      	blx	r4
  4017d0:	f643 2106 	movw	r1, #14854	; 0x3a06
  4017d4:	2007      	movs	r0, #7
  4017d6:	47a0      	blx	r4
  4017d8:	f24d 5122 	movw	r1, #54562	; 0xd522
  4017dc:	2008      	movs	r0, #8
  4017de:	47a0      	blx	r4
  4017e0:	f44f 7104 	mov.w	r1, #528	; 0x210
  4017e4:	200a      	movs	r0, #10
  4017e6:	47a0      	blx	r4
  4017e8:	f44f 7182 	mov.w	r1, #260	; 0x104
  4017ec:	200b      	movs	r0, #11
  4017ee:	47a0      	blx	r4
  4017f0:	f240 21aa 	movw	r1, #682	; 0x2aa
  4017f4:	200e      	movs	r0, #14
  4017f6:	47a0      	blx	r4
  4017f8:	4b0f      	ldr	r3, [pc, #60]	; (401838 <imagingSensorConfigureEV76C541+0xb8>)
  4017fa:	2011      	movs	r0, #17
  4017fc:	681b      	ldr	r3, [r3, #0]
  4017fe:	3b02      	subs	r3, #2
  401800:	2b06      	cmp	r3, #6
  401802:	bf96      	itet	ls
  401804:	4a0d      	ldrls	r2, [pc, #52]	; (40183c <imagingSensorConfigureEV76C541+0xbc>)
  401806:	2100      	movhi	r1, #0
  401808:	f832 1013 	ldrhls.w	r1, [r2, r3, lsl #1]
  40180c:	47b0      	blx	r6
  40180e:	f44f 7130 	mov.w	r1, #704	; 0x2c0
  401812:	2015      	movs	r0, #21
  401814:	47b0      	blx	r6
  401816:	f640 0108 	movw	r1, #2056	; 0x808
  40181a:	201a      	movs	r0, #26
  40181c:	4633      	mov	r3, r6
  40181e:	b020      	add	sp, #128	; 0x80
  401820:	e8bd 41f0 	ldmia.w	sp!, {r4, r5, r6, r7, r8, lr}
  401824:	4718      	bx	r3
  401826:	bf00      	nop
  401828:	00402352 	.word	0x00402352
  40182c:	004016d9 	.word	0x004016d9
  401830:	0040237c 	.word	0x0040237c
  401834:	00401f95 	.word	0x00401f95
  401838:	20400010 	.word	0x20400010
  40183c:	004023d0 	.word	0x004023d0

00401840 <imagingSensorParamInit>:
  401840:	4a03      	ldr	r2, [pc, #12]	; (401850 <imagingSensorParamInit+0x10>)
  401842:	f8d2 3150 	ldr.w	r3, [r2, #336]	; 0x150
  401846:	f043 0320 	orr.w	r3, r3, #32
  40184a:	f8c2 3150 	str.w	r3, [r2, #336]	; 0x150
  40184e:	4770      	bx	lr
  401850:	400e0e00 	.word	0x400e0e00

00401854 <imagingSensorDMAInit>:
  401854:	b508      	push	{r3, lr}
  401856:	203a      	movs	r0, #58	; 0x3a
  401858:	4b05      	ldr	r3, [pc, #20]	; (401870 <imagingSensorDMAInit+0x1c>)
  40185a:	4798      	blx	r3
  40185c:	4b05      	ldr	r3, [pc, #20]	; (401874 <imagingSensorDMAInit+0x20>)
  40185e:	f04f 6280 	mov.w	r2, #67108864	; 0x4000000
  401862:	2120      	movs	r1, #32
  401864:	f8c3 2184 	str.w	r2, [r3, #388]	; 0x184
  401868:	f883 133a 	strb.w	r1, [r3, #826]	; 0x33a
  40186c:	605a      	str	r2, [r3, #4]
  40186e:	bd08      	pop	{r3, pc}
  401870:	00401325 	.word	0x00401325
  401874:	e000e100 	.word	0xe000e100

00401878 <imagingSensorStartDMA>:
  401878:	4b1e      	ldr	r3, [pc, #120]	; (4018f4 <imagingSensorStartDMA+0x7c>)
  40187a:	2202      	movs	r2, #2
  40187c:	621a      	str	r2, [r3, #32]
  40187e:	6a5a      	ldr	r2, [r3, #36]	; 0x24
  401880:	f8d3 209c 	ldr.w	r2, [r3, #156]	; 0x9c
  401884:	4a1c      	ldr	r2, [pc, #112]	; (4018f8 <imagingSensorStartDMA+0x80>)
  401886:	f8c3 20a0 	str.w	r2, [r3, #160]	; 0xa0
  40188a:	4a1c      	ldr	r2, [pc, #112]	; (4018fc <imagingSensorStartDMA+0x84>)
  40188c:	6811      	ldr	r1, [r2, #0]
  40188e:	2203      	movs	r2, #3
  401890:	fbb1 f2f2 	udiv	r2, r1, r2
  401894:	eb02 0242 	add.w	r2, r2, r2, lsl #1
  401898:	1a8a      	subs	r2, r1, r2
  40189a:	2a01      	cmp	r2, #1
  40189c:	d025      	beq.n	4018ea <imagingSensorStartDMA+0x72>
  40189e:	2a02      	cmp	r2, #2
  4018a0:	d025      	beq.n	4018ee <imagingSensorStartDMA+0x76>
  4018a2:	4a17      	ldr	r2, [pc, #92]	; (401900 <imagingSensorStartDMA+0x88>)
  4018a4:	f8c3 20a4 	str.w	r2, [r3, #164]	; 0xa4
  4018a8:	f44f 42a5 	mov.w	r2, #21120	; 0x5280
  4018ac:	f8c3 20b0 	str.w	r2, [r3, #176]	; 0xb0
  4018b0:	4a14      	ldr	r2, [pc, #80]	; (401904 <imagingSensorStartDMA+0x8c>)
  4018b2:	f8c3 20b8 	str.w	r2, [r3, #184]	; 0xb8
  4018b6:	2200      	movs	r2, #0
  4018b8:	f8c3 20ac 	str.w	r2, [r3, #172]	; 0xac
  4018bc:	f8c3 20b4 	str.w	r2, [r3, #180]	; 0xb4
  4018c0:	f8c3 20bc 	str.w	r2, [r3, #188]	; 0xbc
  4018c4:	f8c3 20c0 	str.w	r2, [r3, #192]	; 0xc0
  4018c8:	f8c3 20c4 	str.w	r2, [r3, #196]	; 0xc4
  4018cc:	f8d3 2090 	ldr.w	r2, [r3, #144]	; 0x90
  4018d0:	f042 0201 	orr.w	r2, r2, #1
  4018d4:	f8c3 2090 	str.w	r2, [r3, #144]	; 0x90
  4018d8:	68da      	ldr	r2, [r3, #12]
  4018da:	f042 0202 	orr.w	r2, r2, #2
  4018de:	60da      	str	r2, [r3, #12]
  4018e0:	69da      	ldr	r2, [r3, #28]
  4018e2:	f042 0202 	orr.w	r2, r2, #2
  4018e6:	61da      	str	r2, [r3, #28]
  4018e8:	4770      	bx	lr
  4018ea:	4a07      	ldr	r2, [pc, #28]	; (401908 <imagingSensorStartDMA+0x90>)
  4018ec:	e7da      	b.n	4018a4 <imagingSensorStartDMA+0x2c>
  4018ee:	4a07      	ldr	r2, [pc, #28]	; (40190c <imagingSensorStartDMA+0x94>)
  4018f0:	e7d8      	b.n	4018a4 <imagingSensorStartDMA+0x2c>
  4018f2:	bf00      	nop
  4018f4:	40078000 	.word	0x40078000
  4018f8:	400e0f64 	.word	0x400e0f64
  4018fc:	204004a0 	.word	0x204004a0
  401900:	204004a8 	.word	0x204004a8
  401904:	22043001 	.word	0x22043001
  401908:	20414ea8 	.word	0x20414ea8
  40190c:	204298a8 	.word	0x204298a8

00401910 <imagingSensorItInit>:
  401910:	4a03      	ldr	r2, [pc, #12]	; (401920 <imagingSensorItInit+0x10>)
  401912:	f8d2 3158 	ldr.w	r3, [r2, #344]	; 0x158
  401916:	f043 030f 	orr.w	r3, r3, #15
  40191a:	f8c2 3158 	str.w	r3, [r2, #344]	; 0x158
  40191e:	4770      	bx	lr
  401920:	400e0e00 	.word	0x400e0e00

00401924 <imageSensorVSyncItInit>:
  401924:	4b12      	ldr	r3, [pc, #72]	; (401970 <imageSensorVSyncItInit+0x4c>)
  401926:	681a      	ldr	r2, [r3, #0]
  401928:	f442 4280 	orr.w	r2, r2, #16384	; 0x4000
  40192c:	601a      	str	r2, [r3, #0]
  40192e:	695a      	ldr	r2, [r3, #20]
  401930:	f442 4280 	orr.w	r2, r2, #16384	; 0x4000
  401934:	615a      	str	r2, [r3, #20]
  401936:	f8d3 2094 	ldr.w	r2, [r3, #148]	; 0x94
  40193a:	f442 4280 	orr.w	r2, r2, #16384	; 0x4000
  40193e:	f8c3 2094 	str.w	r2, [r3, #148]	; 0x94
  401942:	6c1a      	ldr	r2, [r3, #64]	; 0x40
  401944:	f442 4280 	orr.w	r2, r2, #16384	; 0x4000
  401948:	641a      	str	r2, [r3, #64]	; 0x40
  40194a:	f8d3 20b0 	ldr.w	r2, [r3, #176]	; 0xb0
  40194e:	f442 4280 	orr.w	r2, r2, #16384	; 0x4000
  401952:	f8c3 20b0 	str.w	r2, [r3, #176]	; 0xb0
  401956:	f8d3 20c0 	ldr.w	r2, [r3, #192]	; 0xc0
  40195a:	f442 4280 	orr.w	r2, r2, #16384	; 0x4000
  40195e:	f8c3 20c0 	str.w	r2, [r3, #192]	; 0xc0
  401962:	f8d3 20d0 	ldr.w	r2, [r3, #208]	; 0xd0
  401966:	f442 4280 	orr.w	r2, r2, #16384	; 0x4000
  40196a:	f8c3 20d0 	str.w	r2, [r3, #208]	; 0xd0
  40196e:	4770      	bx	lr
  401970:	400e0e00 	.word	0x400e0e00

00401974 <imageSensorHSyncItInit>:
  401974:	4b12      	ldr	r3, [pc, #72]	; (4019c0 <imageSensorHSyncItInit+0x4c>)
  401976:	681a      	ldr	r2, [r3, #0]
  401978:	f442 1200 	orr.w	r2, r2, #2097152	; 0x200000
  40197c:	601a      	str	r2, [r3, #0]
  40197e:	695a      	ldr	r2, [r3, #20]
  401980:	f442 1200 	orr.w	r2, r2, #2097152	; 0x200000
  401984:	615a      	str	r2, [r3, #20]
  401986:	f8d3 2094 	ldr.w	r2, [r3, #148]	; 0x94
  40198a:	f442 1200 	orr.w	r2, r2, #2097152	; 0x200000
  40198e:	f8c3 2094 	str.w	r2, [r3, #148]	; 0x94
  401992:	6c1a      	ldr	r2, [r3, #64]	; 0x40
  401994:	f442 1200 	orr.w	r2, r2, #2097152	; 0x200000
  401998:	641a      	str	r2, [r3, #64]	; 0x40
  40199a:	f8d3 20b0 	ldr.w	r2, [r3, #176]	; 0xb0
  40199e:	f442 1200 	orr.w	r2, r2, #2097152	; 0x200000
  4019a2:	f8c3 20b0 	str.w	r2, [r3, #176]	; 0xb0
  4019a6:	f8d3 20c0 	ldr.w	r2, [r3, #192]	; 0xc0
  4019aa:	f442 1200 	orr.w	r2, r2, #2097152	; 0x200000
  4019ae:	f8c3 20c0 	str.w	r2, [r3, #192]	; 0xc0
  4019b2:	f8d3 20d0 	ldr.w	r2, [r3, #208]	; 0xd0
  4019b6:	f442 1200 	orr.w	r2, r2, #2097152	; 0x200000
  4019ba:	f8c3 20d0 	str.w	r2, [r3, #208]	; 0xd0
  4019be:	4770      	bx	lr
  4019c0:	400e0e00 	.word	0x400e0e00

004019c4 <imagingSensorLoadHeader>:
  4019c4:	b500      	push	{lr}
  4019c6:	f5ad 7d01 	sub.w	sp, sp, #516	; 0x204
  4019ca:	f44f 7200 	mov.w	r2, #512	; 0x200
  4019ce:	2100      	movs	r1, #0
  4019d0:	4b0e      	ldr	r3, [pc, #56]	; (401a0c <imagingSensorLoadHeader+0x48>)
  4019d2:	4668      	mov	r0, sp
  4019d4:	4798      	blx	r3
  4019d6:	2201      	movs	r2, #1
  4019d8:	f240 31ff 	movw	r1, #1023	; 0x3ff
  4019dc:	4b0c      	ldr	r3, [pc, #48]	; (401a10 <imagingSensorLoadHeader+0x4c>)
  4019de:	2000      	movs	r0, #0
  4019e0:	4798      	blx	r3
  4019e2:	2101      	movs	r1, #1
  4019e4:	4668      	mov	r0, sp
  4019e6:	4b0b      	ldr	r3, [pc, #44]	; (401a14 <imagingSensorLoadHeader+0x50>)
  4019e8:	4798      	blx	r3
  4019ea:	4b0b      	ldr	r3, [pc, #44]	; (401a18 <imagingSensorLoadHeader+0x54>)
  4019ec:	2000      	movs	r0, #0
  4019ee:	4798      	blx	r3
  4019f0:	9a04      	ldr	r2, [sp, #16]
  4019f2:	4b0a      	ldr	r3, [pc, #40]	; (401a1c <imagingSensorLoadHeader+0x58>)
  4019f4:	601a      	str	r2, [r3, #0]
  4019f6:	9a05      	ldr	r2, [sp, #20]
  4019f8:	4b09      	ldr	r3, [pc, #36]	; (401a20 <imagingSensorLoadHeader+0x5c>)
  4019fa:	601a      	str	r2, [r3, #0]
  4019fc:	9a06      	ldr	r2, [sp, #24]
  4019fe:	4b09      	ldr	r3, [pc, #36]	; (401a24 <imagingSensorLoadHeader+0x60>)
  401a00:	601a      	str	r2, [r3, #0]
  401a02:	f50d 7d01 	add.w	sp, sp, #516	; 0x204
  401a06:	f85d fb04 	ldr.w	pc, [sp], #4
  401a0a:	bf00      	nop
  401a0c:	004020c9 	.word	0x004020c9
  401a10:	00400905 	.word	0x00400905
  401a14:	004009bd 	.word	0x004009bd
  401a18:	004009e1 	.word	0x004009e1
  401a1c:	20400010 	.word	0x20400010
  401a20:	2043e2a8 	.word	0x2043e2a8
  401a24:	2043e2b0 	.word	0x2043e2b0

00401a28 <imagingSensorCaptureEnable>:
  401a28:	4a03      	ldr	r2, [pc, #12]	; (401a38 <imagingSensorCaptureEnable+0x10>)
  401a2a:	f8d2 3150 	ldr.w	r3, [r2, #336]	; 0x150
  401a2e:	f043 0301 	orr.w	r3, r3, #1
  401a32:	f8c2 3150 	str.w	r3, [r2, #336]	; 0x150
  401a36:	4770      	bx	lr
  401a38:	400e0e00 	.word	0x400e0e00

00401a3c <imagingSensorCaptureDisable>:
  401a3c:	4a03      	ldr	r2, [pc, #12]	; (401a4c <imagingSensorCaptureDisable+0x10>)
  401a3e:	f8d2 3150 	ldr.w	r3, [r2, #336]	; 0x150
  401a42:	f023 0301 	bic.w	r3, r3, #1
  401a46:	f8c2 3150 	str.w	r3, [r2, #336]	; 0x150
  401a4a:	4770      	bx	lr
  401a4c:	400e0e00 	.word	0x400e0e00

00401a50 <imagingSensorSetup>:
  401a50:	b508      	push	{r3, lr}
  401a52:	4b0f      	ldr	r3, [pc, #60]	; (401a90 <imagingSensorSetup+0x40>)
  401a54:	4798      	blx	r3
  401a56:	4b0f      	ldr	r3, [pc, #60]	; (401a94 <imagingSensorSetup+0x44>)
  401a58:	200a      	movs	r0, #10
  401a5a:	4798      	blx	r3
  401a5c:	f44f 6280 	mov.w	r2, #1024	; 0x400
  401a60:	2140      	movs	r1, #64	; 0x40
  401a62:	4b0d      	ldr	r3, [pc, #52]	; (401a98 <imagingSensorSetup+0x48>)
  401a64:	f8c3 2180 	str.w	r2, [r3, #384]	; 0x180
  401a68:	f883 130a 	strb.w	r1, [r3, #778]	; 0x30a
  401a6c:	601a      	str	r2, [r3, #0]
  401a6e:	4b0b      	ldr	r3, [pc, #44]	; (401a9c <imagingSensorSetup+0x4c>)
  401a70:	4798      	blx	r3
  401a72:	4b0b      	ldr	r3, [pc, #44]	; (401aa0 <imagingSensorSetup+0x50>)
  401a74:	4798      	blx	r3
  401a76:	4b0b      	ldr	r3, [pc, #44]	; (401aa4 <imagingSensorSetup+0x54>)
  401a78:	4798      	blx	r3
  401a7a:	4b0b      	ldr	r3, [pc, #44]	; (401aa8 <imagingSensorSetup+0x58>)
  401a7c:	4798      	blx	r3
  401a7e:	4b0b      	ldr	r3, [pc, #44]	; (401aac <imagingSensorSetup+0x5c>)
  401a80:	4798      	blx	r3
  401a82:	4b0b      	ldr	r3, [pc, #44]	; (401ab0 <imagingSensorSetup+0x60>)
  401a84:	2200      	movs	r2, #0
  401a86:	741a      	strb	r2, [r3, #16]
  401a88:	2201      	movs	r2, #1
  401a8a:	605a      	str	r2, [r3, #4]
  401a8c:	bd08      	pop	{r3, pc}
  401a8e:	bf00      	nop
  401a90:	00401a3d 	.word	0x00401a3d
  401a94:	00401325 	.word	0x00401325
  401a98:	e000e100 	.word	0xe000e100
  401a9c:	00401911 	.word	0x00401911
  401aa0:	00401855 	.word	0x00401855
  401aa4:	00401841 	.word	0x00401841
  401aa8:	00401925 	.word	0x00401925
  401aac:	00401975 	.word	0x00401975
  401ab0:	2043e308 	.word	0x2043e308

00401ab4 <checkVSync>:
  401ab4:	4b27      	ldr	r3, [pc, #156]	; (401b54 <checkVSync+0xa0>)
  401ab6:	b570      	push	{r4, r5, r6, lr}
  401ab8:	681b      	ldr	r3, [r3, #0]
  401aba:	045b      	lsls	r3, r3, #17
  401abc:	d549      	bpl.n	401b52 <checkVSync+0x9e>
  401abe:	4926      	ldr	r1, [pc, #152]	; (401b58 <checkVSync+0xa4>)
  401ac0:	4c26      	ldr	r4, [pc, #152]	; (401b5c <checkVSync+0xa8>)
  401ac2:	780b      	ldrb	r3, [r1, #0]
  401ac4:	2b00      	cmp	r3, #0
  401ac6:	d03a      	beq.n	401b3e <checkVSync+0x8a>
  401ac8:	7823      	ldrb	r3, [r4, #0]
  401aca:	2b00      	cmp	r3, #0
  401acc:	d037      	beq.n	401b3e <checkVSync+0x8a>
  401ace:	2300      	movs	r3, #0
  401ad0:	4d23      	ldr	r5, [pc, #140]	; (401b60 <checkVSync+0xac>)
  401ad2:	700b      	strb	r3, [r1, #0]
  401ad4:	7023      	strb	r3, [r4, #0]
  401ad6:	4b23      	ldr	r3, [pc, #140]	; (401b64 <checkVSync+0xb0>)
  401ad8:	4798      	blx	r3
  401ada:	4b23      	ldr	r3, [pc, #140]	; (401b68 <checkVSync+0xb4>)
  401adc:	2203      	movs	r2, #3
  401ade:	6818      	ldr	r0, [r3, #0]
  401ae0:	681e      	ldr	r6, [r3, #0]
  401ae2:	fbb0 f2f2 	udiv	r2, r0, r2
  401ae6:	eb02 0242 	add.w	r2, r2, r2, lsl #1
  401aea:	1a82      	subs	r2, r0, r2
  401aec:	481f      	ldr	r0, [pc, #124]	; (401b6c <checkVSync+0xb8>)
  401aee:	2a01      	cmp	r2, #1
  401af0:	d021      	beq.n	401b36 <checkVSync+0x82>
  401af2:	2a02      	cmp	r2, #2
  401af4:	d021      	beq.n	401b3a <checkVSync+0x86>
  401af6:	4a1e      	ldr	r2, [pc, #120]	; (401b70 <checkVSync+0xbc>)
  401af8:	f8c2 61fc 	str.w	r6, [r2, #508]	; 0x1fc
  401afc:	682e      	ldr	r6, [r5, #0]
  401afe:	f8c2 61f4 	str.w	r6, [r2, #500]	; 0x1f4
  401b02:	6806      	ldr	r6, [r0, #0]
  401b04:	f8c2 61f0 	str.w	r6, [r2, #496]	; 0x1f0
  401b08:	2200      	movs	r2, #0
  401b0a:	602a      	str	r2, [r5, #0]
  401b0c:	681d      	ldr	r5, [r3, #0]
  401b0e:	3501      	adds	r5, #1
  401b10:	601d      	str	r5, [r3, #0]
  401b12:	4d18      	ldr	r5, [pc, #96]	; (401b74 <checkVSync+0xc0>)
  401b14:	602a      	str	r2, [r5, #0]
  401b16:	6002      	str	r2, [r0, #0]
  401b18:	4a17      	ldr	r2, [pc, #92]	; (401b78 <checkVSync+0xc4>)
  401b1a:	6812      	ldr	r2, [r2, #0]
  401b1c:	6818      	ldr	r0, [r3, #0]
  401b1e:	1c93      	adds	r3, r2, #2
  401b20:	4283      	cmp	r3, r0
  401b22:	d316      	bcc.n	401b52 <checkVSync+0x9e>
  401b24:	2301      	movs	r3, #1
  401b26:	7023      	strb	r3, [r4, #0]
  401b28:	700b      	strb	r3, [r1, #0]
  401b2a:	4b14      	ldr	r3, [pc, #80]	; (401b7c <checkVSync+0xc8>)
  401b2c:	4798      	blx	r3
  401b2e:	4b14      	ldr	r3, [pc, #80]	; (401b80 <checkVSync+0xcc>)
  401b30:	e8bd 4070 	ldmia.w	sp!, {r4, r5, r6, lr}
  401b34:	4718      	bx	r3
  401b36:	4a13      	ldr	r2, [pc, #76]	; (401b84 <checkVSync+0xd0>)
  401b38:	e7de      	b.n	401af8 <checkVSync+0x44>
  401b3a:	4a13      	ldr	r2, [pc, #76]	; (401b88 <checkVSync+0xd4>)
  401b3c:	e7dc      	b.n	401af8 <checkVSync+0x44>
  401b3e:	7823      	ldrb	r3, [r4, #0]
  401b40:	b13b      	cbz	r3, 401b52 <checkVSync+0x9e>
  401b42:	2301      	movs	r3, #1
  401b44:	4a06      	ldr	r2, [pc, #24]	; (401b60 <checkVSync+0xac>)
  401b46:	700b      	strb	r3, [r1, #0]
  401b48:	2300      	movs	r3, #0
  401b4a:	6013      	str	r3, [r2, #0]
  401b4c:	4a09      	ldr	r2, [pc, #36]	; (401b74 <checkVSync+0xc0>)
  401b4e:	6013      	str	r3, [r2, #0]
  401b50:	e7eb      	b.n	401b2a <checkVSync+0x76>
  401b52:	bd70      	pop	{r4, r5, r6, pc}
  401b54:	2043e2b8 	.word	0x2043e2b8
  401b58:	2040049c 	.word	0x2040049c
  401b5c:	2043e2c0 	.word	0x2043e2c0
  401b60:	2043e2ac 	.word	0x2043e2ac
  401b64:	00401a3d 	.word	0x00401a3d
  401b68:	204004a0 	.word	0x204004a0
  401b6c:	2043e2c8 	.word	0x2043e2c8
  401b70:	20414ca8 	.word	0x20414ca8
  401b74:	2043e2b4 	.word	0x2043e2b4
  401b78:	2043e2bc 	.word	0x2043e2bc
  401b7c:	00401879 	.word	0x00401879
  401b80:	00401a29 	.word	0x00401a29
  401b84:	204296a8 	.word	0x204296a8
  401b88:	2043e0a8 	.word	0x2043e0a8

00401b8c <PIOA_Handler>:
  401b8c:	4b08      	ldr	r3, [pc, #32]	; (401bb0 <PIOA_Handler+0x24>)
  401b8e:	6cda      	ldr	r2, [r3, #76]	; 0x4c
  401b90:	4b08      	ldr	r3, [pc, #32]	; (401bb4 <PIOA_Handler+0x28>)
  401b92:	601a      	str	r2, [r3, #0]
  401b94:	681b      	ldr	r3, [r3, #0]
  401b96:	029b      	lsls	r3, r3, #10
  401b98:	d507      	bpl.n	401baa <PIOA_Handler+0x1e>
  401b9a:	4b07      	ldr	r3, [pc, #28]	; (401bb8 <PIOA_Handler+0x2c>)
  401b9c:	781b      	ldrb	r3, [r3, #0]
  401b9e:	2b01      	cmp	r3, #1
  401ba0:	d103      	bne.n	401baa <PIOA_Handler+0x1e>
  401ba2:	4a06      	ldr	r2, [pc, #24]	; (401bbc <PIOA_Handler+0x30>)
  401ba4:	6813      	ldr	r3, [r2, #0]
  401ba6:	3301      	adds	r3, #1
  401ba8:	6013      	str	r3, [r2, #0]
  401baa:	4b05      	ldr	r3, [pc, #20]	; (401bc0 <PIOA_Handler+0x34>)
  401bac:	4718      	bx	r3
  401bae:	bf00      	nop
  401bb0:	400e0e00 	.word	0x400e0e00
  401bb4:	2043e2b8 	.word	0x2043e2b8
  401bb8:	2040049c 	.word	0x2040049c
  401bbc:	2043e2ac 	.word	0x2043e2ac
  401bc0:	00401ab5 	.word	0x00401ab5

00401bc4 <XDMAC_Handler>:
  401bc4:	4b04      	ldr	r3, [pc, #16]	; (401bd8 <XDMAC_Handler+0x14>)
  401bc6:	f8d3 309c 	ldr.w	r3, [r3, #156]	; 0x9c
  401bca:	07db      	lsls	r3, r3, #31
  401bcc:	d502      	bpl.n	401bd4 <XDMAC_Handler+0x10>
  401bce:	2201      	movs	r2, #1
  401bd0:	4b02      	ldr	r3, [pc, #8]	; (401bdc <XDMAC_Handler+0x18>)
  401bd2:	601a      	str	r2, [r3, #0]
  401bd4:	4770      	bx	lr
  401bd6:	bf00      	nop
  401bd8:	40078000 	.word	0x40078000
  401bdc:	2043e2c8 	.word	0x2043e2c8

00401be0 <PWM_Init>:
  401be0:	b57f      	push	{r0, r1, r2, r3, r4, r5, r6, lr}
  401be2:	4b1b      	ldr	r3, [pc, #108]	; (401c50 <PWM_Init+0x70>)
  401be4:	201f      	movs	r0, #31
  401be6:	4798      	blx	r3
  401be8:	4b1a      	ldr	r3, [pc, #104]	; (401c54 <PWM_Init+0x74>)
  401bea:	4798      	blx	r3
  401bec:	4b1a      	ldr	r3, [pc, #104]	; (401c58 <PWM_Init+0x78>)
  401bee:	f440 5080 	orr.w	r0, r0, #4096	; 0x1000
  401bf2:	4d1a      	ldr	r5, [pc, #104]	; (401c5c <PWM_Init+0x7c>)
  401bf4:	4798      	blx	r3
  401bf6:	2100      	movs	r1, #0
  401bf8:	4b19      	ldr	r3, [pc, #100]	; (401c60 <PWM_Init+0x80>)
  401bfa:	2601      	movs	r6, #1
  401bfc:	4608      	mov	r0, r1
  401bfe:	2400      	movs	r4, #0
  401c00:	4798      	blx	r3
  401c02:	4b18      	ldr	r3, [pc, #96]	; (401c64 <PWM_Init+0x84>)
  401c04:	4628      	mov	r0, r5
  401c06:	2100      	movs	r1, #0
  401c08:	605e      	str	r6, [r3, #4]
  401c0a:	4b17      	ldr	r3, [pc, #92]	; (401c68 <PWM_Init+0x88>)
  401c0c:	4798      	blx	r3
  401c0e:	4b17      	ldr	r3, [pc, #92]	; (401c6c <PWM_Init+0x8c>)
  401c10:	a901      	add	r1, sp, #4
  401c12:	4628      	mov	r0, r5
  401c14:	9301      	str	r3, [sp, #4]
  401c16:	4b16      	ldr	r3, [pc, #88]	; (401c70 <PWM_Init+0x90>)
  401c18:	9402      	str	r4, [sp, #8]
  401c1a:	9303      	str	r3, [sp, #12]
  401c1c:	4b15      	ldr	r3, [pc, #84]	; (401c74 <PWM_Init+0x94>)
  401c1e:	4798      	blx	r3
  401c20:	4915      	ldr	r1, [pc, #84]	; (401c78 <PWM_Init+0x98>)
  401c22:	230b      	movs	r3, #11
  401c24:	4628      	mov	r0, r5
  401c26:	810c      	strh	r4, [r1, #8]
  401c28:	604b      	str	r3, [r1, #4]
  401c2a:	23ff      	movs	r3, #255	; 0xff
  401c2c:	728e      	strb	r6, [r1, #10]
  401c2e:	610b      	str	r3, [r1, #16]
  401c30:	2305      	movs	r3, #5
  401c32:	600c      	str	r4, [r1, #0]
  401c34:	60cb      	str	r3, [r1, #12]
  401c36:	4b11      	ldr	r3, [pc, #68]	; (401c7c <PWM_Init+0x9c>)
  401c38:	4798      	blx	r3
  401c3a:	4622      	mov	r2, r4
  401c3c:	4621      	mov	r1, r4
  401c3e:	4628      	mov	r0, r5
  401c40:	4b0f      	ldr	r3, [pc, #60]	; (401c80 <PWM_Init+0xa0>)
  401c42:	4798      	blx	r3
  401c44:	4621      	mov	r1, r4
  401c46:	4628      	mov	r0, r5
  401c48:	4b0e      	ldr	r3, [pc, #56]	; (401c84 <PWM_Init+0xa4>)
  401c4a:	4798      	blx	r3
  401c4c:	b004      	add	sp, #16
  401c4e:	bd70      	pop	{r4, r5, r6, pc}
  401c50:	00401325 	.word	0x00401325
  401c54:	00400f35 	.word	0x00400f35
  401c58:	00400f15 	.word	0x00400f15
  401c5c:	40020000 	.word	0x40020000
  401c60:	00401635 	.word	0x00401635
  401c64:	400e0e00 	.word	0x400e0e00
  401c68:	00401155 	.word	0x00401155
  401c6c:	0003e418 	.word	0x0003e418
  401c70:	044aa200 	.word	0x044aa200
  401c74:	00400f91 	.word	0x00400f91
  401c78:	2043e2cc 	.word	0x2043e2cc
  401c7c:	00400fd5 	.word	0x00400fd5
  401c80:	0040115f 	.word	0x0040115f
  401c84:	0040114b 	.word	0x0040114b

00401c88 <SPI_BitBag_init>:
  401c88:	b508      	push	{r3, lr}
  401c8a:	200b      	movs	r0, #11
  401c8c:	4b09      	ldr	r3, [pc, #36]	; (401cb4 <SPI_BitBag_init+0x2c>)
  401c8e:	4798      	blx	r3
  401c90:	4b09      	ldr	r3, [pc, #36]	; (401cb8 <SPI_BitBag_init+0x30>)
  401c92:	4798      	blx	r3
  401c94:	4b09      	ldr	r3, [pc, #36]	; (401cbc <SPI_BitBag_init+0x34>)
  401c96:	f040 0030 	orr.w	r0, r0, #48	; 0x30
  401c9a:	4798      	blx	r3
  401c9c:	4b08      	ldr	r3, [pc, #32]	; (401cc0 <SPI_BitBag_init+0x38>)
  401c9e:	2210      	movs	r2, #16
  401ca0:	611a      	str	r2, [r3, #16]
  401ca2:	f8c3 20a0 	str.w	r2, [r3, #160]	; 0xa0
  401ca6:	635a      	str	r2, [r3, #52]	; 0x34
  401ca8:	2220      	movs	r2, #32
  401caa:	611a      	str	r2, [r3, #16]
  401cac:	f8c3 20a0 	str.w	r2, [r3, #160]	; 0xa0
  401cb0:	635a      	str	r2, [r3, #52]	; 0x34
  401cb2:	bd08      	pop	{r3, pc}
  401cb4:	00401325 	.word	0x00401325
  401cb8:	00400f35 	.word	0x00400f35
  401cbc:	00400f15 	.word	0x00400f15
  401cc0:	400e1000 	.word	0x400e1000

00401cc4 <main>:
  401cc4:	e92d 4ff7 	stmdb	sp!, {r0, r1, r2, r4, r5, r6, r7, r8, r9, sl, fp, lr}
  401cc8:	4b75      	ldr	r3, [pc, #468]	; (401ea0 <main+0x1dc>)
  401cca:	2201      	movs	r2, #1
  401ccc:	701a      	strb	r2, [r3, #0]
  401cce:	f3bf 8f5f 	dmb	sy
  401cd2:	b662      	cpsie	i
  401cd4:	4b73      	ldr	r3, [pc, #460]	; (401ea4 <main+0x1e0>)
  401cd6:	4798      	blx	r3
  401cd8:	4b73      	ldr	r3, [pc, #460]	; (401ea8 <main+0x1e4>)
  401cda:	4798      	blx	r3
  401cdc:	4f73      	ldr	r7, [pc, #460]	; (401eac <main+0x1e8>)
  401cde:	200a      	movs	r0, #10
  401ce0:	4d73      	ldr	r5, [pc, #460]	; (401eb0 <main+0x1ec>)
  401ce2:	47b8      	blx	r7
  401ce4:	200b      	movs	r0, #11
  401ce6:	47b8      	blx	r7
  401ce8:	2010      	movs	r0, #16
  401cea:	47b8      	blx	r7
  401cec:	4b71      	ldr	r3, [pc, #452]	; (401eb4 <main+0x1f0>)
  401cee:	4798      	blx	r3
  401cf0:	4b71      	ldr	r3, [pc, #452]	; (401eb8 <main+0x1f4>)
  401cf2:	4798      	blx	r3
  401cf4:	4b71      	ldr	r3, [pc, #452]	; (401ebc <main+0x1f8>)
  401cf6:	4798      	blx	r3
  401cf8:	4c71      	ldr	r4, [pc, #452]	; (401ec0 <main+0x1fc>)
  401cfa:	4b72      	ldr	r3, [pc, #456]	; (401ec4 <main+0x200>)
  401cfc:	4798      	blx	r3
  401cfe:	f8df 822c 	ldr.w	r8, [pc, #556]	; 401f2c <main+0x268>
  401d02:	47a0      	blx	r4
  401d04:	6028      	str	r0, [r5, #0]
  401d06:	682e      	ldr	r6, [r5, #0]
  401d08:	47a0      	blx	r4
  401d0a:	4601      	mov	r1, r0
  401d0c:	f8df 9220 	ldr.w	r9, [pc, #544]	; 401f30 <main+0x26c>
  401d10:	4630      	mov	r0, r6
  401d12:	4e6d      	ldr	r6, [pc, #436]	; (401ec8 <main+0x204>)
  401d14:	47c0      	blx	r8
  401d16:	4b6d      	ldr	r3, [pc, #436]	; (401ecc <main+0x208>)
  401d18:	6018      	str	r0, [r3, #0]
  401d1a:	2010      	movs	r0, #16
  401d1c:	47b8      	blx	r7
  401d1e:	2302      	movs	r3, #2
  401d20:	200b      	movs	r0, #11
  401d22:	6133      	str	r3, [r6, #16]
  401d24:	f8c6 30a0 	str.w	r3, [r6, #160]	; 0xa0
  401d28:	6333      	str	r3, [r6, #48]	; 0x30
  401d2a:	47b8      	blx	r7
  401d2c:	4b68      	ldr	r3, [pc, #416]	; (401ed0 <main+0x20c>)
  401d2e:	f44f 5280 	mov.w	r2, #4096	; 0x1000
  401d32:	611a      	str	r2, [r3, #16]
  401d34:	f8c3 20a0 	str.w	r2, [r3, #160]	; 0xa0
  401d38:	635a      	str	r2, [r3, #52]	; 0x34
  401d3a:	4b66      	ldr	r3, [pc, #408]	; (401ed4 <main+0x210>)
  401d3c:	4798      	blx	r3
  401d3e:	2000      	movs	r0, #0
  401d40:	47c8      	blx	r9
  401d42:	4607      	mov	r7, r0
  401d44:	2800      	cmp	r0, #0
  401d46:	d1fa      	bne.n	401d3e <main+0x7a>
  401d48:	4b63      	ldr	r3, [pc, #396]	; (401ed8 <main+0x214>)
  401d4a:	4798      	blx	r3
  401d4c:	4b63      	ldr	r3, [pc, #396]	; (401edc <main+0x218>)
  401d4e:	4638      	mov	r0, r7
  401d50:	4798      	blx	r3
  401d52:	4b63      	ldr	r3, [pc, #396]	; (401ee0 <main+0x21c>)
  401d54:	4798      	blx	r3
  401d56:	4b63      	ldr	r3, [pc, #396]	; (401ee4 <main+0x220>)
  401d58:	681a      	ldr	r2, [r3, #0]
  401d5a:	2afe      	cmp	r2, #254	; 0xfe
  401d5c:	d900      	bls.n	401d60 <main+0x9c>
  401d5e:	601f      	str	r7, [r3, #0]
  401d60:	681a      	ldr	r2, [r3, #0]
  401d62:	f241 3787 	movw	r7, #4999	; 0x1387
  401d66:	4960      	ldr	r1, [pc, #384]	; (401ee8 <main+0x224>)
  401d68:	4b60      	ldr	r3, [pc, #384]	; (401eec <main+0x228>)
  401d6a:	4861      	ldr	r0, [pc, #388]	; (401ef0 <main+0x22c>)
  401d6c:	4798      	blx	r3
  401d6e:	f8df 91c4 	ldr.w	r9, [pc, #452]	; 401f34 <main+0x270>
  401d72:	4b60      	ldr	r3, [pc, #384]	; (401ef4 <main+0x230>)
  401d74:	f8df a1c0 	ldr.w	sl, [pc, #448]	; 401f38 <main+0x274>
  401d78:	4798      	blx	r3
  401d7a:	4b5f      	ldr	r3, [pc, #380]	; (401ef8 <main+0x234>)
  401d7c:	4798      	blx	r3
  401d7e:	47a0      	blx	r4
  401d80:	6028      	str	r0, [r5, #0]
  401d82:	f8d5 b000 	ldr.w	fp, [r5]
  401d86:	47a0      	blx	r4
  401d88:	4601      	mov	r1, r0
  401d8a:	4658      	mov	r0, fp
  401d8c:	47c0      	blx	r8
  401d8e:	42b8      	cmp	r0, r7
  401d90:	d95f      	bls.n	401e52 <main+0x18e>
  401d92:	f242 023a 	movw	r2, #8250	; 0x203a
  401d96:	f44f 6180 	mov.w	r1, #1024	; 0x400
  401d9a:	f8df a1a0 	ldr.w	sl, [pc, #416]	; 401f3c <main+0x278>
  401d9e:	2000      	movs	r0, #0
  401da0:	47d0      	blx	sl
  401da2:	f44f 6980 	mov.w	r9, #1024	; 0x400
  401da6:	47a0      	blx	r4
  401da8:	4b54      	ldr	r3, [pc, #336]	; (401efc <main+0x238>)
  401daa:	2201      	movs	r2, #1
  401dac:	6028      	str	r0, [r5, #0]
  401dae:	2104      	movs	r1, #4
  401db0:	2700      	movs	r7, #0
  401db2:	701a      	strb	r2, [r3, #0]
  401db4:	469b      	mov	fp, r3
  401db6:	4a46      	ldr	r2, [pc, #280]	; (401ed0 <main+0x20c>)
  401db8:	6311      	str	r1, [r2, #48]	; 0x30
  401dba:	f44f 5180 	mov.w	r1, #4096	; 0x1000
  401dbe:	6311      	str	r1, [r2, #48]	; 0x30
  401dc0:	2202      	movs	r2, #2
  401dc2:	6332      	str	r2, [r6, #48]	; 0x30
  401dc4:	f8cd a000 	str.w	sl, [sp]
  401dc8:	4b4d      	ldr	r3, [pc, #308]	; (401f00 <main+0x23c>)
  401dca:	681b      	ldr	r3, [r3, #0]
  401dcc:	429f      	cmp	r7, r3
  401dce:	d22c      	bcs.n	401e2a <main+0x166>
  401dd0:	2303      	movs	r3, #3
  401dd2:	f8df a16c 	ldr.w	sl, [pc, #364]	; 401f40 <main+0x27c>
  401dd6:	fbb7 f3f3 	udiv	r3, r7, r3
  401dda:	eb03 0343 	add.w	r3, r3, r3, lsl #1
  401dde:	1afb      	subs	r3, r7, r3
  401de0:	2b01      	cmp	r3, #1
  401de2:	d042      	beq.n	401e6a <main+0x1a6>
  401de4:	2b02      	cmp	r3, #2
  401de6:	682b      	ldr	r3, [r5, #0]
  401de8:	9301      	str	r3, [sp, #4]
  401dea:	d04a      	beq.n	401e82 <main+0x1be>
  401dec:	47a0      	blx	r4
  401dee:	9b01      	ldr	r3, [sp, #4]
  401df0:	4601      	mov	r1, r0
  401df2:	4618      	mov	r0, r3
  401df4:	47c0      	blx	r8
  401df6:	4b43      	ldr	r3, [pc, #268]	; (401f04 <main+0x240>)
  401df8:	21a5      	movs	r1, #165	; 0xa5
  401dfa:	6018      	str	r0, [r3, #0]
  401dfc:	4842      	ldr	r0, [pc, #264]	; (401f08 <main+0x244>)
  401dfe:	47d0      	blx	sl
  401e00:	4b42      	ldr	r3, [pc, #264]	; (401f0c <main+0x248>)
  401e02:	2000      	movs	r0, #0
  401e04:	3701      	adds	r7, #1
  401e06:	4798      	blx	r3
  401e08:	4b41      	ldr	r3, [pc, #260]	; (401f10 <main+0x24c>)
  401e0a:	601f      	str	r7, [r3, #0]
  401e0c:	2301      	movs	r3, #1
  401e0e:	f88b 3000 	strb.w	r3, [fp]
  401e12:	2332      	movs	r3, #50	; 0x32
  401e14:	fbb7 f0f3 	udiv	r0, r7, r3
  401e18:	fb03 7010 	mls	r0, r3, r0, r7
  401e1c:	b928      	cbnz	r0, 401e2a <main+0x166>
  401e1e:	f242 023a 	movw	r2, #8250	; 0x203a
  401e22:	9b00      	ldr	r3, [sp, #0]
  401e24:	4491      	add	r9, r2
  401e26:	4649      	mov	r1, r9
  401e28:	4798      	blx	r3
  401e2a:	f8d5 a000 	ldr.w	sl, [r5]
  401e2e:	47a0      	blx	r4
  401e30:	4601      	mov	r1, r0
  401e32:	4650      	mov	r0, sl
  401e34:	47c0      	blx	r8
  401e36:	4b37      	ldr	r3, [pc, #220]	; (401f14 <main+0x250>)
  401e38:	681a      	ldr	r2, [r3, #0]
  401e3a:	f44f 737a 	mov.w	r3, #1000	; 0x3e8
  401e3e:	4353      	muls	r3, r2
  401e40:	4298      	cmp	r0, r3
  401e42:	d328      	bcc.n	401e96 <main+0x1d2>
  401e44:	2302      	movs	r3, #2
  401e46:	f44f 5280 	mov.w	r2, #4096	; 0x1000
  401e4a:	6373      	str	r3, [r6, #52]	; 0x34
  401e4c:	4b20      	ldr	r3, [pc, #128]	; (401ed0 <main+0x20c>)
  401e4e:	635a      	str	r2, [r3, #52]	; 0x34
  401e50:	e7fe      	b.n	401e50 <main+0x18c>
  401e52:	6bf3      	ldr	r3, [r6, #60]	; 0x3c
  401e54:	f013 0f02 	tst.w	r3, #2
  401e58:	f04f 0302 	mov.w	r3, #2
  401e5c:	d003      	beq.n	401e66 <main+0x1a2>
  401e5e:	6373      	str	r3, [r6, #52]	; 0x34
  401e60:	4648      	mov	r0, r9
  401e62:	47d0      	blx	sl
  401e64:	e78d      	b.n	401d82 <main+0xbe>
  401e66:	6333      	str	r3, [r6, #48]	; 0x30
  401e68:	e7fa      	b.n	401e60 <main+0x19c>
  401e6a:	682b      	ldr	r3, [r5, #0]
  401e6c:	9301      	str	r3, [sp, #4]
  401e6e:	47a0      	blx	r4
  401e70:	9b01      	ldr	r3, [sp, #4]
  401e72:	4601      	mov	r1, r0
  401e74:	4618      	mov	r0, r3
  401e76:	47c0      	blx	r8
  401e78:	4b27      	ldr	r3, [pc, #156]	; (401f18 <main+0x254>)
  401e7a:	21a5      	movs	r1, #165	; 0xa5
  401e7c:	6018      	str	r0, [r3, #0]
  401e7e:	4827      	ldr	r0, [pc, #156]	; (401f1c <main+0x258>)
  401e80:	e7bd      	b.n	401dfe <main+0x13a>
  401e82:	47a0      	blx	r4
  401e84:	9b01      	ldr	r3, [sp, #4]
  401e86:	4601      	mov	r1, r0
  401e88:	4618      	mov	r0, r3
  401e8a:	47c0      	blx	r8
  401e8c:	4b24      	ldr	r3, [pc, #144]	; (401f20 <main+0x25c>)
  401e8e:	21a5      	movs	r1, #165	; 0xa5
  401e90:	6018      	str	r0, [r3, #0]
  401e92:	4824      	ldr	r0, [pc, #144]	; (401f24 <main+0x260>)
  401e94:	e7b3      	b.n	401dfe <main+0x13a>
  401e96:	2200      	movs	r2, #0
  401e98:	4b23      	ldr	r3, [pc, #140]	; (401f28 <main+0x264>)
  401e9a:	601a      	str	r2, [r3, #0]
  401e9c:	e794      	b.n	401dc8 <main+0x104>
  401e9e:	bf00      	nop
  401ea0:	2040000a 	.word	0x2040000a
  401ea4:	004011c9 	.word	0x004011c9
  401ea8:	00401411 	.word	0x00401411
  401eac:	00401325 	.word	0x00401325
  401eb0:	2043e320 	.word	0x2043e320
  401eb4:	004016a5 	.word	0x004016a5
  401eb8:	00401181 	.word	0x00401181
  401ebc:	00401be1 	.word	0x00401be1
  401ec0:	004011ad 	.word	0x004011ad
  401ec4:	00401c89 	.word	0x00401c89
  401ec8:	400e1400 	.word	0x400e1400
  401ecc:	2043e528 	.word	0x2043e528
  401ed0:	400e1000 	.word	0x400e1000
  401ed4:	004002b9 	.word	0x004002b9
  401ed8:	004008bd 	.word	0x004008bd
  401edc:	004008e1 	.word	0x004008e1
  401ee0:	004019c5 	.word	0x004019c5
  401ee4:	2043e2a8 	.word	0x2043e2a8
  401ee8:	2043e2cc 	.word	0x2043e2cc
  401eec:	0040112f 	.word	0x0040112f
  401ef0:	40020000 	.word	0x40020000
  401ef4:	00401a51 	.word	0x00401a51
  401ef8:	00401781 	.word	0x00401781
  401efc:	2043e2c0 	.word	0x2043e2c0
  401f00:	204004a0 	.word	0x204004a0
  401f04:	20414ea0 	.word	0x20414ea0
  401f08:	204004a8 	.word	0x204004a8
  401f0c:	00400ae5 	.word	0x00400ae5
  401f10:	2043e2bc 	.word	0x2043e2bc
  401f14:	2043e2b0 	.word	0x2043e2b0
  401f18:	204298a0 	.word	0x204298a0
  401f1c:	20414ea8 	.word	0x20414ea8
  401f20:	2043e2a0 	.word	0x2043e2a0
  401f24:	204298a8 	.word	0x204298a8
  401f28:	2043e2c4 	.word	0x2043e2c4
  401f2c:	004011b9 	.word	0x004011b9
  401f30:	004002d5 	.word	0x004002d5
  401f34:	00250a78 	.word	0x00250a78
  401f38:	20400001 	.word	0x20400001
  401f3c:	00400a3d 	.word	0x00400a3d
  401f40:	00400ac1 	.word	0x00400ac1

00401f44 <__libc_init_array>:
  401f44:	b570      	push	{r4, r5, r6, lr}
  401f46:	4e0f      	ldr	r6, [pc, #60]	; (401f84 <__libc_init_array+0x40>)
  401f48:	4d0f      	ldr	r5, [pc, #60]	; (401f88 <__libc_init_array+0x44>)
  401f4a:	1b76      	subs	r6, r6, r5
  401f4c:	10b6      	asrs	r6, r6, #2
  401f4e:	bf18      	it	ne
  401f50:	2400      	movne	r4, #0
  401f52:	d005      	beq.n	401f60 <__libc_init_array+0x1c>
  401f54:	3401      	adds	r4, #1
  401f56:	f855 3b04 	ldr.w	r3, [r5], #4
  401f5a:	4798      	blx	r3
  401f5c:	42a6      	cmp	r6, r4
  401f5e:	d1f9      	bne.n	401f54 <__libc_init_array+0x10>
  401f60:	4e0a      	ldr	r6, [pc, #40]	; (401f8c <__libc_init_array+0x48>)
  401f62:	4d0b      	ldr	r5, [pc, #44]	; (401f90 <__libc_init_array+0x4c>)
  401f64:	1b76      	subs	r6, r6, r5
  401f66:	f000 fa3d 	bl	4023e4 <_init>
  401f6a:	10b6      	asrs	r6, r6, #2
  401f6c:	bf18      	it	ne
  401f6e:	2400      	movne	r4, #0
  401f70:	d006      	beq.n	401f80 <__libc_init_array+0x3c>
  401f72:	3401      	adds	r4, #1
  401f74:	f855 3b04 	ldr.w	r3, [r5], #4
  401f78:	4798      	blx	r3
  401f7a:	42a6      	cmp	r6, r4
  401f7c:	d1f9      	bne.n	401f72 <__libc_init_array+0x2e>
  401f7e:	bd70      	pop	{r4, r5, r6, pc}
  401f80:	bd70      	pop	{r4, r5, r6, pc}
  401f82:	bf00      	nop
  401f84:	004023f0 	.word	0x004023f0
  401f88:	004023f0 	.word	0x004023f0
  401f8c:	004023f8 	.word	0x004023f8
  401f90:	004023f0 	.word	0x004023f0

00401f94 <memcpy>:
  401f94:	4684      	mov	ip, r0
  401f96:	ea41 0300 	orr.w	r3, r1, r0
  401f9a:	f013 0303 	ands.w	r3, r3, #3
  401f9e:	d16d      	bne.n	40207c <memcpy+0xe8>
  401fa0:	3a40      	subs	r2, #64	; 0x40
  401fa2:	d341      	bcc.n	402028 <memcpy+0x94>
  401fa4:	f851 3b04 	ldr.w	r3, [r1], #4
  401fa8:	f840 3b04 	str.w	r3, [r0], #4
  401fac:	f851 3b04 	ldr.w	r3, [r1], #4
  401fb0:	f840 3b04 	str.w	r3, [r0], #4
  401fb4:	f851 3b04 	ldr.w	r3, [r1], #4
  401fb8:	f840 3b04 	str.w	r3, [r0], #4
  401fbc:	f851 3b04 	ldr.w	r3, [r1], #4
  401fc0:	f840 3b04 	str.w	r3, [r0], #4
  401fc4:	f851 3b04 	ldr.w	r3, [r1], #4
  401fc8:	f840 3b04 	str.w	r3, [r0], #4
  401fcc:	f851 3b04 	ldr.w	r3, [r1], #4
  401fd0:	f840 3b04 	str.w	r3, [r0], #4
  401fd4:	f851 3b04 	ldr.w	r3, [r1], #4
  401fd8:	f840 3b04 	str.w	r3, [r0], #4
  401fdc:	f851 3b04 	ldr.w	r3, [r1], #4
  401fe0:	f840 3b04 	str.w	r3, [r0], #4
  401fe4:	f851 3b04 	ldr.w	r3, [r1], #4
  401fe8:	f840 3b04 	str.w	r3, [r0], #4
  401fec:	f851 3b04 	ldr.w	r3, [r1], #4
  401ff0:	f840 3b04 	str.w	r3, [r0], #4
  401ff4:	f851 3b04 	ldr.w	r3, [r1], #4
  401ff8:	f840 3b04 	str.w	r3, [r0], #4
  401ffc:	f851 3b04 	ldr.w	r3, [r1], #4
  402000:	f840 3b04 	str.w	r3, [r0], #4
  402004:	f851 3b04 	ldr.w	r3, [r1], #4
  402008:	f840 3b04 	str.w	r3, [r0], #4
  40200c:	f851 3b04 	ldr.w	r3, [r1], #4
  402010:	f840 3b04 	str.w	r3, [r0], #4
  402014:	f851 3b04 	ldr.w	r3, [r1], #4
  402018:	f840 3b04 	str.w	r3, [r0], #4
  40201c:	f851 3b04 	ldr.w	r3, [r1], #4
  402020:	f840 3b04 	str.w	r3, [r0], #4
  402024:	3a40      	subs	r2, #64	; 0x40
  402026:	d2bd      	bcs.n	401fa4 <memcpy+0x10>
  402028:	3230      	adds	r2, #48	; 0x30
  40202a:	d311      	bcc.n	402050 <memcpy+0xbc>
  40202c:	f851 3b04 	ldr.w	r3, [r1], #4
  402030:	f840 3b04 	str.w	r3, [r0], #4
  402034:	f851 3b04 	ldr.w	r3, [r1], #4
  402038:	f840 3b04 	str.w	r3, [r0], #4
  40203c:	f851 3b04 	ldr.w	r3, [r1], #4
  402040:	f840 3b04 	str.w	r3, [r0], #4
  402044:	f851 3b04 	ldr.w	r3, [r1], #4
  402048:	f840 3b04 	str.w	r3, [r0], #4
  40204c:	3a10      	subs	r2, #16
  40204e:	d2ed      	bcs.n	40202c <memcpy+0x98>
  402050:	320c      	adds	r2, #12
  402052:	d305      	bcc.n	402060 <memcpy+0xcc>
  402054:	f851 3b04 	ldr.w	r3, [r1], #4
  402058:	f840 3b04 	str.w	r3, [r0], #4
  40205c:	3a04      	subs	r2, #4
  40205e:	d2f9      	bcs.n	402054 <memcpy+0xc0>
  402060:	3204      	adds	r2, #4
  402062:	d008      	beq.n	402076 <memcpy+0xe2>
  402064:	07d2      	lsls	r2, r2, #31
  402066:	bf1c      	itt	ne
  402068:	f811 3b01 	ldrbne.w	r3, [r1], #1
  40206c:	f800 3b01 	strbne.w	r3, [r0], #1
  402070:	d301      	bcc.n	402076 <memcpy+0xe2>
  402072:	880b      	ldrh	r3, [r1, #0]
  402074:	8003      	strh	r3, [r0, #0]
  402076:	4660      	mov	r0, ip
  402078:	4770      	bx	lr
  40207a:	bf00      	nop
  40207c:	2a08      	cmp	r2, #8
  40207e:	d313      	bcc.n	4020a8 <memcpy+0x114>
  402080:	078b      	lsls	r3, r1, #30
  402082:	d08d      	beq.n	401fa0 <memcpy+0xc>
  402084:	f010 0303 	ands.w	r3, r0, #3
  402088:	d08a      	beq.n	401fa0 <memcpy+0xc>
  40208a:	f1c3 0304 	rsb	r3, r3, #4
  40208e:	1ad2      	subs	r2, r2, r3
  402090:	07db      	lsls	r3, r3, #31
  402092:	bf1c      	itt	ne
  402094:	f811 3b01 	ldrbne.w	r3, [r1], #1
  402098:	f800 3b01 	strbne.w	r3, [r0], #1
  40209c:	d380      	bcc.n	401fa0 <memcpy+0xc>
  40209e:	f831 3b02 	ldrh.w	r3, [r1], #2
  4020a2:	f820 3b02 	strh.w	r3, [r0], #2
  4020a6:	e77b      	b.n	401fa0 <memcpy+0xc>
  4020a8:	3a04      	subs	r2, #4
  4020aa:	d3d9      	bcc.n	402060 <memcpy+0xcc>
  4020ac:	3a01      	subs	r2, #1
  4020ae:	f811 3b01 	ldrb.w	r3, [r1], #1
  4020b2:	f800 3b01 	strb.w	r3, [r0], #1
  4020b6:	d2f9      	bcs.n	4020ac <memcpy+0x118>
  4020b8:	780b      	ldrb	r3, [r1, #0]
  4020ba:	7003      	strb	r3, [r0, #0]
  4020bc:	784b      	ldrb	r3, [r1, #1]
  4020be:	7043      	strb	r3, [r0, #1]
  4020c0:	788b      	ldrb	r3, [r1, #2]
  4020c2:	7083      	strb	r3, [r0, #2]
  4020c4:	4660      	mov	r0, ip
  4020c6:	4770      	bx	lr

004020c8 <memset>:
  4020c8:	b470      	push	{r4, r5, r6}
  4020ca:	0786      	lsls	r6, r0, #30
  4020cc:	d046      	beq.n	40215c <memset+0x94>
  4020ce:	1e54      	subs	r4, r2, #1
  4020d0:	2a00      	cmp	r2, #0
  4020d2:	d041      	beq.n	402158 <memset+0x90>
  4020d4:	b2ca      	uxtb	r2, r1
  4020d6:	4603      	mov	r3, r0
  4020d8:	e002      	b.n	4020e0 <memset+0x18>
  4020da:	f114 34ff 	adds.w	r4, r4, #4294967295
  4020de:	d33b      	bcc.n	402158 <memset+0x90>
  4020e0:	f803 2b01 	strb.w	r2, [r3], #1
  4020e4:	079d      	lsls	r5, r3, #30
  4020e6:	d1f8      	bne.n	4020da <memset+0x12>
  4020e8:	2c03      	cmp	r4, #3
  4020ea:	d92e      	bls.n	40214a <memset+0x82>
  4020ec:	b2cd      	uxtb	r5, r1
  4020ee:	ea45 2505 	orr.w	r5, r5, r5, lsl #8
  4020f2:	2c0f      	cmp	r4, #15
  4020f4:	ea45 4505 	orr.w	r5, r5, r5, lsl #16
  4020f8:	d919      	bls.n	40212e <memset+0x66>
  4020fa:	f103 0210 	add.w	r2, r3, #16
  4020fe:	4626      	mov	r6, r4
  402100:	3e10      	subs	r6, #16
  402102:	2e0f      	cmp	r6, #15
  402104:	f842 5c10 	str.w	r5, [r2, #-16]
  402108:	f842 5c0c 	str.w	r5, [r2, #-12]
  40210c:	f842 5c08 	str.w	r5, [r2, #-8]
  402110:	f842 5c04 	str.w	r5, [r2, #-4]
  402114:	f102 0210 	add.w	r2, r2, #16
  402118:	d8f2      	bhi.n	402100 <memset+0x38>
  40211a:	f1a4 0210 	sub.w	r2, r4, #16
  40211e:	f022 020f 	bic.w	r2, r2, #15
  402122:	f004 040f 	and.w	r4, r4, #15
  402126:	3210      	adds	r2, #16
  402128:	2c03      	cmp	r4, #3
  40212a:	4413      	add	r3, r2
  40212c:	d90d      	bls.n	40214a <memset+0x82>
  40212e:	461e      	mov	r6, r3
  402130:	4622      	mov	r2, r4
  402132:	3a04      	subs	r2, #4
  402134:	2a03      	cmp	r2, #3
  402136:	f846 5b04 	str.w	r5, [r6], #4
  40213a:	d8fa      	bhi.n	402132 <memset+0x6a>
  40213c:	1f22      	subs	r2, r4, #4
  40213e:	f022 0203 	bic.w	r2, r2, #3
  402142:	3204      	adds	r2, #4
  402144:	4413      	add	r3, r2
  402146:	f004 0403 	and.w	r4, r4, #3
  40214a:	b12c      	cbz	r4, 402158 <memset+0x90>
  40214c:	b2c9      	uxtb	r1, r1
  40214e:	441c      	add	r4, r3
  402150:	f803 1b01 	strb.w	r1, [r3], #1
  402154:	429c      	cmp	r4, r3
  402156:	d1fb      	bne.n	402150 <memset+0x88>
  402158:	bc70      	pop	{r4, r5, r6}
  40215a:	4770      	bx	lr
  40215c:	4614      	mov	r4, r2
  40215e:	4603      	mov	r3, r0
  402160:	e7c2      	b.n	4020e8 <memset+0x20>
  402162:	bf00      	nop

00402164 <register_fini>:
  402164:	4b02      	ldr	r3, [pc, #8]	; (402170 <register_fini+0xc>)
  402166:	b113      	cbz	r3, 40216e <register_fini+0xa>
  402168:	4802      	ldr	r0, [pc, #8]	; (402174 <register_fini+0x10>)
  40216a:	f000 b805 	b.w	402178 <atexit>
  40216e:	4770      	bx	lr
  402170:	00000000 	.word	0x00000000
  402174:	00402185 	.word	0x00402185

00402178 <atexit>:
  402178:	2300      	movs	r3, #0
  40217a:	4601      	mov	r1, r0
  40217c:	461a      	mov	r2, r3
  40217e:	4618      	mov	r0, r3
  402180:	f000 b81e 	b.w	4021c0 <__register_exitproc>

00402184 <__libc_fini_array>:
  402184:	b538      	push	{r3, r4, r5, lr}
  402186:	4c0a      	ldr	r4, [pc, #40]	; (4021b0 <__libc_fini_array+0x2c>)
  402188:	4d0a      	ldr	r5, [pc, #40]	; (4021b4 <__libc_fini_array+0x30>)
  40218a:	1b64      	subs	r4, r4, r5
  40218c:	10a4      	asrs	r4, r4, #2
  40218e:	d00a      	beq.n	4021a6 <__libc_fini_array+0x22>
  402190:	f104 4380 	add.w	r3, r4, #1073741824	; 0x40000000
  402194:	3b01      	subs	r3, #1
  402196:	eb05 0583 	add.w	r5, r5, r3, lsl #2
  40219a:	3c01      	subs	r4, #1
  40219c:	f855 3904 	ldr.w	r3, [r5], #-4
  4021a0:	4798      	blx	r3
  4021a2:	2c00      	cmp	r4, #0
  4021a4:	d1f9      	bne.n	40219a <__libc_fini_array+0x16>
  4021a6:	e8bd 4038 	ldmia.w	sp!, {r3, r4, r5, lr}
  4021aa:	f000 b925 	b.w	4023f8 <_fini>
  4021ae:	bf00      	nop
  4021b0:	00402408 	.word	0x00402408
  4021b4:	00402404 	.word	0x00402404

004021b8 <__retarget_lock_acquire_recursive>:
  4021b8:	4770      	bx	lr
  4021ba:	bf00      	nop

004021bc <__retarget_lock_release_recursive>:
  4021bc:	4770      	bx	lr
  4021be:	bf00      	nop

004021c0 <__register_exitproc>:
  4021c0:	e92d 43f8 	stmdb	sp!, {r3, r4, r5, r6, r7, r8, r9, lr}
  4021c4:	4d2c      	ldr	r5, [pc, #176]	; (402278 <__register_exitproc+0xb8>)
  4021c6:	4606      	mov	r6, r0
  4021c8:	6828      	ldr	r0, [r5, #0]
  4021ca:	4698      	mov	r8, r3
  4021cc:	460f      	mov	r7, r1
  4021ce:	4691      	mov	r9, r2
  4021d0:	f7ff fff2 	bl	4021b8 <__retarget_lock_acquire_recursive>
  4021d4:	4b29      	ldr	r3, [pc, #164]	; (40227c <__register_exitproc+0xbc>)
  4021d6:	681c      	ldr	r4, [r3, #0]
  4021d8:	f8d4 3148 	ldr.w	r3, [r4, #328]	; 0x148
  4021dc:	2b00      	cmp	r3, #0
  4021de:	d03e      	beq.n	40225e <__register_exitproc+0x9e>
  4021e0:	685a      	ldr	r2, [r3, #4]
  4021e2:	2a1f      	cmp	r2, #31
  4021e4:	dc1c      	bgt.n	402220 <__register_exitproc+0x60>
  4021e6:	f102 0e01 	add.w	lr, r2, #1
  4021ea:	b176      	cbz	r6, 40220a <__register_exitproc+0x4a>
  4021ec:	eb03 0182 	add.w	r1, r3, r2, lsl #2
  4021f0:	2401      	movs	r4, #1
  4021f2:	f8c1 9088 	str.w	r9, [r1, #136]	; 0x88
  4021f6:	f8d3 0188 	ldr.w	r0, [r3, #392]	; 0x188
  4021fa:	4094      	lsls	r4, r2
  4021fc:	4320      	orrs	r0, r4
  4021fe:	2e02      	cmp	r6, #2
  402200:	f8c3 0188 	str.w	r0, [r3, #392]	; 0x188
  402204:	f8c1 8108 	str.w	r8, [r1, #264]	; 0x108
  402208:	d023      	beq.n	402252 <__register_exitproc+0x92>
  40220a:	3202      	adds	r2, #2
  40220c:	f8c3 e004 	str.w	lr, [r3, #4]
  402210:	6828      	ldr	r0, [r5, #0]
  402212:	f843 7022 	str.w	r7, [r3, r2, lsl #2]
  402216:	f7ff ffd1 	bl	4021bc <__retarget_lock_release_recursive>
  40221a:	2000      	movs	r0, #0
  40221c:	e8bd 83f8 	ldmia.w	sp!, {r3, r4, r5, r6, r7, r8, r9, pc}
  402220:	4b17      	ldr	r3, [pc, #92]	; (402280 <__register_exitproc+0xc0>)
  402222:	b30b      	cbz	r3, 402268 <__register_exitproc+0xa8>
  402224:	f44f 70c8 	mov.w	r0, #400	; 0x190
  402228:	f3af 8000 	nop.w
  40222c:	4603      	mov	r3, r0
  40222e:	b1d8      	cbz	r0, 402268 <__register_exitproc+0xa8>
  402230:	f8d4 2148 	ldr.w	r2, [r4, #328]	; 0x148
  402234:	6002      	str	r2, [r0, #0]
  402236:	2100      	movs	r1, #0
  402238:	6041      	str	r1, [r0, #4]
  40223a:	460a      	mov	r2, r1
  40223c:	f8c4 0148 	str.w	r0, [r4, #328]	; 0x148
  402240:	f04f 0e01 	mov.w	lr, #1
  402244:	f8c0 1188 	str.w	r1, [r0, #392]	; 0x188
  402248:	f8c0 118c 	str.w	r1, [r0, #396]	; 0x18c
  40224c:	2e00      	cmp	r6, #0
  40224e:	d0dc      	beq.n	40220a <__register_exitproc+0x4a>
  402250:	e7cc      	b.n	4021ec <__register_exitproc+0x2c>
  402252:	f8d3 118c 	ldr.w	r1, [r3, #396]	; 0x18c
  402256:	430c      	orrs	r4, r1
  402258:	f8c3 418c 	str.w	r4, [r3, #396]	; 0x18c
  40225c:	e7d5      	b.n	40220a <__register_exitproc+0x4a>
  40225e:	f504 73a6 	add.w	r3, r4, #332	; 0x14c
  402262:	f8c4 3148 	str.w	r3, [r4, #328]	; 0x148
  402266:	e7bb      	b.n	4021e0 <__register_exitproc+0x20>
  402268:	6828      	ldr	r0, [r5, #0]
  40226a:	f7ff ffa7 	bl	4021bc <__retarget_lock_release_recursive>
  40226e:	f04f 30ff 	mov.w	r0, #4294967295
  402272:	e8bd 83f8 	ldmia.w	sp!, {r3, r4, r5, r6, r7, r8, r9, pc}
  402276:	bf00      	nop
  402278:	20400440 	.word	0x20400440
  40227c:	004023e0 	.word	0x004023e0
  402280:	00000000 	.word	0x00000000

00402284 <mmc_trans_multipliers>:
  402284:	00000000 0000000a 0000000c 0000000d     ................
  402294:	0000000f 00000014 0000001a 0000001e     ................
  4022a4:	00000023 00000028 0000002d 00000034     #...(...-...4...
  4022b4:	00000037 0000003c 00000046 00000050     7...<...F...P...

004022c4 <sd_mmc_trans_units>:
  4022c4:	0000000a 00000064 000003e8 00002710     ....d........'..
	...

004022e0 <sd_trans_multipliers>:
  4022e0:	00000000 0000000a 0000000c 0000000d     ................
  4022f0:	0000000f 00000014 00000019 0000001e     ................
  402300:	00000023 00000028 0000002d 00000032     #...(...-...2...
  402310:	00000037 0000003c 00000046 00000050     7...<...F...P...
  402320:	00000001 00000002 00000004 00000008     ................
  402330:	00000010 00000020 00000040 00000080     .... ...@.......
  402340:	00000100 00000200 00000400              ............

0040234c <CSWTCH.6>:
  40234c:	03000100 3a070200 4948473f 4d4c4b4a     .......:?GHIJKLM
  40235c:	52514f4e 56555453 5a595857 675e5c5b     NOQRSTUVWXYZ[\^g
  40236c:	6b6a6968 706f6e6c 7a797371 6d46417b     hijklnopqsyz{AFm
  40237c:	80af0a06 034f1e1e 8d6ffffd 0127bac8     ......O...o...'.
  40238c:	161c0b1e 0124a0b9 8383308c 6f8c053d     ......$..0..=..o
  40239c:	3f44053c 053c3f4e 0760708b 6f8c053d     <.D?N?<..p`.=..o
  4023ac:	44525257 54710541 54700941 09410871     WRRDA.qTA.pTq.A.
  4023bc:	05410745 50535471 308a2000 99220101     E.A.qTSP. .0..".
  4023cc:	516e4300                                .CnQ

004023d0 <CSWTCH.77>:
  4023d0:	00000200 00000400 00000000 00000600     ................

004023e0 <_global_impure_ptr>:
  4023e0:	20400018                                ..@ 

004023e4 <_init>:
  4023e4:	b5f8      	push	{r3, r4, r5, r6, r7, lr}
  4023e6:	bf00      	nop
  4023e8:	bcf8      	pop	{r3, r4, r5, r6, r7}
  4023ea:	bc08      	pop	{r3}
  4023ec:	469e      	mov	lr, r3
  4023ee:	4770      	bx	lr

004023f0 <__init_array_start>:
  4023f0:	00402165 	.word	0x00402165

004023f4 <__frame_dummy_init_array_entry>:
  4023f4:	00400165                                e.@.

004023f8 <_fini>:
  4023f8:	b5f8      	push	{r3, r4, r5, r6, r7, lr}
  4023fa:	bf00      	nop
  4023fc:	bcf8      	pop	{r3, r4, r5, r6, r7}
  4023fe:	bc08      	pop	{r3}
  402400:	469e      	mov	lr, r3
  402402:	4770      	bx	lr

00402404 <__fini_array_start>:
  402404:	00400141 	.word	0x00400141

Disassembly of section .relocate:

20400000 <portable_delay_cycles>:
20400000:	f3bf 8f5f 	dmb	sy
20400004:	3801      	subs	r0, #1
20400006:	d1fb      	bne.n	20400000 <portable_delay_cycles>
20400008:	4770      	bx	lr

2040000a <g_interrupt_enabled>:
2040000a:	0001                                        ..

2040000c <SystemCoreClock>:
2040000c:	0900 003d                                   ..=.

20400010 <gain>:
20400010:	0001 0000 0000 0000                         ........

20400018 <impure_data>:
20400018:	0000 0000 0304 2040 036c 2040 03d4 2040     ......@ l.@ ..@ 
	...
204000c0:	0001 0000 0000 0000 330e abcd 1234 e66d     .........3..4.m.
204000d0:	deec 0005 000b 0000 0000 0000 0000 0000     ................
	...

20400440 <__atexit_recursive_mutex>:
20400440:	e52c 2043                                   ,.C 
